
benchspec/CPU/531.deepsjeng_r/exe/deepsjeng_r_base.RapModTest-llvm-m64:     file format elf64-x86-64


Disassembly of section .init:

0000000000001000 <_init>:
    1000:	f3 0f 1e fa          	endbr64 
    1004:	48 83 ec 08          	sub    $0x8,%rsp
    1008:	48 8b 05 d1 8f 01 00 	mov    0x18fd1(%rip),%rax        # 19fe0 <__gmon_start__@Base>
    100f:	48 85 c0             	test   %rax,%rax
    1012:	74 02                	je     1016 <_init+0x16>
    1014:	ff d0                	call   *%rax
    1016:	48 83 c4 08          	add    $0x8,%rsp
    101a:	c3                   	ret    

Disassembly of section .plt:

0000000000001020 <ungetc@plt-0x10>:
    1020:	ff 35 e2 8f 01 00    	push   0x18fe2(%rip)        # 1a008 <_GLOBAL_OFFSET_TABLE_+0x8>
    1026:	ff 25 e4 8f 01 00    	jmp    *0x18fe4(%rip)        # 1a010 <_GLOBAL_OFFSET_TABLE_+0x10>
    102c:	0f 1f 40 00          	nopl   0x0(%rax)

0000000000001030 <ungetc@plt>:
    1030:	ff 25 e2 8f 01 00    	jmp    *0x18fe2(%rip)        # 1a018 <ungetc@GLIBC_2.2.5>
    1036:	68 00 00 00 00       	push   $0x0
    103b:	e9 e0 ff ff ff       	jmp    1020 <_init+0x20>

0000000000001040 <sprintf@plt>:
    1040:	ff 25 da 8f 01 00    	jmp    *0x18fda(%rip)        # 1a020 <sprintf@GLIBC_2.2.5>
    1046:	68 01 00 00 00       	push   $0x1
    104b:	e9 d0 ff ff ff       	jmp    1020 <_init+0x20>

0000000000001050 <strstr@plt>:
    1050:	ff 25 d2 8f 01 00    	jmp    *0x18fd2(%rip)        # 1a028 <strstr@GLIBC_2.2.5>
    1056:	68 02 00 00 00       	push   $0x2
    105b:	e9 c0 ff ff ff       	jmp    1020 <_init+0x20>

0000000000001060 <getc@plt>:
    1060:	ff 25 ca 8f 01 00    	jmp    *0x18fca(%rip)        # 1a030 <getc@GLIBC_2.2.5>
    1066:	68 03 00 00 00       	push   $0x3
    106b:	e9 b0 ff ff ff       	jmp    1020 <_init+0x20>

0000000000001070 <strlen@plt>:
    1070:	ff 25 c2 8f 01 00    	jmp    *0x18fc2(%rip)        # 1a038 <strlen@GLIBC_2.2.5>
    1076:	68 04 00 00 00       	push   $0x4
    107b:	e9 a0 ff ff ff       	jmp    1020 <_init+0x20>

0000000000001080 <strncmp@plt>:
    1080:	ff 25 ba 8f 01 00    	jmp    *0x18fba(%rip)        # 1a040 <strncmp@GLIBC_2.2.5>
    1086:	68 05 00 00 00       	push   $0x5
    108b:	e9 90 ff ff ff       	jmp    1020 <_init+0x20>

0000000000001090 <strncpy@plt>:
    1090:	ff 25 b2 8f 01 00    	jmp    *0x18fb2(%rip)        # 1a048 <strncpy@GLIBC_2.2.5>
    1096:	68 06 00 00 00       	push   $0x6
    109b:	e9 80 ff ff ff       	jmp    1020 <_init+0x20>

00000000000010a0 <memset@plt>:
    10a0:	ff 25 aa 8f 01 00    	jmp    *0x18faa(%rip)        # 1a050 <memset@GLIBC_2.2.5>
    10a6:	68 07 00 00 00       	push   $0x7
    10ab:	e9 70 ff ff ff       	jmp    1020 <_init+0x20>

00000000000010b0 <sscanf@plt>:
    10b0:	ff 25 a2 8f 01 00    	jmp    *0x18fa2(%rip)        # 1a058 <sscanf@GLIBC_2.2.5>
    10b6:	68 08 00 00 00       	push   $0x8
    10bb:	e9 60 ff ff ff       	jmp    1020 <_init+0x20>

00000000000010c0 <memcpy@plt>:
    10c0:	ff 25 9a 8f 01 00    	jmp    *0x18f9a(%rip)        # 1a060 <memcpy@GLIBC_2.14>
    10c6:	68 09 00 00 00       	push   $0x9
    10cb:	e9 50 ff ff ff       	jmp    1020 <_init+0x20>

00000000000010d0 <strcpy@plt>:
    10d0:	ff 25 92 8f 01 00    	jmp    *0x18f92(%rip)        # 1a068 <strcpy@GLIBC_2.2.5>
    10d6:	68 0a 00 00 00       	push   $0xa
    10db:	e9 40 ff ff ff       	jmp    1020 <_init+0x20>

00000000000010e0 <fclose@plt>:
    10e0:	ff 25 8a 8f 01 00    	jmp    *0x18f8a(%rip)        # 1a070 <fclose@GLIBC_2.2.5>
    10e6:	68 0b 00 00 00       	push   $0xb
    10eb:	e9 30 ff ff ff       	jmp    1020 <_init+0x20>

00000000000010f0 <fopen@plt>:
    10f0:	ff 25 82 8f 01 00    	jmp    *0x18f82(%rip)        # 1a078 <fopen@GLIBC_2.2.5>
    10f6:	68 0c 00 00 00       	push   $0xc
    10fb:	e9 20 ff ff ff       	jmp    1020 <_init+0x20>

0000000000001100 <free@plt>:
    1100:	ff 25 7a 8f 01 00    	jmp    *0x18f7a(%rip)        # 1a080 <free@GLIBC_2.2.5>
    1106:	68 0d 00 00 00       	push   $0xd
    110b:	e9 10 ff ff ff       	jmp    1020 <_init+0x20>

0000000000001110 <exit@plt>:
    1110:	ff 25 72 8f 01 00    	jmp    *0x18f72(%rip)        # 1a088 <exit@GLIBC_2.2.5>
    1116:	68 0e 00 00 00       	push   $0xe
    111b:	e9 00 ff ff ff       	jmp    1020 <_init+0x20>

0000000000001120 <malloc@plt>:
    1120:	ff 25 6a 8f 01 00    	jmp    *0x18f6a(%rip)        # 1a090 <malloc@GLIBC_2.2.5>
    1126:	68 0f 00 00 00       	push   $0xf
    112b:	e9 f0 fe ff ff       	jmp    1020 <_init+0x20>

0000000000001130 <vfprintf@plt>:
    1130:	ff 25 62 8f 01 00    	jmp    *0x18f62(%rip)        # 1a098 <vfprintf@GLIBC_2.2.5>
    1136:	68 10 00 00 00       	push   $0x10
    113b:	e9 e0 fe ff ff       	jmp    1020 <_init+0x20>

0000000000001140 <strcmp@plt>:
    1140:	ff 25 5a 8f 01 00    	jmp    *0x18f5a(%rip)        # 1a0a0 <strcmp@GLIBC_2.2.5>
    1146:	68 11 00 00 00       	push   $0x11
    114b:	e9 d0 fe ff ff       	jmp    1020 <_init+0x20>

0000000000001150 <strtol@plt>:
    1150:	ff 25 52 8f 01 00    	jmp    *0x18f52(%rip)        # 1a0a8 <strtol@GLIBC_2.2.5>
    1156:	68 12 00 00 00       	push   $0x12
    115b:	e9 c0 fe ff ff       	jmp    1020 <_init+0x20>

0000000000001160 <setbuf@plt>:
    1160:	ff 25 4a 8f 01 00    	jmp    *0x18f4a(%rip)        # 1a0b0 <setbuf@GLIBC_2.2.5>
    1166:	68 13 00 00 00       	push   $0x13
    116b:	e9 b0 fe ff ff       	jmp    1020 <_init+0x20>

0000000000001170 <fprintf@plt>:
    1170:	ff 25 42 8f 01 00    	jmp    *0x18f42(%rip)        # 1a0b8 <fprintf@GLIBC_2.2.5>
    1176:	68 14 00 00 00       	push   $0x14
    117b:	e9 a0 fe ff ff       	jmp    1020 <_init+0x20>

0000000000001180 <fgets@plt>:
    1180:	ff 25 3a 8f 01 00    	jmp    *0x18f3a(%rip)        # 1a0c0 <fgets@GLIBC_2.2.5>
    1186:	68 15 00 00 00       	push   $0x15
    118b:	e9 90 fe ff ff       	jmp    1020 <_init+0x20>

0000000000001190 <isalpha@plt>:
    1190:	ff 25 32 8f 01 00    	jmp    *0x18f32(%rip)        # 1a0c8 <isalpha@GLIBC_2.2.5>
    1196:	68 16 00 00 00       	push   $0x16
    119b:	e9 80 fe ff ff       	jmp    1020 <_init+0x20>

00000000000011a0 <strcat@plt>:
    11a0:	ff 25 2a 8f 01 00    	jmp    *0x18f2a(%rip)        # 1a0d0 <strcat@GLIBC_2.2.5>
    11a6:	68 17 00 00 00       	push   $0x17
    11ab:	e9 70 fe ff ff       	jmp    1020 <_init+0x20>

Disassembly of section .plt.got:

00000000000011b0 <__cxa_finalize@plt>:
    11b0:	ff 25 0a 8e 01 00    	jmp    *0x18e0a(%rip)        # 19fc0 <__cxa_finalize@GLIBC_2.2.5>
    11b6:	66 90                	xchg   %ax,%ax

Disassembly of section .text:

00000000000011c0 <_start>:
    11c0:	f3 0f 1e fa          	endbr64 
    11c4:	31 ed                	xor    %ebp,%ebp
    11c6:	49 89 d1             	mov    %rdx,%r9
    11c9:	5e                   	pop    %rsi
    11ca:	48 89 e2             	mov    %rsp,%rdx
    11cd:	48 83 e4 f0          	and    $0xfffffffffffffff0,%rsp
    11d1:	50                   	push   %rax
    11d2:	54                   	push   %rsp
    11d3:	45 31 c0             	xor    %r8d,%r8d
    11d6:	31 c9                	xor    %ecx,%ecx
    11d8:	48 8d 3d c1 03 01 00 	lea    0x103c1(%rip),%rdi        # 115a0 <main>
    11df:	ff 15 e3 8d 01 00    	call   *0x18de3(%rip)        # 19fc8 <__libc_start_main@GLIBC_2.34>
    11e5:	f4                   	hlt    
    11e6:	66 2e 0f 1f 84 00 00 	cs nopw 0x0(%rax,%rax,1)
    11ed:	00 00 00 

00000000000011f0 <deregister_tm_clones>:
    11f0:	48 8d 3d f1 8e 01 00 	lea    0x18ef1(%rip),%rdi        # 1a0e8 <__TMC_END__>
    11f7:	48 8d 05 ea 8e 01 00 	lea    0x18eea(%rip),%rax        # 1a0e8 <__TMC_END__>
    11fe:	48 39 f8             	cmp    %rdi,%rax
    1201:	74 15                	je     1218 <deregister_tm_clones+0x28>
    1203:	48 8b 05 ce 8d 01 00 	mov    0x18dce(%rip),%rax        # 19fd8 <_ITM_deregisterTMCloneTable@Base>
    120a:	48 85 c0             	test   %rax,%rax
    120d:	74 09                	je     1218 <deregister_tm_clones+0x28>
    120f:	ff e0                	jmp    *%rax
    1211:	0f 1f 80 00 00 00 00 	nopl   0x0(%rax)
    1218:	c3                   	ret    
    1219:	0f 1f 80 00 00 00 00 	nopl   0x0(%rax)

0000000000001220 <register_tm_clones>:
    1220:	48 8d 3d c1 8e 01 00 	lea    0x18ec1(%rip),%rdi        # 1a0e8 <__TMC_END__>
    1227:	48 8d 35 ba 8e 01 00 	lea    0x18eba(%rip),%rsi        # 1a0e8 <__TMC_END__>
    122e:	48 29 fe             	sub    %rdi,%rsi
    1231:	48 89 f0             	mov    %rsi,%rax
    1234:	48 c1 ee 3f          	shr    $0x3f,%rsi
    1238:	48 c1 f8 03          	sar    $0x3,%rax
    123c:	48 01 c6             	add    %rax,%rsi
    123f:	48 d1 fe             	sar    %rsi
    1242:	74 14                	je     1258 <register_tm_clones+0x38>
    1244:	48 8b 05 9d 8d 01 00 	mov    0x18d9d(%rip),%rax        # 19fe8 <_ITM_registerTMCloneTable@Base>
    124b:	48 85 c0             	test   %rax,%rax
    124e:	74 08                	je     1258 <register_tm_clones+0x38>
    1250:	ff e0                	jmp    *%rax
    1252:	66 0f 1f 44 00 00    	nopw   0x0(%rax,%rax,1)
    1258:	c3                   	ret    
    1259:	0f 1f 80 00 00 00 00 	nopl   0x0(%rax)

0000000000001260 <__do_global_dtors_aux>:
    1260:	f3 0f 1e fa          	endbr64 
    1264:	80 3d 85 8e 01 00 00 	cmpb   $0x0,0x18e85(%rip)        # 1a0f0 <completed.0>
    126b:	75 2b                	jne    1298 <__do_global_dtors_aux+0x38>
    126d:	55                   	push   %rbp
    126e:	48 83 3d 4a 8d 01 00 	cmpq   $0x0,0x18d4a(%rip)        # 19fc0 <__cxa_finalize@GLIBC_2.2.5>
    1275:	00 
    1276:	48 89 e5             	mov    %rsp,%rbp
    1279:	74 0c                	je     1287 <__do_global_dtors_aux+0x27>
    127b:	48 8b 3d 5e 8e 01 00 	mov    0x18e5e(%rip),%rdi        # 1a0e0 <__dso_handle>
    1282:	e8 29 ff ff ff       	call   11b0 <__cxa_finalize@plt>
    1287:	e8 64 ff ff ff       	call   11f0 <deregister_tm_clones>
    128c:	c6 05 5d 8e 01 00 01 	movb   $0x1,0x18e5d(%rip)        # 1a0f0 <completed.0>
    1293:	5d                   	pop    %rbp
    1294:	c3                   	ret    
    1295:	0f 1f 00             	nopl   (%rax)
    1298:	c3                   	ret    
    1299:	0f 1f 80 00 00 00 00 	nopl   0x0(%rax)

00000000000012a0 <frame_dummy>:
    12a0:	f3 0f 1e fa          	endbr64 
    12a4:	e9 77 ff ff ff       	jmp    1220 <register_tm_clones>
    12a9:	0f 1f 80 00 00 00 00 	nopl   0x0(%rax)

00000000000012b0 <_Z11is_attackedP7state_tii>:
    12b0:	55                   	push   %rbp
    12b1:	41 57                	push   %r15
    12b3:	41 56                	push   %r14
    12b5:	41 54                	push   %r12
    12b7:	53                   	push   %rbx
    12b8:	48 8b 9f 08 01 00 00 	mov    0x108(%rdi),%rbx
    12bf:	4c 63 f6             	movslq %esi,%r14
    12c2:	85 d2                	test   %edx,%edx
    12c4:	0f 84 2b 01 00 00    	je     13f5 <_Z11is_attackedP7state_tii+0x145>
    12ca:	48 8d 05 2f 92 01 00 	lea    0x1922f(%rip),%rax        # 1a500 <PawnAttacksBlack>
    12d1:	4a 8b 0c f0          	mov    (%rax,%r14,8),%rcx
    12d5:	b8 01 00 00 00       	mov    $0x1,%eax
    12da:	48 85 8f 28 01 00 00 	test   %rcx,0x128(%rdi)
    12e1:	0f 85 59 01 00 00    	jne    1440 <_Z11is_attackedP7state_tii+0x190>
    12e7:	48 8d 05 12 8e 01 00 	lea    0x18e12(%rip),%rax        # 1a100 <KnightMoves>
    12ee:	4a 8b 0c f0          	mov    (%rax,%r14,8),%rcx
    12f2:	b8 03 00 00 00       	mov    $0x3,%eax
    12f7:	48 85 8f 38 01 00 00 	test   %rcx,0x138(%rdi)
    12fe:	0f 85 3c 01 00 00    	jne    1440 <_Z11is_attackedP7state_tii+0x190>
    1304:	48 8d 05 f5 8f 01 00 	lea    0x18ff5(%rip),%rax        # 1a300 <KingMoves>
    130b:	4a 8b 0c f0          	mov    (%rax,%r14,8),%rcx
    130f:	b8 05 00 00 00       	mov    $0x5,%eax
    1314:	48 85 8f 48 01 00 00 	test   %rcx,0x148(%rdi)
    131b:	0f 85 1f 01 00 00    	jne    1440 <_Z11is_attackedP7state_tii+0x190>
    1321:	4c 8b bf 68 01 00 00 	mov    0x168(%rdi),%r15
    1328:	4c 0b bf 58 01 00 00 	or     0x158(%rdi),%r15
    132f:	89 f0                	mov    %esi,%eax
    1331:	c1 f8 03             	sar    $0x3,%eax
    1334:	48 98                	cltq   
    1336:	48 8d 0d 03 c4 01 00 	lea    0x1c403(%rip),%rcx        # 1d740 <RankMask>
    133d:	4c 85 3c c1          	test   %r15,(%rcx,%rax,8)
    1341:	74 23                	je     1366 <_Z11is_attackedP7state_tii+0xb6>
    1343:	49 89 fc             	mov    %rdi,%r12
    1346:	48 89 df             	mov    %rbx,%rdi
    1349:	89 f5                	mov    %esi,%ebp
    134b:	e8 40 32 00 00       	call   4590 <_Z11RankAttacksyj>
    1350:	4c 89 e7             	mov    %r12,%rdi
    1353:	89 ee                	mov    %ebp,%esi
    1355:	48 89 c1             	mov    %rax,%rcx
    1358:	b8 07 00 00 00       	mov    $0x7,%eax
    135d:	4c 85 f9             	test   %r15,%rcx
    1360:	0f 85 da 00 00 00    	jne    1440 <_Z11is_attackedP7state_tii+0x190>
    1366:	89 f0                	mov    %esi,%eax
    1368:	83 e0 07             	and    $0x7,%eax
    136b:	48 8d 0d 8e c3 01 00 	lea    0x1c38e(%rip),%rcx        # 1d700 <FileMask>
    1372:	4c 85 3c c1          	test   %r15,(%rcx,%rax,8)
    1376:	74 23                	je     139b <_Z11is_attackedP7state_tii+0xeb>
    1378:	49 89 fc             	mov    %rdi,%r12
    137b:	48 89 df             	mov    %rbx,%rdi
    137e:	89 f5                	mov    %esi,%ebp
    1380:	e8 3b 32 00 00       	call   45c0 <_Z11FileAttacksyj>
    1385:	4c 89 e7             	mov    %r12,%rdi
    1388:	89 ee                	mov    %ebp,%esi
    138a:	48 89 c1             	mov    %rax,%rcx
    138d:	b8 07 00 00 00       	mov    $0x7,%eax
    1392:	4c 85 f9             	test   %r15,%rcx
    1395:	0f 85 a5 00 00 00    	jne    1440 <_Z11is_attackedP7state_tii+0x190>
    139b:	4c 8b bf 68 01 00 00 	mov    0x168(%rdi),%r15
    13a2:	4c 0b bf 78 01 00 00 	or     0x178(%rdi),%r15
    13a9:	48 8d 05 50 bf 01 00 	lea    0x1bf50(%rip),%rax        # 1d300 <DiagMaska1h8>
    13b0:	4e 85 3c f0          	test   %r15,(%rax,%r14,8)
    13b4:	74 19                	je     13cf <_Z11is_attackedP7state_tii+0x11f>
    13b6:	48 89 df             	mov    %rbx,%rdi
    13b9:	89 f5                	mov    %esi,%ebp
    13bb:	e8 40 32 00 00       	call   4600 <_Z15DiagonalAttacksyj>
    13c0:	89 ee                	mov    %ebp,%esi
    13c2:	48 89 c1             	mov    %rax,%rcx
    13c5:	b8 0b 00 00 00       	mov    $0xb,%eax
    13ca:	4c 85 f9             	test   %r15,%rcx
    13cd:	75 71                	jne    1440 <_Z11is_attackedP7state_tii+0x190>
    13cf:	48 8d 05 2a c1 01 00 	lea    0x1c12a(%rip),%rax        # 1d500 <DiagMaska8h1>
    13d6:	4e 85 3c f0          	test   %r15,(%rax,%r14,8)
    13da:	0f 84 39 01 00 00    	je     1519 <_Z11is_attackedP7state_tii+0x269>
    13e0:	48 89 df             	mov    %rbx,%rdi
    13e3:	e8 58 32 00 00       	call   4640 <_Z15AntiDiagAttacksyj>
    13e8:	48 89 c1             	mov    %rax,%rcx
    13eb:	b8 0b 00 00 00       	mov    $0xb,%eax
    13f0:	e9 1b 01 00 00       	jmp    1510 <_Z11is_attackedP7state_tii+0x260>
    13f5:	48 8d 05 04 93 01 00 	lea    0x19304(%rip),%rax        # 1a700 <PawnAttacksWhite>
    13fc:	4a 8b 0c f0          	mov    (%rax,%r14,8),%rcx
    1400:	b8 02 00 00 00       	mov    $0x2,%eax
    1405:	48 85 8f 30 01 00 00 	test   %rcx,0x130(%rdi)
    140c:	75 32                	jne    1440 <_Z11is_attackedP7state_tii+0x190>
    140e:	48 8d 05 eb 8c 01 00 	lea    0x18ceb(%rip),%rax        # 1a100 <KnightMoves>
    1415:	4a 8b 0c f0          	mov    (%rax,%r14,8),%rcx
    1419:	b8 04 00 00 00       	mov    $0x4,%eax
    141e:	48 85 8f 40 01 00 00 	test   %rcx,0x140(%rdi)
    1425:	75 19                	jne    1440 <_Z11is_attackedP7state_tii+0x190>
    1427:	48 8d 05 d2 8e 01 00 	lea    0x18ed2(%rip),%rax        # 1a300 <KingMoves>
    142e:	4a 8b 0c f0          	mov    (%rax,%r14,8),%rcx
    1432:	b8 06 00 00 00       	mov    $0x6,%eax
    1437:	48 85 8f 50 01 00 00 	test   %rcx,0x150(%rdi)
    143e:	74 09                	je     1449 <_Z11is_attackedP7state_tii+0x199>
    1440:	5b                   	pop    %rbx
    1441:	41 5c                	pop    %r12
    1443:	41 5e                	pop    %r14
    1445:	41 5f                	pop    %r15
    1447:	5d                   	pop    %rbp
    1448:	c3                   	ret    
    1449:	89 f0                	mov    %esi,%eax
    144b:	c1 f8 03             	sar    $0x3,%eax
    144e:	4c 8b bf 70 01 00 00 	mov    0x170(%rdi),%r15
    1455:	4c 0b bf 60 01 00 00 	or     0x160(%rdi),%r15
    145c:	48 98                	cltq   
    145e:	48 8d 0d db c2 01 00 	lea    0x1c2db(%rip),%rcx        # 1d740 <RankMask>
    1465:	4c 85 3c c1          	test   %r15,(%rcx,%rax,8)
    1469:	74 1f                	je     148a <_Z11is_attackedP7state_tii+0x1da>
    146b:	49 89 fc             	mov    %rdi,%r12
    146e:	48 89 df             	mov    %rbx,%rdi
    1471:	89 f5                	mov    %esi,%ebp
    1473:	e8 18 31 00 00       	call   4590 <_Z11RankAttacksyj>
    1478:	4c 89 e7             	mov    %r12,%rdi
    147b:	89 ee                	mov    %ebp,%esi
    147d:	48 89 c1             	mov    %rax,%rcx
    1480:	b8 08 00 00 00       	mov    $0x8,%eax
    1485:	4c 85 f9             	test   %r15,%rcx
    1488:	75 b6                	jne    1440 <_Z11is_attackedP7state_tii+0x190>
    148a:	89 f0                	mov    %esi,%eax
    148c:	83 e0 07             	and    $0x7,%eax
    148f:	48 8d 0d 6a c2 01 00 	lea    0x1c26a(%rip),%rcx        # 1d700 <FileMask>
    1496:	4c 85 3c c1          	test   %r15,(%rcx,%rax,8)
    149a:	74 1f                	je     14bb <_Z11is_attackedP7state_tii+0x20b>
    149c:	49 89 fc             	mov    %rdi,%r12
    149f:	48 89 df             	mov    %rbx,%rdi
    14a2:	89 f5                	mov    %esi,%ebp
    14a4:	e8 17 31 00 00       	call   45c0 <_Z11FileAttacksyj>
    14a9:	4c 89 e7             	mov    %r12,%rdi
    14ac:	89 ee                	mov    %ebp,%esi
    14ae:	48 89 c1             	mov    %rax,%rcx
    14b1:	b8 08 00 00 00       	mov    $0x8,%eax
    14b6:	4c 85 f9             	test   %r15,%rcx
    14b9:	75 85                	jne    1440 <_Z11is_attackedP7state_tii+0x190>
    14bb:	4c 8b bf 70 01 00 00 	mov    0x170(%rdi),%r15
    14c2:	4c 0b bf 80 01 00 00 	or     0x180(%rdi),%r15
    14c9:	48 8d 05 30 be 01 00 	lea    0x1be30(%rip),%rax        # 1d300 <DiagMaska1h8>
    14d0:	4e 85 3c f0          	test   %r15,(%rax,%r14,8)
    14d4:	74 1d                	je     14f3 <_Z11is_attackedP7state_tii+0x243>
    14d6:	48 89 df             	mov    %rbx,%rdi
    14d9:	89 f5                	mov    %esi,%ebp
    14db:	e8 20 31 00 00       	call   4600 <_Z15DiagonalAttacksyj>
    14e0:	89 ee                	mov    %ebp,%esi
    14e2:	48 89 c1             	mov    %rax,%rcx
    14e5:	b8 0c 00 00 00       	mov    $0xc,%eax
    14ea:	4c 85 f9             	test   %r15,%rcx
    14ed:	0f 85 4d ff ff ff    	jne    1440 <_Z11is_attackedP7state_tii+0x190>
    14f3:	48 8d 05 06 c0 01 00 	lea    0x1c006(%rip),%rax        # 1d500 <DiagMaska8h1>
    14fa:	4e 85 3c f0          	test   %r15,(%rax,%r14,8)
    14fe:	74 19                	je     1519 <_Z11is_attackedP7state_tii+0x269>
    1500:	48 89 df             	mov    %rbx,%rdi
    1503:	e8 38 31 00 00       	call   4640 <_Z15AntiDiagAttacksyj>
    1508:	48 89 c1             	mov    %rax,%rcx
    150b:	b8 0c 00 00 00       	mov    $0xc,%eax
    1510:	4c 85 f9             	test   %r15,%rcx
    1513:	0f 85 27 ff ff ff    	jne    1440 <_Z11is_attackedP7state_tii+0x190>
    1519:	31 c0                	xor    %eax,%eax
    151b:	e9 20 ff ff ff       	jmp    1440 <_Z11is_attackedP7state_tii+0x190>

0000000000001520 <_Z8in_checkP7state_t>:
    1520:	83 bf cc 01 00 00 00 	cmpl   $0x0,0x1cc(%rdi)
    1527:	74 0d                	je     1536 <_Z8in_checkP7state_t+0x16>
    1529:	8b b7 d0 01 00 00    	mov    0x1d0(%rdi),%esi
    152f:	31 d2                	xor    %edx,%edx
    1531:	e9 7a fd ff ff       	jmp    12b0 <_Z11is_attackedP7state_tii>
    1536:	8b b7 d4 01 00 00    	mov    0x1d4(%rdi),%esi
    153c:	ba 01 00 00 00       	mov    $0x1,%edx
    1541:	e9 6a fd ff ff       	jmp    12b0 <_Z11is_attackedP7state_tii>
    1546:	66 2e 0f 1f 84 00 00 	cs nopw 0x0(%rax,%rax,1)
    154d:	00 00 00 

0000000000001550 <_Z10attacks_toP7state_ti>:
    1550:	55                   	push   %rbp
    1551:	41 57                	push   %r15
    1553:	41 56                	push   %r14
    1555:	41 55                	push   %r13
    1557:	41 54                	push   %r12
    1559:	53                   	push   %rbx
    155a:	48 83 ec 18          	sub    $0x18,%rsp
    155e:	89 f3                	mov    %esi,%ebx
    1560:	83 e3 07             	and    $0x7,%ebx
    1563:	89 f0                	mov    %esi,%eax
    1565:	48 8b 8f 38 01 00 00 	mov    0x138(%rdi),%rcx
    156c:	4c 63 e6             	movslq %esi,%r12
    156f:	48 8d 15 8a 91 01 00 	lea    0x1918a(%rip),%rdx        # 1a700 <PawnAttacksWhite>
    1576:	4a 8b 14 e2          	mov    (%rdx,%r12,8),%rdx
    157a:	48 23 97 30 01 00 00 	and    0x130(%rdi),%rdx
    1581:	4c 8d 05 78 8f 01 00 	lea    0x18f78(%rip),%r8        # 1a500 <PawnAttacksBlack>
    1588:	4f 8b 14 e0          	mov    (%r8,%r12,8),%r10
    158c:	4c 23 97 28 01 00 00 	and    0x128(%rdi),%r10
    1593:	48 0b 8f 40 01 00 00 	or     0x140(%rdi),%rcx
    159a:	c1 f8 03             	sar    $0x3,%eax
    159d:	4c 8d 05 5c 8b 01 00 	lea    0x18b5c(%rip),%r8        # 1a100 <KnightMoves>
    15a4:	4b 23 0c e0          	and    (%r8,%r12,8),%rcx
    15a8:	4c 8b 87 08 01 00 00 	mov    0x108(%rdi),%r8
    15af:	4c 8b b7 48 01 00 00 	mov    0x148(%rdi),%r14
    15b6:	4c 0b b7 50 01 00 00 	or     0x150(%rdi),%r14
    15bd:	49 09 d2             	or     %rdx,%r10
    15c0:	48 8d 15 39 8d 01 00 	lea    0x18d39(%rip),%rdx        # 1a300 <KingMoves>
    15c7:	4e 23 34 e2          	and    (%rdx,%r12,8),%r14
    15cb:	49 09 ce             	or     %rcx,%r14
    15ce:	4d 09 d6             	or     %r10,%r14
    15d1:	4c 8b bf 60 01 00 00 	mov    0x160(%rdi),%r15
    15d8:	48 8b af 68 01 00 00 	mov    0x168(%rdi),%rbp
    15df:	4c 0b bf 58 01 00 00 	or     0x158(%rdi),%r15
    15e6:	48 0b af 70 01 00 00 	or     0x170(%rdi),%rbp
    15ed:	49 09 ef             	or     %rbp,%r15
    15f0:	4c 8b af 80 01 00 00 	mov    0x180(%rdi),%r13
    15f7:	4c 0b af 78 01 00 00 	or     0x178(%rdi),%r13
    15fe:	48 98                	cltq   
    1600:	48 8d 0d 39 c1 01 00 	lea    0x1c139(%rip),%rcx        # 1d740 <RankMask>
    1607:	4c 85 3c c1          	test   %r15,(%rcx,%rax,8)
    160b:	4c 89 44 24 10       	mov    %r8,0x10(%rsp)
    1610:	89 74 24 0c          	mov    %esi,0xc(%rsp)
    1614:	74 0e                	je     1624 <_Z10attacks_toP7state_ti+0xd4>
    1616:	4c 89 c7             	mov    %r8,%rdi
    1619:	e8 72 2f 00 00       	call   4590 <_Z11RankAttacksyj>
    161e:	4c 21 f8             	and    %r15,%rax
    1621:	49 09 c6             	or     %rax,%r14
    1624:	49 09 ed             	or     %rbp,%r13
    1627:	89 d8                	mov    %ebx,%eax
    1629:	48 8d 0d d0 c0 01 00 	lea    0x1c0d0(%rip),%rcx        # 1d700 <FileMask>
    1630:	4c 85 3c c1          	test   %r15,(%rcx,%rax,8)
    1634:	74 65                	je     169b <_Z10attacks_toP7state_ti+0x14b>
    1636:	48 8b 6c 24 10       	mov    0x10(%rsp),%rbp
    163b:	48 89 ef             	mov    %rbp,%rdi
    163e:	8b 5c 24 0c          	mov    0xc(%rsp),%ebx
    1642:	89 de                	mov    %ebx,%esi
    1644:	e8 77 2f 00 00       	call   45c0 <_Z11FileAttacksyj>
    1649:	4c 21 f8             	and    %r15,%rax
    164c:	49 09 c6             	or     %rax,%r14
    164f:	48 8d 05 aa bc 01 00 	lea    0x1bcaa(%rip),%rax        # 1d300 <DiagMaska1h8>
    1656:	4e 85 2c e0          	test   %r13,(%rax,%r12,8)
    165a:	74 10                	je     166c <_Z10attacks_toP7state_ti+0x11c>
    165c:	48 89 ef             	mov    %rbp,%rdi
    165f:	89 de                	mov    %ebx,%esi
    1661:	e8 9a 2f 00 00       	call   4600 <_Z15DiagonalAttacksyj>
    1666:	4c 21 e8             	and    %r13,%rax
    1669:	49 09 c6             	or     %rax,%r14
    166c:	48 8d 05 8d be 01 00 	lea    0x1be8d(%rip),%rax        # 1d500 <DiagMaska8h1>
    1673:	4e 85 2c e0          	test   %r13,(%rax,%r12,8)
    1677:	74 10                	je     1689 <_Z10attacks_toP7state_ti+0x139>
    1679:	48 89 ef             	mov    %rbp,%rdi
    167c:	89 de                	mov    %ebx,%esi
    167e:	e8 bd 2f 00 00       	call   4640 <_Z15AntiDiagAttacksyj>
    1683:	4c 21 e8             	and    %r13,%rax
    1686:	49 09 c6             	or     %rax,%r14
    1689:	4c 89 f0             	mov    %r14,%rax
    168c:	48 83 c4 18          	add    $0x18,%rsp
    1690:	5b                   	pop    %rbx
    1691:	41 5c                	pop    %r12
    1693:	41 5d                	pop    %r13
    1695:	41 5e                	pop    %r14
    1697:	41 5f                	pop    %r15
    1699:	5d                   	pop    %rbp
    169a:	c3                   	ret    
    169b:	48 8b 6c 24 10       	mov    0x10(%rsp),%rbp
    16a0:	8b 5c 24 0c          	mov    0xc(%rsp),%ebx
    16a4:	48 8d 05 55 bc 01 00 	lea    0x1bc55(%rip),%rax        # 1d300 <DiagMaska1h8>
    16ab:	4e 85 2c e0          	test   %r13,(%rax,%r12,8)
    16af:	75 ab                	jne    165c <_Z10attacks_toP7state_ti+0x10c>
    16b1:	eb b9                	jmp    166c <_Z10attacks_toP7state_ti+0x11c>
    16b3:	66 2e 0f 1f 84 00 00 	cs nopw 0x0(%rax,%rax,1)
    16ba:	00 00 00 
    16bd:	0f 1f 00             	nopl   (%rax)

00000000000016c0 <_Z13PrintBitboardy>:
    16c0:	41 57                	push   %r15
    16c2:	41 56                	push   %r14
    16c4:	41 55                	push   %r13
    16c6:	41 54                	push   %r12
    16c8:	53                   	push   %rbx
    16c9:	48 89 fb             	mov    %rdi,%rbx
    16cc:	4c 8d 3d 6f 3c 01 00 	lea    0x13c6f(%rip),%r15        # 15342 <_IO_stdin_used+0x342>
    16d3:	4c 8d 25 66 3c 01 00 	lea    0x13c66(%rip),%r12        # 15340 <_IO_stdin_used+0x340>
    16da:	4c 8d 35 70 52 01 00 	lea    0x15270(%rip),%r14        # 16951 <_ZZ9init_gameP11gamestate_tP7state_tE10init_board+0x221>
    16e1:	45 31 ed             	xor    %r13d,%r13d
    16e4:	eb 13                	jmp    16f9 <_Z13PrintBitboardy+0x39>
    16e6:	66 2e 0f 1f 84 00 00 	cs nopw 0x0(%rax,%rax,1)
    16ed:	00 00 00 
    16f0:	49 ff c5             	inc    %r13
    16f3:	49 83 fd 40          	cmp    $0x40,%r13
    16f7:	74 27                	je     1720 <_Z13PrintBitboardy+0x60>
    16f9:	4c 0f a3 eb          	bt     %r13,%rbx
    16fd:	4c 89 e7             	mov    %r12,%rdi
    1700:	49 0f 43 ff          	cmovae %r15,%rdi
    1704:	31 c0                	xor    %eax,%eax
    1706:	e8 65 13 01 00       	call   12a70 <_Z8myprintfPKcz>
    170b:	44 89 e8             	mov    %r13d,%eax
    170e:	f7 d0                	not    %eax
    1710:	a8 07                	test   $0x7,%al
    1712:	75 dc                	jne    16f0 <_Z13PrintBitboardy+0x30>
    1714:	4c 89 f7             	mov    %r14,%rdi
    1717:	31 c0                	xor    %eax,%eax
    1719:	e8 52 13 01 00       	call   12a70 <_Z8myprintfPKcz>
    171e:	eb d0                	jmp    16f0 <_Z13PrintBitboardy+0x30>
    1720:	48 8d 3d 2a 52 01 00 	lea    0x1522a(%rip),%rdi        # 16951 <_ZZ9init_gameP11gamestate_tP7state_tE10init_board+0x221>
    1727:	31 c0                	xor    %eax,%eax
    1729:	5b                   	pop    %rbx
    172a:	41 5c                	pop    %r12
    172c:	41 5d                	pop    %r13
    172e:	41 5e                	pop    %r14
    1730:	41 5f                	pop    %r15
    1732:	e9 39 13 01 00       	jmp    12a70 <_Z8myprintfPKcz>
    1737:	66 0f 1f 84 00 00 00 	nopw   0x0(%rax,%rax,1)
    173e:	00 00 

0000000000001740 <_Z17PrintRotBitboardsP7state_t>:
    1740:	41 57                	push   %r15
    1742:	41 56                	push   %r14
    1744:	41 55                	push   %r13
    1746:	41 54                	push   %r12
    1748:	53                   	push   %rbx
    1749:	48 89 fb             	mov    %rdi,%rbx
    174c:	48 8d 3d f1 3b 01 00 	lea    0x13bf1(%rip),%rdi        # 15344 <_IO_stdin_used+0x344>
    1753:	31 c0                	xor    %eax,%eax
    1755:	e8 16 13 01 00       	call   12a70 <_Z8myprintfPKcz>
    175a:	4c 8b b3 08 01 00 00 	mov    0x108(%rbx),%r14
    1761:	4c 8d 3d da 3b 01 00 	lea    0x13bda(%rip),%r15        # 15342 <_IO_stdin_used+0x342>
    1768:	4c 8d 25 d1 3b 01 00 	lea    0x13bd1(%rip),%r12        # 15340 <_IO_stdin_used+0x340>
    176f:	48 8d 1d db 51 01 00 	lea    0x151db(%rip),%rbx        # 16951 <_ZZ9init_gameP11gamestate_tP7state_tE10init_board+0x221>
    1776:	45 31 ed             	xor    %r13d,%r13d
    1779:	eb 0e                	jmp    1789 <_Z17PrintRotBitboardsP7state_t+0x49>
    177b:	0f 1f 44 00 00       	nopl   0x0(%rax,%rax,1)
    1780:	49 ff c5             	inc    %r13
    1783:	49 83 fd 40          	cmp    $0x40,%r13
    1787:	74 27                	je     17b0 <_Z17PrintRotBitboardsP7state_t+0x70>
    1789:	4d 0f a3 ee          	bt     %r13,%r14
    178d:	4c 89 e7             	mov    %r12,%rdi
    1790:	49 0f 43 ff          	cmovae %r15,%rdi
    1794:	31 c0                	xor    %eax,%eax
    1796:	e8 d5 12 01 00       	call   12a70 <_Z8myprintfPKcz>
    179b:	44 89 e8             	mov    %r13d,%eax
    179e:	f7 d0                	not    %eax
    17a0:	a8 07                	test   $0x7,%al
    17a2:	75 dc                	jne    1780 <_Z17PrintRotBitboardsP7state_t+0x40>
    17a4:	48 89 df             	mov    %rbx,%rdi
    17a7:	31 c0                	xor    %eax,%eax
    17a9:	e8 c2 12 01 00       	call   12a70 <_Z8myprintfPKcz>
    17ae:	eb d0                	jmp    1780 <_Z17PrintRotBitboardsP7state_t+0x40>
    17b0:	48 8d 3d 9a 51 01 00 	lea    0x1519a(%rip),%rdi        # 16951 <_ZZ9init_gameP11gamestate_tP7state_tE10init_board+0x221>
    17b7:	31 c0                	xor    %eax,%eax
    17b9:	5b                   	pop    %rbx
    17ba:	41 5c                	pop    %r12
    17bc:	41 5d                	pop    %r13
    17be:	41 5e                	pop    %r14
    17c0:	41 5f                	pop    %r15
    17c2:	e9 a9 12 01 00       	jmp    12a70 <_Z8myprintfPKcz>
    17c7:	66 0f 1f 84 00 00 00 	nopw   0x0(%rax,%rax,1)
    17ce:	00 00 

00000000000017d0 <_Z17PrintAllBitboardsP7state_t>:
    17d0:	55                   	push   %rbp
    17d1:	41 57                	push   %r15
    17d3:	41 56                	push   %r14
    17d5:	41 55                	push   %r13
    17d7:	41 54                	push   %r12
    17d9:	53                   	push   %rbx
    17da:	50                   	push   %rax
    17db:	48 89 fb             	mov    %rdi,%rbx
    17de:	48 8d 3d 64 3b 01 00 	lea    0x13b64(%rip),%rdi        # 15349 <_IO_stdin_used+0x349>
    17e5:	31 c0                	xor    %eax,%eax
    17e7:	e8 84 12 01 00       	call   12a70 <_Z8myprintfPKcz>
    17ec:	4c 8b ab 18 01 00 00 	mov    0x118(%rbx),%r13
    17f3:	4c 8d 3d 48 3b 01 00 	lea    0x13b48(%rip),%r15        # 15342 <_IO_stdin_used+0x342>
    17fa:	4c 8d 25 3f 3b 01 00 	lea    0x13b3f(%rip),%r12        # 15340 <_IO_stdin_used+0x340>
    1801:	4c 8d 35 49 51 01 00 	lea    0x15149(%rip),%r14        # 16951 <_ZZ9init_gameP11gamestate_tP7state_tE10init_board+0x221>
    1808:	31 ed                	xor    %ebp,%ebp
    180a:	eb 0d                	jmp    1819 <_Z17PrintAllBitboardsP7state_t+0x49>
    180c:	0f 1f 40 00          	nopl   0x0(%rax)
    1810:	48 ff c5             	inc    %rbp
    1813:	48 83 fd 40          	cmp    $0x40,%rbp
    1817:	74 26                	je     183f <_Z17PrintAllBitboardsP7state_t+0x6f>
    1819:	49 0f a3 ed          	bt     %rbp,%r13
    181d:	4c 89 e7             	mov    %r12,%rdi
    1820:	49 0f 43 ff          	cmovae %r15,%rdi
    1824:	31 c0                	xor    %eax,%eax
    1826:	e8 45 12 01 00       	call   12a70 <_Z8myprintfPKcz>
    182b:	89 e8                	mov    %ebp,%eax
    182d:	f7 d0                	not    %eax
    182f:	a8 07                	test   $0x7,%al
    1831:	75 dd                	jne    1810 <_Z17PrintAllBitboardsP7state_t+0x40>
    1833:	4c 89 f7             	mov    %r14,%rdi
    1836:	31 c0                	xor    %eax,%eax
    1838:	e8 33 12 01 00       	call   12a70 <_Z8myprintfPKcz>
    183d:	eb d1                	jmp    1810 <_Z17PrintAllBitboardsP7state_t+0x40>
    183f:	4c 8d 35 0b 51 01 00 	lea    0x1510b(%rip),%r14        # 16951 <_ZZ9init_gameP11gamestate_tP7state_tE10init_board+0x221>
    1846:	4c 89 f7             	mov    %r14,%rdi
    1849:	31 c0                	xor    %eax,%eax
    184b:	e8 20 12 01 00       	call   12a70 <_Z8myprintfPKcz>
    1850:	48 8d 3d ff 3a 01 00 	lea    0x13aff(%rip),%rdi        # 15356 <_IO_stdin_used+0x356>
    1857:	31 c0                	xor    %eax,%eax
    1859:	e8 12 12 01 00       	call   12a70 <_Z8myprintfPKcz>
    185e:	4c 8b ab 10 01 00 00 	mov    0x110(%rbx),%r13
    1865:	31 ed                	xor    %ebp,%ebp
    1867:	eb 10                	jmp    1879 <_Z17PrintAllBitboardsP7state_t+0xa9>
    1869:	0f 1f 80 00 00 00 00 	nopl   0x0(%rax)
    1870:	48 ff c5             	inc    %rbp
    1873:	48 83 fd 40          	cmp    $0x40,%rbp
    1877:	74 26                	je     189f <_Z17PrintAllBitboardsP7state_t+0xcf>
    1879:	49 0f a3 ed          	bt     %rbp,%r13
    187d:	4c 89 e7             	mov    %r12,%rdi
    1880:	49 0f 43 ff          	cmovae %r15,%rdi
    1884:	31 c0                	xor    %eax,%eax
    1886:	e8 e5 11 01 00       	call   12a70 <_Z8myprintfPKcz>
    188b:	89 e8                	mov    %ebp,%eax
    188d:	f7 d0                	not    %eax
    188f:	a8 07                	test   $0x7,%al
    1891:	75 dd                	jne    1870 <_Z17PrintAllBitboardsP7state_t+0xa0>
    1893:	4c 89 f7             	mov    %r14,%rdi
    1896:	31 c0                	xor    %eax,%eax
    1898:	e8 d3 11 01 00       	call   12a70 <_Z8myprintfPKcz>
    189d:	eb d1                	jmp    1870 <_Z17PrintAllBitboardsP7state_t+0xa0>
    189f:	4c 8d 35 ab 50 01 00 	lea    0x150ab(%rip),%r14        # 16951 <_ZZ9init_gameP11gamestate_tP7state_tE10init_board+0x221>
    18a6:	4c 89 f7             	mov    %r14,%rdi
    18a9:	31 c0                	xor    %eax,%eax
    18ab:	e8 c0 11 01 00       	call   12a70 <_Z8myprintfPKcz>
    18b0:	48 8d 3d 8d 3a 01 00 	lea    0x13a8d(%rip),%rdi        # 15344 <_IO_stdin_used+0x344>
    18b7:	31 c0                	xor    %eax,%eax
    18b9:	e8 b2 11 01 00       	call   12a70 <_Z8myprintfPKcz>
    18be:	4c 8b ab 08 01 00 00 	mov    0x108(%rbx),%r13
    18c5:	31 ed                	xor    %ebp,%ebp
    18c7:	eb 10                	jmp    18d9 <_Z17PrintAllBitboardsP7state_t+0x109>
    18c9:	0f 1f 80 00 00 00 00 	nopl   0x0(%rax)
    18d0:	48 ff c5             	inc    %rbp
    18d3:	48 83 fd 40          	cmp    $0x40,%rbp
    18d7:	74 26                	je     18ff <_Z17PrintAllBitboardsP7state_t+0x12f>
    18d9:	49 0f a3 ed          	bt     %rbp,%r13
    18dd:	4c 89 e7             	mov    %r12,%rdi
    18e0:	49 0f 43 ff          	cmovae %r15,%rdi
    18e4:	31 c0                	xor    %eax,%eax
    18e6:	e8 85 11 01 00       	call   12a70 <_Z8myprintfPKcz>
    18eb:	89 e8                	mov    %ebp,%eax
    18ed:	f7 d0                	not    %eax
    18ef:	a8 07                	test   $0x7,%al
    18f1:	75 dd                	jne    18d0 <_Z17PrintAllBitboardsP7state_t+0x100>
    18f3:	4c 89 f7             	mov    %r14,%rdi
    18f6:	31 c0                	xor    %eax,%eax
    18f8:	e8 73 11 01 00       	call   12a70 <_Z8myprintfPKcz>
    18fd:	eb d1                	jmp    18d0 <_Z17PrintAllBitboardsP7state_t+0x100>
    18ff:	4c 8d 35 4b 50 01 00 	lea    0x1504b(%rip),%r14        # 16951 <_ZZ9init_gameP11gamestate_tP7state_tE10init_board+0x221>
    1906:	4c 89 f7             	mov    %r14,%rdi
    1909:	31 c0                	xor    %eax,%eax
    190b:	e8 60 11 01 00       	call   12a70 <_Z8myprintfPKcz>
    1910:	48 8d 3d 4c 3a 01 00 	lea    0x13a4c(%rip),%rdi        # 15363 <_IO_stdin_used+0x363>
    1917:	31 c0                	xor    %eax,%eax
    1919:	e8 52 11 01 00       	call   12a70 <_Z8myprintfPKcz>
    191e:	4c 8b ab 28 01 00 00 	mov    0x128(%rbx),%r13
    1925:	31 ed                	xor    %ebp,%ebp
    1927:	eb 10                	jmp    1939 <_Z17PrintAllBitboardsP7state_t+0x169>
    1929:	0f 1f 80 00 00 00 00 	nopl   0x0(%rax)
    1930:	48 ff c5             	inc    %rbp
    1933:	48 83 fd 40          	cmp    $0x40,%rbp
    1937:	74 26                	je     195f <_Z17PrintAllBitboardsP7state_t+0x18f>
    1939:	49 0f a3 ed          	bt     %rbp,%r13
    193d:	4c 89 e7             	mov    %r12,%rdi
    1940:	49 0f 43 ff          	cmovae %r15,%rdi
    1944:	31 c0                	xor    %eax,%eax
    1946:	e8 25 11 01 00       	call   12a70 <_Z8myprintfPKcz>
    194b:	89 e8                	mov    %ebp,%eax
    194d:	f7 d0                	not    %eax
    194f:	a8 07                	test   $0x7,%al
    1951:	75 dd                	jne    1930 <_Z17PrintAllBitboardsP7state_t+0x160>
    1953:	4c 89 f7             	mov    %r14,%rdi
    1956:	31 c0                	xor    %eax,%eax
    1958:	e8 13 11 01 00       	call   12a70 <_Z8myprintfPKcz>
    195d:	eb d1                	jmp    1930 <_Z17PrintAllBitboardsP7state_t+0x160>
    195f:	4c 8d 35 eb 4f 01 00 	lea    0x14feb(%rip),%r14        # 16951 <_ZZ9init_gameP11gamestate_tP7state_tE10init_board+0x221>
    1966:	4c 89 f7             	mov    %r14,%rdi
    1969:	31 c0                	xor    %eax,%eax
    196b:	e8 00 11 01 00       	call   12a70 <_Z8myprintfPKcz>
    1970:	48 8d 3d f8 39 01 00 	lea    0x139f8(%rip),%rdi        # 1536f <_IO_stdin_used+0x36f>
    1977:	31 c0                	xor    %eax,%eax
    1979:	e8 f2 10 01 00       	call   12a70 <_Z8myprintfPKcz>
    197e:	4c 8b ab 30 01 00 00 	mov    0x130(%rbx),%r13
    1985:	31 ed                	xor    %ebp,%ebp
    1987:	eb 10                	jmp    1999 <_Z17PrintAllBitboardsP7state_t+0x1c9>
    1989:	0f 1f 80 00 00 00 00 	nopl   0x0(%rax)
    1990:	48 ff c5             	inc    %rbp
    1993:	48 83 fd 40          	cmp    $0x40,%rbp
    1997:	74 26                	je     19bf <_Z17PrintAllBitboardsP7state_t+0x1ef>
    1999:	49 0f a3 ed          	bt     %rbp,%r13
    199d:	4c 89 e7             	mov    %r12,%rdi
    19a0:	49 0f 43 ff          	cmovae %r15,%rdi
    19a4:	31 c0                	xor    %eax,%eax
    19a6:	e8 c5 10 01 00       	call   12a70 <_Z8myprintfPKcz>
    19ab:	89 e8                	mov    %ebp,%eax
    19ad:	f7 d0                	not    %eax
    19af:	a8 07                	test   $0x7,%al
    19b1:	75 dd                	jne    1990 <_Z17PrintAllBitboardsP7state_t+0x1c0>
    19b3:	4c 89 f7             	mov    %r14,%rdi
    19b6:	31 c0                	xor    %eax,%eax
    19b8:	e8 b3 10 01 00       	call   12a70 <_Z8myprintfPKcz>
    19bd:	eb d1                	jmp    1990 <_Z17PrintAllBitboardsP7state_t+0x1c0>
    19bf:	4c 8d 35 8b 4f 01 00 	lea    0x14f8b(%rip),%r14        # 16951 <_ZZ9init_gameP11gamestate_tP7state_tE10init_board+0x221>
    19c6:	4c 89 f7             	mov    %r14,%rdi
    19c9:	31 c0                	xor    %eax,%eax
    19cb:	e8 a0 10 01 00       	call   12a70 <_Z8myprintfPKcz>
    19d0:	48 8d 3d a4 39 01 00 	lea    0x139a4(%rip),%rdi        # 1537b <_IO_stdin_used+0x37b>
    19d7:	31 c0                	xor    %eax,%eax
    19d9:	e8 92 10 01 00       	call   12a70 <_Z8myprintfPKcz>
    19de:	4c 8b ab 38 01 00 00 	mov    0x138(%rbx),%r13
    19e5:	31 ed                	xor    %ebp,%ebp
    19e7:	eb 10                	jmp    19f9 <_Z17PrintAllBitboardsP7state_t+0x229>
    19e9:	0f 1f 80 00 00 00 00 	nopl   0x0(%rax)
    19f0:	48 ff c5             	inc    %rbp
    19f3:	48 83 fd 40          	cmp    $0x40,%rbp
    19f7:	74 26                	je     1a1f <_Z17PrintAllBitboardsP7state_t+0x24f>
    19f9:	49 0f a3 ed          	bt     %rbp,%r13
    19fd:	4c 89 e7             	mov    %r12,%rdi
    1a00:	49 0f 43 ff          	cmovae %r15,%rdi
    1a04:	31 c0                	xor    %eax,%eax
    1a06:	e8 65 10 01 00       	call   12a70 <_Z8myprintfPKcz>
    1a0b:	89 e8                	mov    %ebp,%eax
    1a0d:	f7 d0                	not    %eax
    1a0f:	a8 07                	test   $0x7,%al
    1a11:	75 dd                	jne    19f0 <_Z17PrintAllBitboardsP7state_t+0x220>
    1a13:	4c 89 f7             	mov    %r14,%rdi
    1a16:	31 c0                	xor    %eax,%eax
    1a18:	e8 53 10 01 00       	call   12a70 <_Z8myprintfPKcz>
    1a1d:	eb d1                	jmp    19f0 <_Z17PrintAllBitboardsP7state_t+0x220>
    1a1f:	4c 8d 35 2b 4f 01 00 	lea    0x14f2b(%rip),%r14        # 16951 <_ZZ9init_gameP11gamestate_tP7state_tE10init_board+0x221>
    1a26:	4c 89 f7             	mov    %r14,%rdi
    1a29:	31 c0                	xor    %eax,%eax
    1a2b:	e8 40 10 01 00       	call   12a70 <_Z8myprintfPKcz>
    1a30:	48 8d 3d 52 39 01 00 	lea    0x13952(%rip),%rdi        # 15389 <_IO_stdin_used+0x389>
    1a37:	31 c0                	xor    %eax,%eax
    1a39:	e8 32 10 01 00       	call   12a70 <_Z8myprintfPKcz>
    1a3e:	4c 8b ab 40 01 00 00 	mov    0x140(%rbx),%r13
    1a45:	31 ed                	xor    %ebp,%ebp
    1a47:	eb 10                	jmp    1a59 <_Z17PrintAllBitboardsP7state_t+0x289>
    1a49:	0f 1f 80 00 00 00 00 	nopl   0x0(%rax)
    1a50:	48 ff c5             	inc    %rbp
    1a53:	48 83 fd 40          	cmp    $0x40,%rbp
    1a57:	74 26                	je     1a7f <_Z17PrintAllBitboardsP7state_t+0x2af>
    1a59:	49 0f a3 ed          	bt     %rbp,%r13
    1a5d:	4c 89 e7             	mov    %r12,%rdi
    1a60:	49 0f 43 ff          	cmovae %r15,%rdi
    1a64:	31 c0                	xor    %eax,%eax
    1a66:	e8 05 10 01 00       	call   12a70 <_Z8myprintfPKcz>
    1a6b:	89 e8                	mov    %ebp,%eax
    1a6d:	f7 d0                	not    %eax
    1a6f:	a8 07                	test   $0x7,%al
    1a71:	75 dd                	jne    1a50 <_Z17PrintAllBitboardsP7state_t+0x280>
    1a73:	4c 89 f7             	mov    %r14,%rdi
    1a76:	31 c0                	xor    %eax,%eax
    1a78:	e8 f3 0f 01 00       	call   12a70 <_Z8myprintfPKcz>
    1a7d:	eb d1                	jmp    1a50 <_Z17PrintAllBitboardsP7state_t+0x280>
    1a7f:	4c 8d 35 cb 4e 01 00 	lea    0x14ecb(%rip),%r14        # 16951 <_ZZ9init_gameP11gamestate_tP7state_tE10init_board+0x221>
    1a86:	4c 89 f7             	mov    %r14,%rdi
    1a89:	31 c0                	xor    %eax,%eax
    1a8b:	e8 e0 0f 01 00       	call   12a70 <_Z8myprintfPKcz>
    1a90:	48 8d 3d 00 39 01 00 	lea    0x13900(%rip),%rdi        # 15397 <_IO_stdin_used+0x397>
    1a97:	31 c0                	xor    %eax,%eax
    1a99:	e8 d2 0f 01 00       	call   12a70 <_Z8myprintfPKcz>
    1a9e:	4c 8b ab 78 01 00 00 	mov    0x178(%rbx),%r13
    1aa5:	31 ed                	xor    %ebp,%ebp
    1aa7:	eb 10                	jmp    1ab9 <_Z17PrintAllBitboardsP7state_t+0x2e9>
    1aa9:	0f 1f 80 00 00 00 00 	nopl   0x0(%rax)
    1ab0:	48 ff c5             	inc    %rbp
    1ab3:	48 83 fd 40          	cmp    $0x40,%rbp
    1ab7:	74 26                	je     1adf <_Z17PrintAllBitboardsP7state_t+0x30f>
    1ab9:	49 0f a3 ed          	bt     %rbp,%r13
    1abd:	4c 89 e7             	mov    %r12,%rdi
    1ac0:	49 0f 43 ff          	cmovae %r15,%rdi
    1ac4:	31 c0                	xor    %eax,%eax
    1ac6:	e8 a5 0f 01 00       	call   12a70 <_Z8myprintfPKcz>
    1acb:	89 e8                	mov    %ebp,%eax
    1acd:	f7 d0                	not    %eax
    1acf:	a8 07                	test   $0x7,%al
    1ad1:	75 dd                	jne    1ab0 <_Z17PrintAllBitboardsP7state_t+0x2e0>
    1ad3:	4c 89 f7             	mov    %r14,%rdi
    1ad6:	31 c0                	xor    %eax,%eax
    1ad8:	e8 93 0f 01 00       	call   12a70 <_Z8myprintfPKcz>
    1add:	eb d1                	jmp    1ab0 <_Z17PrintAllBitboardsP7state_t+0x2e0>
    1adf:	4c 8d 35 6b 4e 01 00 	lea    0x14e6b(%rip),%r14        # 16951 <_ZZ9init_gameP11gamestate_tP7state_tE10init_board+0x221>
    1ae6:	4c 89 f7             	mov    %r14,%rdi
    1ae9:	31 c0                	xor    %eax,%eax
    1aeb:	e8 80 0f 01 00       	call   12a70 <_Z8myprintfPKcz>
    1af0:	48 8d 3d ae 38 01 00 	lea    0x138ae(%rip),%rdi        # 153a5 <_IO_stdin_used+0x3a5>
    1af7:	31 c0                	xor    %eax,%eax
    1af9:	e8 72 0f 01 00       	call   12a70 <_Z8myprintfPKcz>
    1afe:	4c 8b ab 80 01 00 00 	mov    0x180(%rbx),%r13
    1b05:	31 ed                	xor    %ebp,%ebp
    1b07:	eb 10                	jmp    1b19 <_Z17PrintAllBitboardsP7state_t+0x349>
    1b09:	0f 1f 80 00 00 00 00 	nopl   0x0(%rax)
    1b10:	48 ff c5             	inc    %rbp
    1b13:	48 83 fd 40          	cmp    $0x40,%rbp
    1b17:	74 26                	je     1b3f <_Z17PrintAllBitboardsP7state_t+0x36f>
    1b19:	49 0f a3 ed          	bt     %rbp,%r13
    1b1d:	4c 89 e7             	mov    %r12,%rdi
    1b20:	49 0f 43 ff          	cmovae %r15,%rdi
    1b24:	31 c0                	xor    %eax,%eax
    1b26:	e8 45 0f 01 00       	call   12a70 <_Z8myprintfPKcz>
    1b2b:	89 e8                	mov    %ebp,%eax
    1b2d:	f7 d0                	not    %eax
    1b2f:	a8 07                	test   $0x7,%al
    1b31:	75 dd                	jne    1b10 <_Z17PrintAllBitboardsP7state_t+0x340>
    1b33:	4c 89 f7             	mov    %r14,%rdi
    1b36:	31 c0                	xor    %eax,%eax
    1b38:	e8 33 0f 01 00       	call   12a70 <_Z8myprintfPKcz>
    1b3d:	eb d1                	jmp    1b10 <_Z17PrintAllBitboardsP7state_t+0x340>
    1b3f:	4c 8d 35 0b 4e 01 00 	lea    0x14e0b(%rip),%r14        # 16951 <_ZZ9init_gameP11gamestate_tP7state_tE10init_board+0x221>
    1b46:	4c 89 f7             	mov    %r14,%rdi
    1b49:	31 c0                	xor    %eax,%eax
    1b4b:	e8 20 0f 01 00       	call   12a70 <_Z8myprintfPKcz>
    1b50:	48 8d 3d 5c 38 01 00 	lea    0x1385c(%rip),%rdi        # 153b3 <_IO_stdin_used+0x3b3>
    1b57:	31 c0                	xor    %eax,%eax
    1b59:	e8 12 0f 01 00       	call   12a70 <_Z8myprintfPKcz>
    1b5e:	4c 8b ab 58 01 00 00 	mov    0x158(%rbx),%r13
    1b65:	31 ed                	xor    %ebp,%ebp
    1b67:	eb 10                	jmp    1b79 <_Z17PrintAllBitboardsP7state_t+0x3a9>
    1b69:	0f 1f 80 00 00 00 00 	nopl   0x0(%rax)
    1b70:	48 ff c5             	inc    %rbp
    1b73:	48 83 fd 40          	cmp    $0x40,%rbp
    1b77:	74 26                	je     1b9f <_Z17PrintAllBitboardsP7state_t+0x3cf>
    1b79:	49 0f a3 ed          	bt     %rbp,%r13
    1b7d:	4c 89 e7             	mov    %r12,%rdi
    1b80:	49 0f 43 ff          	cmovae %r15,%rdi
    1b84:	31 c0                	xor    %eax,%eax
    1b86:	e8 e5 0e 01 00       	call   12a70 <_Z8myprintfPKcz>
    1b8b:	89 e8                	mov    %ebp,%eax
    1b8d:	f7 d0                	not    %eax
    1b8f:	a8 07                	test   $0x7,%al
    1b91:	75 dd                	jne    1b70 <_Z17PrintAllBitboardsP7state_t+0x3a0>
    1b93:	4c 89 f7             	mov    %r14,%rdi
    1b96:	31 c0                	xor    %eax,%eax
    1b98:	e8 d3 0e 01 00       	call   12a70 <_Z8myprintfPKcz>
    1b9d:	eb d1                	jmp    1b70 <_Z17PrintAllBitboardsP7state_t+0x3a0>
    1b9f:	4c 8d 35 ab 4d 01 00 	lea    0x14dab(%rip),%r14        # 16951 <_ZZ9init_gameP11gamestate_tP7state_tE10init_board+0x221>
    1ba6:	4c 89 f7             	mov    %r14,%rdi
    1ba9:	31 c0                	xor    %eax,%eax
    1bab:	e8 c0 0e 01 00       	call   12a70 <_Z8myprintfPKcz>
    1bb0:	48 8d 3d 08 38 01 00 	lea    0x13808(%rip),%rdi        # 153bf <_IO_stdin_used+0x3bf>
    1bb7:	31 c0                	xor    %eax,%eax
    1bb9:	e8 b2 0e 01 00       	call   12a70 <_Z8myprintfPKcz>
    1bbe:	4c 8b ab 60 01 00 00 	mov    0x160(%rbx),%r13
    1bc5:	31 ed                	xor    %ebp,%ebp
    1bc7:	eb 10                	jmp    1bd9 <_Z17PrintAllBitboardsP7state_t+0x409>
    1bc9:	0f 1f 80 00 00 00 00 	nopl   0x0(%rax)
    1bd0:	48 ff c5             	inc    %rbp
    1bd3:	48 83 fd 40          	cmp    $0x40,%rbp
    1bd7:	74 26                	je     1bff <_Z17PrintAllBitboardsP7state_t+0x42f>
    1bd9:	49 0f a3 ed          	bt     %rbp,%r13
    1bdd:	4c 89 e7             	mov    %r12,%rdi
    1be0:	49 0f 43 ff          	cmovae %r15,%rdi
    1be4:	31 c0                	xor    %eax,%eax
    1be6:	e8 85 0e 01 00       	call   12a70 <_Z8myprintfPKcz>
    1beb:	89 e8                	mov    %ebp,%eax
    1bed:	f7 d0                	not    %eax
    1bef:	a8 07                	test   $0x7,%al
    1bf1:	75 dd                	jne    1bd0 <_Z17PrintAllBitboardsP7state_t+0x400>
    1bf3:	4c 89 f7             	mov    %r14,%rdi
    1bf6:	31 c0                	xor    %eax,%eax
    1bf8:	e8 73 0e 01 00       	call   12a70 <_Z8myprintfPKcz>
    1bfd:	eb d1                	jmp    1bd0 <_Z17PrintAllBitboardsP7state_t+0x400>
    1bff:	4c 8d 35 4b 4d 01 00 	lea    0x14d4b(%rip),%r14        # 16951 <_ZZ9init_gameP11gamestate_tP7state_tE10init_board+0x221>
    1c06:	4c 89 f7             	mov    %r14,%rdi
    1c09:	31 c0                	xor    %eax,%eax
    1c0b:	e8 60 0e 01 00       	call   12a70 <_Z8myprintfPKcz>
    1c10:	48 8d 3d b4 37 01 00 	lea    0x137b4(%rip),%rdi        # 153cb <_IO_stdin_used+0x3cb>
    1c17:	31 c0                	xor    %eax,%eax
    1c19:	e8 52 0e 01 00       	call   12a70 <_Z8myprintfPKcz>
    1c1e:	4c 8b ab 68 01 00 00 	mov    0x168(%rbx),%r13
    1c25:	31 ed                	xor    %ebp,%ebp
    1c27:	eb 10                	jmp    1c39 <_Z17PrintAllBitboardsP7state_t+0x469>
    1c29:	0f 1f 80 00 00 00 00 	nopl   0x0(%rax)
    1c30:	48 ff c5             	inc    %rbp
    1c33:	48 83 fd 40          	cmp    $0x40,%rbp
    1c37:	74 26                	je     1c5f <_Z17PrintAllBitboardsP7state_t+0x48f>
    1c39:	49 0f a3 ed          	bt     %rbp,%r13
    1c3d:	4c 89 e7             	mov    %r12,%rdi
    1c40:	49 0f 43 ff          	cmovae %r15,%rdi
    1c44:	31 c0                	xor    %eax,%eax
    1c46:	e8 25 0e 01 00       	call   12a70 <_Z8myprintfPKcz>
    1c4b:	89 e8                	mov    %ebp,%eax
    1c4d:	f7 d0                	not    %eax
    1c4f:	a8 07                	test   $0x7,%al
    1c51:	75 dd                	jne    1c30 <_Z17PrintAllBitboardsP7state_t+0x460>
    1c53:	4c 89 f7             	mov    %r14,%rdi
    1c56:	31 c0                	xor    %eax,%eax
    1c58:	e8 13 0e 01 00       	call   12a70 <_Z8myprintfPKcz>
    1c5d:	eb d1                	jmp    1c30 <_Z17PrintAllBitboardsP7state_t+0x460>
    1c5f:	4c 8d 35 eb 4c 01 00 	lea    0x14ceb(%rip),%r14        # 16951 <_ZZ9init_gameP11gamestate_tP7state_tE10init_board+0x221>
    1c66:	4c 89 f7             	mov    %r14,%rdi
    1c69:	31 c0                	xor    %eax,%eax
    1c6b:	e8 00 0e 01 00       	call   12a70 <_Z8myprintfPKcz>
    1c70:	48 8d 3d 61 37 01 00 	lea    0x13761(%rip),%rdi        # 153d8 <_IO_stdin_used+0x3d8>
    1c77:	31 c0                	xor    %eax,%eax
    1c79:	e8 f2 0d 01 00       	call   12a70 <_Z8myprintfPKcz>
    1c7e:	48 8b 9b 70 01 00 00 	mov    0x170(%rbx),%rbx
    1c85:	45 31 ed             	xor    %r13d,%r13d
    1c88:	eb 0f                	jmp    1c99 <_Z17PrintAllBitboardsP7state_t+0x4c9>
    1c8a:	66 0f 1f 44 00 00    	nopw   0x0(%rax,%rax,1)
    1c90:	49 ff c5             	inc    %r13
    1c93:	49 83 fd 40          	cmp    $0x40,%r13
    1c97:	74 27                	je     1cc0 <_Z17PrintAllBitboardsP7state_t+0x4f0>
    1c99:	4c 0f a3 eb          	bt     %r13,%rbx
    1c9d:	4c 89 e7             	mov    %r12,%rdi
    1ca0:	49 0f 43 ff          	cmovae %r15,%rdi
    1ca4:	31 c0                	xor    %eax,%eax
    1ca6:	e8 c5 0d 01 00       	call   12a70 <_Z8myprintfPKcz>
    1cab:	44 89 e8             	mov    %r13d,%eax
    1cae:	f7 d0                	not    %eax
    1cb0:	a8 07                	test   $0x7,%al
    1cb2:	75 dc                	jne    1c90 <_Z17PrintAllBitboardsP7state_t+0x4c0>
    1cb4:	4c 89 f7             	mov    %r14,%rdi
    1cb7:	31 c0                	xor    %eax,%eax
    1cb9:	e8 b2 0d 01 00       	call   12a70 <_Z8myprintfPKcz>
    1cbe:	eb d0                	jmp    1c90 <_Z17PrintAllBitboardsP7state_t+0x4c0>
    1cc0:	48 8d 3d 8a 4c 01 00 	lea    0x14c8a(%rip),%rdi        # 16951 <_ZZ9init_gameP11gamestate_tP7state_tE10init_board+0x221>
    1cc7:	31 c0                	xor    %eax,%eax
    1cc9:	48 83 c4 08          	add    $0x8,%rsp
    1ccd:	5b                   	pop    %rbx
    1cce:	41 5c                	pop    %r12
    1cd0:	41 5d                	pop    %r13
    1cd2:	41 5e                	pop    %r14
    1cd4:	41 5f                	pop    %r15
    1cd6:	5d                   	pop    %rbp
    1cd7:	e9 94 0d 01 00       	jmp    12a70 <_Z8myprintfPKcz>
    1cdc:	0f 1f 40 00          	nopl   0x0(%rax)

0000000000001ce0 <_Z22SetupPrecalculatedDatav>:
    1ce0:	66 0f 6f 05 28 33 01 	movdqa 0x13328(%rip),%xmm0        # 15010 <_IO_stdin_used+0x10>
    1ce7:	00 
    1ce8:	31 c9                	xor    %ecx,%ecx
    1cea:	66 0f 6f 0d 2e 33 01 	movdqa 0x1332e(%rip),%xmm1        # 15020 <_IO_stdin_used+0x20>
    1cf1:	00 
    1cf2:	48 8d 05 07 b2 01 00 	lea    0x1b207(%rip),%rax        # 1cf00 <Mask>
    1cf9:	66 0f 76 d2          	pcmpeqd %xmm2,%xmm2
    1cfd:	48 8d 15 fc b3 01 00 	lea    0x1b3fc(%rip),%rdx        # 1d100 <InvMask>
    1d04:	66 0f 6f 1d 24 33 01 	movdqa 0x13324(%rip),%xmm3        # 15030 <_IO_stdin_used+0x30>
    1d0b:	00 
    1d0c:	0f 1f 40 00          	nopl   0x0(%rax)
    1d10:	66 0f 6f e1          	movdqa %xmm1,%xmm4
    1d14:	66 0f f3 e0          	psllq  %xmm0,%xmm4
    1d18:	66 0f 70 e8 ee       	pshufd $0xee,%xmm0,%xmm5
    1d1d:	66 0f 6f f1          	movdqa %xmm1,%xmm6
    1d21:	66 0f f3 f5          	psllq  %xmm5,%xmm6
    1d25:	f2 0f 10 f4          	movsd  %xmm4,%xmm6
    1d29:	66 0f 29 34 01       	movapd %xmm6,(%rcx,%rax,1)
    1d2e:	66 0f 57 f2          	xorpd  %xmm2,%xmm6
    1d32:	66 0f 29 34 11       	movapd %xmm6,(%rcx,%rdx,1)
    1d37:	66 0f d4 c3          	paddq  %xmm3,%xmm0
    1d3b:	48 83 c1 10          	add    $0x10,%rcx
    1d3f:	48 81 f9 00 02 00 00 	cmp    $0x200,%rcx
    1d46:	75 c8                	jne    1d10 <_Z22SetupPrecalculatedDatav+0x30>
    1d48:	55                   	push   %rbp
    1d49:	41 57                	push   %r15
    1d4b:	41 56                	push   %r14
    1d4d:	41 55                	push   %r13
    1d4f:	41 54                	push   %r12
    1d51:	53                   	push   %rbx
    1d52:	48 83 ec 78          	sub    $0x78,%rsp
    1d56:	b9 e0 ff ff ff       	mov    $0xffffffe0,%ecx
    1d5b:	0f 28 05 9e b1 01 00 	movaps 0x1b19e(%rip),%xmm0        # 1cf00 <Mask>
    1d62:	0f 56 05 d7 b1 01 00 	orps   0x1b1d7(%rip),%xmm0        # 1cf40 <Mask+0x40>
    1d69:	0f 56 05 10 b2 01 00 	orps   0x1b210(%rip),%xmm0        # 1cf80 <Mask+0x80>
    1d70:	0f 56 05 49 b2 01 00 	orps   0x1b249(%rip),%xmm0        # 1cfc0 <Mask+0xc0>
    1d77:	0f 56 05 82 b2 01 00 	orps   0x1b282(%rip),%xmm0        # 1d000 <Mask+0x100>
    1d7e:	0f 56 05 bb b2 01 00 	orps   0x1b2bb(%rip),%xmm0        # 1d040 <Mask+0x140>
    1d85:	0f 56 05 f4 b2 01 00 	orps   0x1b2f4(%rip),%xmm0        # 1d080 <Mask+0x180>
    1d8c:	48 c7 05 a9 b9 01 00 	movq   $0xff,0x1b9a9(%rip)        # 1d740 <RankMask>
    1d93:	ff 00 00 00 
    1d97:	0f 56 05 22 b3 01 00 	orps   0x1b322(%rip),%xmm0        # 1d0c0 <Mask+0x1c0>
    1d9e:	0f 29 05 5b b9 01 00 	movaps %xmm0,0x1b95b(%rip)        # 1d700 <FileMask>
    1da5:	48 c7 05 98 b9 01 00 	movq   $0xff00,0x1b998(%rip)        # 1d748 <RankMask+0x8>
    1dac:	00 ff 00 00 
    1db0:	48 8b 15 59 b1 01 00 	mov    0x1b159(%rip),%rdx        # 1cf10 <Mask+0x10>
    1db7:	48 0b 15 92 b1 01 00 	or     0x1b192(%rip),%rdx        # 1cf50 <Mask+0x50>
    1dbe:	48 0b 15 cb b1 01 00 	or     0x1b1cb(%rip),%rdx        # 1cf90 <Mask+0x90>
    1dc5:	48 0b 15 04 b2 01 00 	or     0x1b204(%rip),%rdx        # 1cfd0 <Mask+0xd0>
    1dcc:	48 0b 15 3d b2 01 00 	or     0x1b23d(%rip),%rdx        # 1d010 <Mask+0x110>
    1dd3:	48 0b 15 76 b2 01 00 	or     0x1b276(%rip),%rdx        # 1d050 <Mask+0x150>
    1dda:	48 0b 15 af b2 01 00 	or     0x1b2af(%rip),%rdx        # 1d090 <Mask+0x190>
    1de1:	48 0b 15 e8 b2 01 00 	or     0x1b2e8(%rip),%rdx        # 1d0d0 <Mask+0x1d0>
    1de8:	48 89 15 21 b9 01 00 	mov    %rdx,0x1b921(%rip)        # 1d710 <FileMask+0x10>
    1def:	48 c7 05 56 b9 01 00 	movq   $0xff0000,0x1b956(%rip)        # 1d750 <RankMask+0x10>
    1df6:	00 00 ff 00 
    1dfa:	48 8d 91 20 00 00 ff 	lea    -0xffffe0(%rcx),%rdx
    1e01:	48 89 15 50 b9 01 00 	mov    %rdx,0x1b950(%rip)        # 1d758 <RankMask+0x18>
    1e08:	0f 10 1d 09 b1 01 00 	movups 0x1b109(%rip),%xmm3        # 1cf18 <Mask+0x18>
    1e0f:	0f 10 05 42 b1 01 00 	movups 0x1b142(%rip),%xmm0        # 1cf58 <Mask+0x58>
    1e16:	0f 10 0d 7b b1 01 00 	movups 0x1b17b(%rip),%xmm1        # 1cf98 <Mask+0x98>
    1e1d:	0f 56 c8             	orps   %xmm0,%xmm1
    1e20:	0f 10 05 b1 b1 01 00 	movups 0x1b1b1(%rip),%xmm0        # 1cfd8 <Mask+0xd8>
    1e27:	0f 10 15 ea b1 01 00 	movups 0x1b1ea(%rip),%xmm2        # 1d018 <Mask+0x118>
    1e2e:	0f 56 d0             	orps   %xmm0,%xmm2
    1e31:	0f 56 d1             	orps   %xmm1,%xmm2
    1e34:	0f 10 05 1d b2 01 00 	movups 0x1b21d(%rip),%xmm0        # 1d058 <Mask+0x158>
    1e3b:	0f 10 0d 56 b2 01 00 	movups 0x1b256(%rip),%xmm1        # 1d098 <Mask+0x198>
    1e42:	0f 56 c8             	orps   %xmm0,%xmm1
    1e45:	0f 10 05 8c b2 01 00 	movups 0x1b28c(%rip),%xmm0        # 1d0d8 <Mask+0x1d8>
    1e4c:	0f 56 c1             	orps   %xmm1,%xmm0
    1e4f:	0f 56 c2             	orps   %xmm2,%xmm0
    1e52:	0f 29 5c 24 f0       	movaps %xmm3,-0x10(%rsp)
    1e57:	0f 56 c3             	orps   %xmm3,%xmm0
    1e5a:	0f 11 05 b7 b8 01 00 	movups %xmm0,0x1b8b7(%rip)        # 1d718 <FileMask+0x18>
    1e61:	48 ba 00 00 00 00 ff 	movabs $0xff00000000,%rdx
    1e68:	00 00 00 
    1e6b:	48 89 15 ee b8 01 00 	mov    %rdx,0x1b8ee(%rip)        # 1d760 <RankMask+0x20>
    1e72:	48 ba 00 00 00 00 00 	movabs $0xff0000000000,%rdx
    1e79:	ff 00 00 
    1e7c:	48 89 15 e5 b8 01 00 	mov    %rdx,0x1b8e5(%rip)        # 1d768 <RankMask+0x28>
    1e83:	f3 0f 6f 1d 9d b0 01 	movdqu 0x1b09d(%rip),%xmm3        # 1cf28 <Mask+0x28>
    1e8a:	00 
    1e8b:	f3 0f 6f 05 d5 b0 01 	movdqu 0x1b0d5(%rip),%xmm0        # 1cf68 <Mask+0x68>
    1e92:	00 
    1e93:	f3 0f 6f 0d 0d b1 01 	movdqu 0x1b10d(%rip),%xmm1        # 1cfa8 <Mask+0xa8>
    1e9a:	00 
    1e9b:	66 0f eb c8          	por    %xmm0,%xmm1
    1e9f:	f3 0f 6f 05 41 b1 01 	movdqu 0x1b141(%rip),%xmm0        # 1cfe8 <Mask+0xe8>
    1ea6:	00 
    1ea7:	f3 0f 6f 15 79 b1 01 	movdqu 0x1b179(%rip),%xmm2        # 1d028 <Mask+0x128>
    1eae:	00 
    1eaf:	66 0f eb d0          	por    %xmm0,%xmm2
    1eb3:	66 0f eb d1          	por    %xmm1,%xmm2
    1eb7:	f3 0f 6f 05 a9 b1 01 	movdqu 0x1b1a9(%rip),%xmm0        # 1d068 <Mask+0x168>
    1ebe:	00 
    1ebf:	f3 0f 6f 0d e1 b1 01 	movdqu 0x1b1e1(%rip),%xmm1        # 1d0a8 <Mask+0x1a8>
    1ec6:	00 
    1ec7:	66 0f eb c8          	por    %xmm0,%xmm1
    1ecb:	f3 0f 6f 05 15 b2 01 	movdqu 0x1b215(%rip),%xmm0        # 1d0e8 <Mask+0x1e8>
    1ed2:	00 
    1ed3:	66 0f eb c1          	por    %xmm1,%xmm0
    1ed7:	66 0f eb c2          	por    %xmm2,%xmm0
    1edb:	66 0f 7f 5c 24 e0    	movdqa %xmm3,-0x20(%rsp)
    1ee1:	66 0f eb c3          	por    %xmm3,%xmm0
    1ee5:	f3 0f 7f 05 3b b8 01 	movdqu %xmm0,0x1b83b(%rip)        # 1d728 <FileMask+0x28>
    1eec:	00 
    1eed:	48 ba 00 00 00 00 00 	movabs $0xff000000000000,%rdx
    1ef4:	00 ff 00 
    1ef7:	48 89 15 72 b8 01 00 	mov    %rdx,0x1b872(%rip)        # 1d770 <RankMask+0x30>
    1efe:	48 8b 35 33 b0 01 00 	mov    0x1b033(%rip),%rsi        # 1cf38 <Mask+0x38>
    1f05:	48 8b 15 6c b0 01 00 	mov    0x1b06c(%rip),%rdx        # 1cf78 <Mask+0x78>
    1f0c:	48 0b 15 a5 b0 01 00 	or     0x1b0a5(%rip),%rdx        # 1cfb8 <Mask+0xb8>
    1f13:	48 0b 15 de b0 01 00 	or     0x1b0de(%rip),%rdx        # 1cff8 <Mask+0xf8>
    1f1a:	48 0b 15 17 b1 01 00 	or     0x1b117(%rip),%rdx        # 1d038 <Mask+0x138>
    1f21:	48 0b 15 50 b1 01 00 	or     0x1b150(%rip),%rdx        # 1d078 <Mask+0x178>
    1f28:	48 0b 15 89 b1 01 00 	or     0x1b189(%rip),%rdx        # 1d0b8 <Mask+0x1b8>
    1f2f:	48 0b 15 c2 b1 01 00 	or     0x1b1c2(%rip),%rdx        # 1d0f8 <Mask+0x1f8>
    1f36:	48 89 74 24 98       	mov    %rsi,-0x68(%rsp)
    1f3b:	48 09 f2             	or     %rsi,%rdx
    1f3e:	48 89 15 f3 b7 01 00 	mov    %rdx,0x1b7f3(%rip)        # 1d738 <FileMask+0x38>
    1f45:	48 ba 00 00 00 00 00 	movabs $0xff00000000000000,%rdx
    1f4c:	00 00 ff 
    1f4f:	48 89 15 22 b8 01 00 	mov    %rdx,0x1b822(%rip)        # 1d778 <RankMask+0x38>
    1f56:	31 d2                	xor    %edx,%edx
    1f58:	48 8d 35 41 bf 01 00 	lea    0x1bf41(%rip),%rsi        # 1dea0 <FileUpMask>
    1f5f:	48 8d 3d 3a c1 01 00 	lea    0x1c13a(%rip),%rdi        # 1e0a0 <FileDownMask>
    1f66:	45 31 c0             	xor    %r8d,%r8d
    1f69:	eb 1a                	jmp    1f85 <_Z22SetupPrecalculatedDatav+0x2a5>
    1f6b:	0f 1f 44 00 00       	nopl   0x0(%rax,%rax,1)
    1f70:	4c 89 0c 3a          	mov    %r9,(%rdx,%rdi,1)
    1f74:	49 ff c0             	inc    %r8
    1f77:	48 83 c2 08          	add    $0x8,%rdx
    1f7b:	49 83 f8 40          	cmp    $0x40,%r8
    1f7f:	0f 84 23 01 00 00    	je     20a8 <_Z22SetupPrecalculatedDatav+0x3c8>
    1f85:	48 c7 04 32 00 00 00 	movq   $0x0,(%rdx,%rsi,1)
    1f8c:	00 
    1f8d:	48 c7 04 3a 00 00 00 	movq   $0x0,(%rdx,%rdi,1)
    1f94:	00 
    1f95:	49 83 f8 07          	cmp    $0x7,%r8
    1f99:	0f 86 8f 00 00 00    	jbe    202e <_Z22SetupPrecalculatedDatav+0x34e>
    1f9f:	45 8d 0c 08          	lea    (%r8,%rcx,1),%r9d
    1fa3:	41 83 c1 18          	add    $0x18,%r9d
    1fa7:	4e 8b 0c c8          	mov    (%rax,%r9,8),%r9
    1fab:	49 83 f8 10          	cmp    $0x10,%r8
    1faf:	72 6f                	jb     2020 <_Z22SetupPrecalculatedDatav+0x340>
    1fb1:	45 8d 14 08          	lea    (%r8,%rcx,1),%r10d
    1fb5:	41 83 c2 10          	add    $0x10,%r10d
    1fb9:	4e 0b 0c d0          	or     (%rax,%r10,8),%r9
    1fbd:	49 83 f8 18          	cmp    $0x18,%r8
    1fc1:	72 5d                	jb     2020 <_Z22SetupPrecalculatedDatav+0x340>
    1fc3:	45 8d 14 08          	lea    (%r8,%rcx,1),%r10d
    1fc7:	41 83 c2 08          	add    $0x8,%r10d
    1fcb:	4e 0b 0c d0          	or     (%rax,%r10,8),%r9
    1fcf:	49 83 f8 20          	cmp    $0x20,%r8
    1fd3:	72 4b                	jb     2020 <_Z22SetupPrecalculatedDatav+0x340>
    1fd5:	45 8d 14 08          	lea    (%r8,%rcx,1),%r10d
    1fd9:	4e 0b 0c d0          	or     (%rax,%r10,8),%r9
    1fdd:	49 83 f8 28          	cmp    $0x28,%r8
    1fe1:	72 3d                	jb     2020 <_Z22SetupPrecalculatedDatav+0x340>
    1fe3:	45 8d 14 08          	lea    (%r8,%rcx,1),%r10d
    1fe7:	41 83 c2 f8          	add    $0xfffffff8,%r10d
    1feb:	4e 0b 0c d0          	or     (%rax,%r10,8),%r9
    1fef:	49 83 f8 30          	cmp    $0x30,%r8
    1ff3:	72 2b                	jb     2020 <_Z22SetupPrecalculatedDatav+0x340>
    1ff5:	45 8d 14 08          	lea    (%r8,%rcx,1),%r10d
    1ff9:	41 83 c2 f0          	add    $0xfffffff0,%r10d
    1ffd:	4e 0b 0c d0          	or     (%rax,%r10,8),%r9
    2001:	49 83 f8 38          	cmp    $0x38,%r8
    2005:	72 19                	jb     2020 <_Z22SetupPrecalculatedDatav+0x340>
    2007:	45 8d 14 08          	lea    (%r8,%rcx,1),%r10d
    200b:	41 83 c2 e8          	add    $0xffffffe8,%r10d
    200f:	4e 0b 0c d0          	or     (%rax,%r10,8),%r9
    2013:	66 66 66 66 2e 0f 1f 	data16 data16 data16 cs nopw 0x0(%rax,%rax,1)
    201a:	84 00 00 00 00 00 
    2020:	4c 89 0c 32          	mov    %r9,(%rdx,%rsi,1)
    2024:	49 83 f8 38          	cmp    $0x38,%r8
    2028:	0f 83 46 ff ff ff    	jae    1f74 <_Z22SetupPrecalculatedDatav+0x294>
    202e:	4e 8b 4c c0 40       	mov    0x40(%rax,%r8,8),%r9
    2033:	49 83 f8 2f          	cmp    $0x2f,%r8
    2037:	0f 87 33 ff ff ff    	ja     1f70 <_Z22SetupPrecalculatedDatav+0x290>
    203d:	4e 0b 8c c0 80 00 00 	or     0x80(%rax,%r8,8),%r9
    2044:	00 
    2045:	49 83 f8 27          	cmp    $0x27,%r8
    2049:	0f 87 21 ff ff ff    	ja     1f70 <_Z22SetupPrecalculatedDatav+0x290>
    204f:	4e 0b 8c c0 c0 00 00 	or     0xc0(%rax,%r8,8),%r9
    2056:	00 
    2057:	49 83 f8 1f          	cmp    $0x1f,%r8
    205b:	0f 87 0f ff ff ff    	ja     1f70 <_Z22SetupPrecalculatedDatav+0x290>
    2061:	4e 0b 8c c0 00 01 00 	or     0x100(%rax,%r8,8),%r9
    2068:	00 
    2069:	49 83 f8 17          	cmp    $0x17,%r8
    206d:	0f 87 fd fe ff ff    	ja     1f70 <_Z22SetupPrecalculatedDatav+0x290>
    2073:	4d 8d 50 20          	lea    0x20(%r8),%r10
    2077:	4e 0b 8c c0 40 01 00 	or     0x140(%rax,%r8,8),%r9
    207e:	00 
    207f:	49 83 fa 2f          	cmp    $0x2f,%r10
    2083:	0f 87 e7 fe ff ff    	ja     1f70 <_Z22SetupPrecalculatedDatav+0x290>
    2089:	4e 0b 8c c0 80 01 00 	or     0x180(%rax,%r8,8),%r9
    2090:	00 
    2091:	49 83 f8 07          	cmp    $0x7,%r8
    2095:	0f 87 d5 fe ff ff    	ja     1f70 <_Z22SetupPrecalculatedDatav+0x290>
    209b:	4e 0b 8c c0 c0 01 00 	or     0x1c0(%rax,%r8,8),%r9
    20a2:	00 
    20a3:	e9 c8 fe ff ff       	jmp    1f70 <_Z22SetupPrecalculatedDatav+0x290>
    20a8:	31 c9                	xor    %ecx,%ecx
    20aa:	41 b8 01 00 00 00    	mov    $0x1,%r8d
    20b0:	4c 8d 0d 39 34 01 00 	lea    0x13439(%rip),%r9        # 154f0 <_ZL19DiagonalLength_a8h1>
    20b7:	45 31 d2             	xor    %r10d,%r10d
    20ba:	eb 17                	jmp    20d3 <_Z22SetupPrecalculatedDatav+0x3f3>
    20bc:	0f 1f 40 00          	nopl   0x0(%rax)
    20c0:	4b 89 34 d4          	mov    %rsi,(%r12,%r10,8)
    20c4:	49 ff c2             	inc    %r10
    20c7:	ff c1                	inc    %ecx
    20c9:	49 83 fa 40          	cmp    $0x40,%r10
    20cd:	0f 84 97 01 00 00    	je     226a <_Z22SetupPrecalculatedDatav+0x58a>
    20d3:	89 cb                	mov    %ecx,%ebx
    20d5:	c1 eb 03             	shr    $0x3,%ebx
    20d8:	41 89 cd             	mov    %ecx,%r13d
    20db:	41 83 e5 07          	and    $0x7,%r13d
    20df:	44 39 eb             	cmp    %r13d,%ebx
    20e2:	41 0f 43 dd          	cmovae %r13d,%ebx
    20e6:	45 89 d3             	mov    %r10d,%r11d
    20e9:	41 83 e3 07          	and    $0x7,%r11d
    20ed:	44 89 d6             	mov    %r10d,%esi
    20f0:	c1 ee 03             	shr    $0x3,%esi
    20f3:	48 8d 15 f6 32 01 00 	lea    0x132f6(%rip),%rdx        # 153f0 <_ZL19DiagonalLength_a1h8>
    20fa:	46 8b 3c 92          	mov    (%rdx,%r10,4),%r15d
    20fe:	89 f2                	mov    %esi,%edx
    2100:	83 f2 07             	xor    $0x7,%edx
    2103:	44 39 da             	cmp    %r11d,%edx
    2106:	45 89 de             	mov    %r11d,%r14d
    2109:	44 0f 42 f2          	cmovb  %edx,%r14d
    210d:	41 83 ff 02          	cmp    $0x2,%r15d
    2111:	45 0f 4c f8          	cmovl  %r8d,%r15d
    2115:	4d 85 d2             	test   %r10,%r10
    2118:	0f 84 02 01 00 00    	je     2220 <_Z22SetupPrecalculatedDatav+0x540>
    211e:	41 bc 00 00 00 00    	mov    $0x0,%r12d
    2124:	bf 00 00 00 00       	mov    $0x0,%edi
    2129:	49 83 fa 3f          	cmp    $0x3f,%r10
    212d:	74 4f                	je     217e <_Z22SetupPrecalculatedDatav+0x49e>
    212f:	44 89 fd             	mov    %r15d,%ebp
    2132:	81 e5 fe ff ff 7f    	and    $0x7ffffffe,%ebp
    2138:	44 39 ea             	cmp    %r13d,%edx
    213b:	44 0f 42 ea          	cmovb  %edx,%r13d
    213f:	42 8d 14 ed 00 00 00 	lea    0x0(,%r13,8),%edx
    2146:	00 
    2147:	44 29 ea             	sub    %r13d,%edx
    214a:	01 ca                	add    %ecx,%edx
    214c:	45 31 e4             	xor    %r12d,%r12d
    214f:	31 ff                	xor    %edi,%edi
    2151:	66 66 66 66 66 66 2e 	data16 data16 data16 data16 data16 cs nopw 0x0(%rax,%rax,1)
    2158:	0f 1f 84 00 00 00 00 
    215f:	00 
    2160:	48 63 d2             	movslq %edx,%rdx
    2163:	48 0b 3c d0          	or     (%rax,%rdx,8),%rdi
    2167:	44 8d 6a f9          	lea    -0x7(%rdx),%r13d
    216b:	4d 63 ed             	movslq %r13d,%r13
    216e:	4a 0b 3c e8          	or     (%rax,%r13,8),%rdi
    2172:	49 83 c4 02          	add    $0x2,%r12
    2176:	83 c2 f2             	add    $0xfffffff2,%edx
    2179:	4c 39 e5             	cmp    %r12,%rbp
    217c:	75 e2                	jne    2160 <_Z22SetupPrecalculatedDatav+0x480>
    217e:	41 f6 c7 01          	test   $0x1,%r15b
    2182:	74 18                	je     219c <_Z22SetupPrecalculatedDatav+0x4bc>
    2184:	45 29 e6             	sub    %r12d,%r14d
    2187:	42 8d 14 f5 00 00 00 	lea    0x0(,%r14,8),%edx
    218e:	00 
    218f:	44 29 f2             	sub    %r14d,%edx
    2192:	44 01 d2             	add    %r10d,%edx
    2195:	48 63 d2             	movslq %edx,%rdx
    2198:	48 0b 3c d0          	or     (%rax,%rdx,8),%rdi
    219c:	48 8d 15 5d b1 01 00 	lea    0x1b15d(%rip),%rdx        # 1d300 <DiagMaska1h8>
    21a3:	4a 89 3c d2          	mov    %rdi,(%rdx,%r10,8)
    21a7:	47 8b 34 91          	mov    (%r9,%r10,4),%r14d
    21ab:	44 39 de             	cmp    %r11d,%esi
    21ae:	44 0f 42 de          	cmovb  %esi,%r11d
    21b2:	41 83 fe 02          	cmp    $0x2,%r14d
    21b6:	45 0f 4c f0          	cmovl  %r8d,%r14d
    21ba:	49 83 fa 07          	cmp    $0x7,%r10
    21be:	0f 84 7c 00 00 00    	je     2240 <_Z22SetupPrecalculatedDatav+0x560>
    21c4:	bf 00 00 00 00       	mov    $0x0,%edi
    21c9:	be 00 00 00 00       	mov    $0x0,%esi
    21ce:	49 83 fa 38          	cmp    $0x38,%r10
    21d2:	4c 8d 25 27 b3 01 00 	lea    0x1b327(%rip),%r12        # 1d500 <DiagMaska8h1>
    21d9:	74 32                	je     220d <_Z22SetupPrecalculatedDatav+0x52d>
    21db:	8d 14 db             	lea    (%rbx,%rbx,8),%edx
    21de:	89 cb                	mov    %ecx,%ebx
    21e0:	29 d3                	sub    %edx,%ebx
    21e2:	44 89 f2             	mov    %r14d,%edx
    21e5:	81 e2 fe ff ff 7f    	and    $0x7ffffffe,%edx
    21eb:	31 ff                	xor    %edi,%edi
    21ed:	31 f6                	xor    %esi,%esi
    21ef:	90                   	nop
    21f0:	48 63 db             	movslq %ebx,%rbx
    21f3:	48 0b 34 d8          	or     (%rax,%rbx,8),%rsi
    21f7:	8d 6b 09             	lea    0x9(%rbx),%ebp
    21fa:	4c 63 fd             	movslq %ebp,%r15
    21fd:	4a 0b 34 f8          	or     (%rax,%r15,8),%rsi
    2201:	48 83 c7 02          	add    $0x2,%rdi
    2205:	83 c3 12             	add    $0x12,%ebx
    2208:	48 39 fa             	cmp    %rdi,%rdx
    220b:	75 e3                	jne    21f0 <_Z22SetupPrecalculatedDatav+0x510>
    220d:	41 f6 c6 01          	test   $0x1,%r14b
    2211:	0f 84 a9 fe ff ff    	je     20c0 <_Z22SetupPrecalculatedDatav+0x3e0>
    2217:	eb 3c                	jmp    2255 <_Z22SetupPrecalculatedDatav+0x575>
    2219:	0f 1f 80 00 00 00 00 	nopl   0x0(%rax)
    2220:	45 31 e4             	xor    %r12d,%r12d
    2223:	31 ff                	xor    %edi,%edi
    2225:	41 f6 c7 01          	test   $0x1,%r15b
    2229:	0f 85 55 ff ff ff    	jne    2184 <_Z22SetupPrecalculatedDatav+0x4a4>
    222f:	e9 68 ff ff ff       	jmp    219c <_Z22SetupPrecalculatedDatav+0x4bc>
    2234:	66 66 66 2e 0f 1f 84 	data16 data16 cs nopw 0x0(%rax,%rax,1)
    223b:	00 00 00 00 00 
    2240:	31 ff                	xor    %edi,%edi
    2242:	31 f6                	xor    %esi,%esi
    2244:	4c 8d 25 b5 b2 01 00 	lea    0x1b2b5(%rip),%r12        # 1d500 <DiagMaska8h1>
    224b:	41 f6 c6 01          	test   $0x1,%r14b
    224f:	0f 84 6b fe ff ff    	je     20c0 <_Z22SetupPrecalculatedDatav+0x3e0>
    2255:	44 29 df             	sub    %r11d,%edi
    2258:	8d 14 ff             	lea    (%rdi,%rdi,8),%edx
    225b:	44 01 d2             	add    %r10d,%edx
    225e:	48 63 d2             	movslq %edx,%rdx
    2261:	48 0b 34 d0          	or     (%rax,%rdx,8),%rsi
    2265:	e9 56 fe ff ff       	jmp    20c0 <_Z22SetupPrecalculatedDatav+0x3e0>
    226a:	31 c9                	xor    %ecx,%ecx
    226c:	48 8d 3d 4d c0 01 00 	lea    0x1c04d(%rip),%rdi        # 1e2c0 <KingSafetyMask>
    2273:	45 31 c0             	xor    %r8d,%r8d
    2276:	eb 19                	jmp    2291 <_Z22SetupPrecalculatedDatav+0x5b1>
    2278:	0f 1f 84 00 00 00 00 	nopl   0x0(%rax,%rax,1)
    227f:	00 
    2280:	49 ff c0             	inc    %r8
    2283:	48 83 c1 08          	add    $0x8,%rcx
    2287:	49 83 f8 40          	cmp    $0x40,%r8
    228b:	0f 84 df 02 00 00    	je     2570 <_Z22SetupPrecalculatedDatav+0x890>
    2291:	48 c7 04 39 00 00 00 	movq   $0x0,(%rcx,%rdi,1)
    2298:	00 
    2299:	45 89 c2             	mov    %r8d,%r10d
    229c:	41 83 e2 07          	and    $0x7,%r10d
    22a0:	41 8d 72 fe          	lea    -0x2(%r10),%esi
    22a4:	44 89 c2             	mov    %r8d,%edx
    22a7:	c1 ea 03             	shr    $0x3,%edx
    22aa:	44 8d 4a fe          	lea    -0x2(%rdx),%r9d
    22ae:	44 8d 2c d5 f0 ff ff 	lea    -0x10(,%rdx,8),%r13d
    22b5:	ff 
    22b6:	44 8d 24 d5 f8 ff ff 	lea    -0x8(,%rdx,8),%r12d
    22bd:	ff 
    22be:	89 d5                	mov    %edx,%ebp
    22c0:	ff cd                	dec    %ebp
    22c2:	45 89 c7             	mov    %r8d,%r15d
    22c5:	41 83 e7 38          	and    $0x38,%r15d
    22c9:	41 8d 5f 08          	lea    0x8(%r15),%ebx
    22cd:	45 8d 5f 10          	lea    0x10(%r15),%r11d
    22d1:	83 fe 07             	cmp    $0x7,%esi
    22d4:	76 0a                	jbe    22e0 <_Z22SetupPrecalculatedDatav+0x600>
    22d6:	45 31 f6             	xor    %r14d,%r14d
    22d9:	e9 82 00 00 00       	jmp    2360 <_Z22SetupPrecalculatedDatav+0x680>
    22de:	66 90                	xchg   %ax,%ax
    22e0:	41 83 f9 07          	cmp    $0x7,%r9d
    22e4:	77 0a                	ja     22f0 <_Z22SetupPrecalculatedDatav+0x610>
    22e6:	44 89 ea             	mov    %r13d,%edx
    22e9:	09 f2                	or     %esi,%edx
    22eb:	49 39 d0             	cmp    %rdx,%r8
    22ee:	75 0a                	jne    22fa <_Z22SetupPrecalculatedDatav+0x61a>
    22f0:	45 31 f6             	xor    %r14d,%r14d
    22f3:	83 fd 07             	cmp    $0x7,%ebp
    22f6:	76 0f                	jbe    2307 <_Z22SetupPrecalculatedDatav+0x627>
    22f8:	eb 1f                	jmp    2319 <_Z22SetupPrecalculatedDatav+0x639>
    22fa:	4c 8b 34 d0          	mov    (%rax,%rdx,8),%r14
    22fe:	4c 89 34 39          	mov    %r14,(%rcx,%rdi,1)
    2302:	83 fd 07             	cmp    $0x7,%ebp
    2305:	77 12                	ja     2319 <_Z22SetupPrecalculatedDatav+0x639>
    2307:	44 89 e2             	mov    %r12d,%edx
    230a:	09 f2                	or     %esi,%edx
    230c:	49 39 d0             	cmp    %rdx,%r8
    230f:	74 08                	je     2319 <_Z22SetupPrecalculatedDatav+0x639>
    2311:	4c 0b 34 d0          	or     (%rax,%rdx,8),%r14
    2315:	4c 89 34 39          	mov    %r14,(%rcx,%rdi,1)
    2319:	41 83 f8 3f          	cmp    $0x3f,%r8d
    231d:	77 41                	ja     2360 <_Z22SetupPrecalculatedDatav+0x680>
    231f:	44 89 fa             	mov    %r15d,%edx
    2322:	09 f2                	or     %esi,%edx
    2324:	49 39 d0             	cmp    %rdx,%r8
    2327:	74 08                	je     2331 <_Z22SetupPrecalculatedDatav+0x651>
    2329:	4c 0b 34 d0          	or     (%rax,%rdx,8),%r14
    232d:	4c 89 34 39          	mov    %r14,(%rcx,%rdi,1)
    2331:	41 83 f8 37          	cmp    $0x37,%r8d
    2335:	77 29                	ja     2360 <_Z22SetupPrecalculatedDatav+0x680>
    2337:	89 da                	mov    %ebx,%edx
    2339:	09 f2                	or     %esi,%edx
    233b:	49 39 d0             	cmp    %rdx,%r8
    233e:	74 08                	je     2348 <_Z22SetupPrecalculatedDatav+0x668>
    2340:	4c 0b 34 d0          	or     (%rax,%rdx,8),%r14
    2344:	4c 89 34 39          	mov    %r14,(%rcx,%rdi,1)
    2348:	41 83 f8 2f          	cmp    $0x2f,%r8d
    234c:	77 12                	ja     2360 <_Z22SetupPrecalculatedDatav+0x680>
    234e:	44 09 de             	or     %r11d,%esi
    2351:	49 39 f0             	cmp    %rsi,%r8
    2354:	74 0a                	je     2360 <_Z22SetupPrecalculatedDatav+0x680>
    2356:	4c 0b 34 f0          	or     (%rax,%rsi,8),%r14
    235a:	4c 89 34 39          	mov    %r14,(%rcx,%rdi,1)
    235e:	66 90                	xchg   %ax,%ax
    2360:	41 8d 72 ff          	lea    -0x1(%r10),%esi
    2364:	83 fe 07             	cmp    $0x7,%esi
    2367:	77 77                	ja     23e0 <_Z22SetupPrecalculatedDatav+0x700>
    2369:	41 83 f9 07          	cmp    $0x7,%r9d
    236d:	77 12                	ja     2381 <_Z22SetupPrecalculatedDatav+0x6a1>
    236f:	44 89 ea             	mov    %r13d,%edx
    2372:	09 f2                	or     %esi,%edx
    2374:	49 39 d0             	cmp    %rdx,%r8
    2377:	74 08                	je     2381 <_Z22SetupPrecalculatedDatav+0x6a1>
    2379:	4c 0b 34 d0          	or     (%rax,%rdx,8),%r14
    237d:	4c 89 34 39          	mov    %r14,(%rcx,%rdi,1)
    2381:	83 fd 07             	cmp    $0x7,%ebp
    2384:	77 12                	ja     2398 <_Z22SetupPrecalculatedDatav+0x6b8>
    2386:	44 89 e2             	mov    %r12d,%edx
    2389:	09 f2                	or     %esi,%edx
    238b:	49 39 d0             	cmp    %rdx,%r8
    238e:	74 08                	je     2398 <_Z22SetupPrecalculatedDatav+0x6b8>
    2390:	4c 0b 34 d0          	or     (%rax,%rdx,8),%r14
    2394:	4c 89 34 39          	mov    %r14,(%rcx,%rdi,1)
    2398:	41 83 f8 3f          	cmp    $0x3f,%r8d
    239c:	77 42                	ja     23e0 <_Z22SetupPrecalculatedDatav+0x700>
    239e:	44 89 fa             	mov    %r15d,%edx
    23a1:	09 f2                	or     %esi,%edx
    23a3:	49 39 d0             	cmp    %rdx,%r8
    23a6:	74 08                	je     23b0 <_Z22SetupPrecalculatedDatav+0x6d0>
    23a8:	4c 0b 34 d0          	or     (%rax,%rdx,8),%r14
    23ac:	4c 89 34 39          	mov    %r14,(%rcx,%rdi,1)
    23b0:	41 83 f8 37          	cmp    $0x37,%r8d
    23b4:	77 2a                	ja     23e0 <_Z22SetupPrecalculatedDatav+0x700>
    23b6:	89 da                	mov    %ebx,%edx
    23b8:	09 f2                	or     %esi,%edx
    23ba:	49 39 d0             	cmp    %rdx,%r8
    23bd:	74 08                	je     23c7 <_Z22SetupPrecalculatedDatav+0x6e7>
    23bf:	4c 0b 34 d0          	or     (%rax,%rdx,8),%r14
    23c3:	4c 89 34 39          	mov    %r14,(%rcx,%rdi,1)
    23c7:	41 83 f8 2f          	cmp    $0x2f,%r8d
    23cb:	77 13                	ja     23e0 <_Z22SetupPrecalculatedDatav+0x700>
    23cd:	44 09 de             	or     %r11d,%esi
    23d0:	49 39 f0             	cmp    %rsi,%r8
    23d3:	74 0b                	je     23e0 <_Z22SetupPrecalculatedDatav+0x700>
    23d5:	4c 0b 34 f0          	or     (%rax,%rsi,8),%r14
    23d9:	4c 89 34 39          	mov    %r14,(%rcx,%rdi,1)
    23dd:	0f 1f 00             	nopl   (%rax)
    23e0:	41 83 f9 07          	cmp    $0x7,%r9d
    23e4:	77 13                	ja     23f9 <_Z22SetupPrecalculatedDatav+0x719>
    23e6:	44 89 ea             	mov    %r13d,%edx
    23e9:	44 09 d2             	or     %r10d,%edx
    23ec:	49 39 d0             	cmp    %rdx,%r8
    23ef:	74 08                	je     23f9 <_Z22SetupPrecalculatedDatav+0x719>
    23f1:	4c 0b 34 d0          	or     (%rax,%rdx,8),%r14
    23f5:	4c 89 34 39          	mov    %r14,(%rcx,%rdi,1)
    23f9:	83 fd 07             	cmp    $0x7,%ebp
    23fc:	77 13                	ja     2411 <_Z22SetupPrecalculatedDatav+0x731>
    23fe:	44 89 e2             	mov    %r12d,%edx
    2401:	44 09 d2             	or     %r10d,%edx
    2404:	49 39 d0             	cmp    %rdx,%r8
    2407:	74 08                	je     2411 <_Z22SetupPrecalculatedDatav+0x731>
    2409:	4c 0b 34 d0          	or     (%rax,%rdx,8),%r14
    240d:	4c 89 34 39          	mov    %r14,(%rcx,%rdi,1)
    2411:	41 83 f8 3f          	cmp    $0x3f,%r8d
    2415:	77 49                	ja     2460 <_Z22SetupPrecalculatedDatav+0x780>
    2417:	4c 89 c2             	mov    %r8,%rdx
    241a:	48 c1 ea 20          	shr    $0x20,%rdx
    241e:	74 08                	je     2428 <_Z22SetupPrecalculatedDatav+0x748>
    2420:	4c 0b 34 01          	or     (%rcx,%rax,1),%r14
    2424:	4c 89 34 39          	mov    %r14,(%rcx,%rdi,1)
    2428:	41 83 f8 37          	cmp    $0x37,%r8d
    242c:	77 32                	ja     2460 <_Z22SetupPrecalculatedDatav+0x780>
    242e:	89 da                	mov    %ebx,%edx
    2430:	44 09 d2             	or     %r10d,%edx
    2433:	49 39 d0             	cmp    %rdx,%r8
    2436:	74 08                	je     2440 <_Z22SetupPrecalculatedDatav+0x760>
    2438:	4c 0b 34 d0          	or     (%rax,%rdx,8),%r14
    243c:	4c 89 34 39          	mov    %r14,(%rcx,%rdi,1)
    2440:	41 83 f8 2f          	cmp    $0x2f,%r8d
    2444:	77 1a                	ja     2460 <_Z22SetupPrecalculatedDatav+0x780>
    2446:	44 89 da             	mov    %r11d,%edx
    2449:	44 09 d2             	or     %r10d,%edx
    244c:	49 39 d0             	cmp    %rdx,%r8
    244f:	74 0f                	je     2460 <_Z22SetupPrecalculatedDatav+0x780>
    2451:	4c 0b 34 d0          	or     (%rax,%rdx,8),%r14
    2455:	4c 89 34 39          	mov    %r14,(%rcx,%rdi,1)
    2459:	0f 1f 80 00 00 00 00 	nopl   0x0(%rax)
    2460:	41 83 fa 07          	cmp    $0x7,%r10d
    2464:	74 7a                	je     24e0 <_Z22SetupPrecalculatedDatav+0x800>
    2466:	41 8d 72 01          	lea    0x1(%r10),%esi
    246a:	41 83 f9 07          	cmp    $0x7,%r9d
    246e:	77 12                	ja     2482 <_Z22SetupPrecalculatedDatav+0x7a2>
    2470:	44 89 ea             	mov    %r13d,%edx
    2473:	09 f2                	or     %esi,%edx
    2475:	49 39 d0             	cmp    %rdx,%r8
    2478:	74 08                	je     2482 <_Z22SetupPrecalculatedDatav+0x7a2>
    247a:	4c 0b 34 d0          	or     (%rax,%rdx,8),%r14
    247e:	4c 89 34 39          	mov    %r14,(%rcx,%rdi,1)
    2482:	83 fd 07             	cmp    $0x7,%ebp
    2485:	77 12                	ja     2499 <_Z22SetupPrecalculatedDatav+0x7b9>
    2487:	44 89 e2             	mov    %r12d,%edx
    248a:	09 f2                	or     %esi,%edx
    248c:	49 39 d0             	cmp    %rdx,%r8
    248f:	74 08                	je     2499 <_Z22SetupPrecalculatedDatav+0x7b9>
    2491:	4c 0b 34 d0          	or     (%rax,%rdx,8),%r14
    2495:	4c 89 34 39          	mov    %r14,(%rcx,%rdi,1)
    2499:	41 83 f8 3f          	cmp    $0x3f,%r8d
    249d:	77 41                	ja     24e0 <_Z22SetupPrecalculatedDatav+0x800>
    249f:	44 89 fa             	mov    %r15d,%edx
    24a2:	09 f2                	or     %esi,%edx
    24a4:	49 39 d0             	cmp    %rdx,%r8
    24a7:	74 08                	je     24b1 <_Z22SetupPrecalculatedDatav+0x7d1>
    24a9:	4c 0b 34 d0          	or     (%rax,%rdx,8),%r14
    24ad:	4c 89 34 39          	mov    %r14,(%rcx,%rdi,1)
    24b1:	41 83 f8 37          	cmp    $0x37,%r8d
    24b5:	77 29                	ja     24e0 <_Z22SetupPrecalculatedDatav+0x800>
    24b7:	89 da                	mov    %ebx,%edx
    24b9:	09 f2                	or     %esi,%edx
    24bb:	49 39 d0             	cmp    %rdx,%r8
    24be:	74 08                	je     24c8 <_Z22SetupPrecalculatedDatav+0x7e8>
    24c0:	4c 0b 34 d0          	or     (%rax,%rdx,8),%r14
    24c4:	4c 89 34 39          	mov    %r14,(%rcx,%rdi,1)
    24c8:	41 83 f8 2f          	cmp    $0x2f,%r8d
    24cc:	77 12                	ja     24e0 <_Z22SetupPrecalculatedDatav+0x800>
    24ce:	44 09 de             	or     %r11d,%esi
    24d1:	49 39 f0             	cmp    %rsi,%r8
    24d4:	74 0a                	je     24e0 <_Z22SetupPrecalculatedDatav+0x800>
    24d6:	4c 0b 34 f0          	or     (%rax,%rsi,8),%r14
    24da:	4c 89 34 39          	mov    %r14,(%rcx,%rdi,1)
    24de:	66 90                	xchg   %ax,%ax
    24e0:	41 83 fa 05          	cmp    $0x5,%r10d
    24e4:	0f 87 96 fd ff ff    	ja     2280 <_Z22SetupPrecalculatedDatav+0x5a0>
    24ea:	41 83 c2 02          	add    $0x2,%r10d
    24ee:	41 83 f9 07          	cmp    $0x7,%r9d
    24f2:	77 10                	ja     2504 <_Z22SetupPrecalculatedDatav+0x824>
    24f4:	45 09 d5             	or     %r10d,%r13d
    24f7:	4d 39 e8             	cmp    %r13,%r8
    24fa:	74 08                	je     2504 <_Z22SetupPrecalculatedDatav+0x824>
    24fc:	4e 0b 34 e8          	or     (%rax,%r13,8),%r14
    2500:	4c 89 34 39          	mov    %r14,(%rcx,%rdi,1)
    2504:	83 fd 07             	cmp    $0x7,%ebp
    2507:	77 10                	ja     2519 <_Z22SetupPrecalculatedDatav+0x839>
    2509:	45 09 d4             	or     %r10d,%r12d
    250c:	4d 39 e0             	cmp    %r12,%r8
    250f:	74 08                	je     2519 <_Z22SetupPrecalculatedDatav+0x839>
    2511:	4e 0b 34 e0          	or     (%rax,%r12,8),%r14
    2515:	4c 89 34 39          	mov    %r14,(%rcx,%rdi,1)
    2519:	41 83 f8 3f          	cmp    $0x3f,%r8d
    251d:	0f 87 5d fd ff ff    	ja     2280 <_Z22SetupPrecalculatedDatav+0x5a0>
    2523:	45 09 d7             	or     %r10d,%r15d
    2526:	4d 39 f8             	cmp    %r15,%r8
    2529:	74 08                	je     2533 <_Z22SetupPrecalculatedDatav+0x853>
    252b:	4e 0b 34 f8          	or     (%rax,%r15,8),%r14
    252f:	4c 89 34 39          	mov    %r14,(%rcx,%rdi,1)
    2533:	41 83 f8 37          	cmp    $0x37,%r8d
    2537:	0f 87 43 fd ff ff    	ja     2280 <_Z22SetupPrecalculatedDatav+0x5a0>
    253d:	44 09 d3             	or     %r10d,%ebx
    2540:	49 39 d8             	cmp    %rbx,%r8
    2543:	74 08                	je     254d <_Z22SetupPrecalculatedDatav+0x86d>
    2545:	4c 0b 34 d8          	or     (%rax,%rbx,8),%r14
    2549:	4c 89 34 39          	mov    %r14,(%rcx,%rdi,1)
    254d:	41 83 f8 2f          	cmp    $0x2f,%r8d
    2551:	0f 87 29 fd ff ff    	ja     2280 <_Z22SetupPrecalculatedDatav+0x5a0>
    2557:	45 09 d3             	or     %r10d,%r11d
    255a:	4d 39 d8             	cmp    %r11,%r8
    255d:	0f 84 1d fd ff ff    	je     2280 <_Z22SetupPrecalculatedDatav+0x5a0>
    2563:	4e 0b 34 d8          	or     (%rax,%r11,8),%r14
    2567:	4c 89 34 39          	mov    %r14,(%rcx,%rdi,1)
    256b:	e9 10 fd ff ff       	jmp    2280 <_Z22SetupPrecalculatedDatav+0x5a0>
    2570:	31 c9                	xor    %ecx,%ecx
    2572:	48 8d 3d 47 bf 01 00 	lea    0x1bf47(%rip),%rdi        # 1e4c0 <KingSafetyMask1>
    2579:	45 31 c9             	xor    %r9d,%r9d
    257c:	eb 13                	jmp    2591 <_Z22SetupPrecalculatedDatav+0x8b1>
    257e:	66 90                	xchg   %ax,%ax
    2580:	49 ff c1             	inc    %r9
    2583:	48 83 c1 08          	add    $0x8,%rcx
    2587:	49 83 f9 40          	cmp    $0x40,%r9
    258b:	0f 84 4e 01 00 00    	je     26df <_Z22SetupPrecalculatedDatav+0x9ff>
    2591:	48 c7 04 39 00 00 00 	movq   $0x0,(%rcx,%rdi,1)
    2598:	00 
    2599:	45 89 ca             	mov    %r9d,%r10d
    259c:	41 83 e2 07          	and    $0x7,%r10d
    25a0:	41 8d 72 ff          	lea    -0x1(%r10),%esi
    25a4:	44 89 cb             	mov    %r9d,%ebx
    25a7:	c1 eb 03             	shr    $0x3,%ebx
    25aa:	ff cb                	dec    %ebx
    25ac:	83 fe 07             	cmp    $0x7,%esi
    25af:	76 0f                	jbe    25c0 <_Z22SetupPrecalculatedDatav+0x8e0>
    25b1:	45 31 db             	xor    %r11d,%r11d
    25b4:	eb 6a                	jmp    2620 <_Z22SetupPrecalculatedDatav+0x940>
    25b6:	66 2e 0f 1f 84 00 00 	cs nopw 0x0(%rax,%rax,1)
    25bd:	00 00 00 
    25c0:	83 fb 07             	cmp    $0x7,%ebx
    25c3:	77 08                	ja     25cd <_Z22SetupPrecalculatedDatav+0x8ed>
    25c5:	8d 14 de             	lea    (%rsi,%rbx,8),%edx
    25c8:	49 39 d1             	cmp    %rdx,%r9
    25cb:	75 0b                	jne    25d8 <_Z22SetupPrecalculatedDatav+0x8f8>
    25cd:	45 31 db             	xor    %r11d,%r11d
    25d0:	41 83 f9 3f          	cmp    $0x3f,%r9d
    25d4:	76 10                	jbe    25e6 <_Z22SetupPrecalculatedDatav+0x906>
    25d6:	eb 48                	jmp    2620 <_Z22SetupPrecalculatedDatav+0x940>
    25d8:	4c 8b 1c d0          	mov    (%rax,%rdx,8),%r11
    25dc:	4c 89 1c 39          	mov    %r11,(%rcx,%rdi,1)
    25e0:	41 83 f9 3f          	cmp    $0x3f,%r9d
    25e4:	77 3a                	ja     2620 <_Z22SetupPrecalculatedDatav+0x940>
    25e6:	44 89 ca             	mov    %r9d,%edx
    25e9:	83 e2 38             	and    $0x38,%edx
    25ec:	09 f2                	or     %esi,%edx
    25ee:	49 39 d1             	cmp    %rdx,%r9
    25f1:	74 08                	je     25fb <_Z22SetupPrecalculatedDatav+0x91b>
    25f3:	4c 0b 1c d0          	or     (%rax,%rdx,8),%r11
    25f7:	4c 89 1c 39          	mov    %r11,(%rcx,%rdi,1)
    25fb:	41 83 f9 37          	cmp    $0x37,%r9d
    25ff:	77 1f                	ja     2620 <_Z22SetupPrecalculatedDatav+0x940>
    2601:	44 89 ca             	mov    %r9d,%edx
    2604:	83 e2 38             	and    $0x38,%edx
    2607:	01 f2                	add    %esi,%edx
    2609:	83 c2 08             	add    $0x8,%edx
    260c:	49 39 d1             	cmp    %rdx,%r9
    260f:	74 0f                	je     2620 <_Z22SetupPrecalculatedDatav+0x940>
    2611:	4c 0b 1c d0          	or     (%rax,%rdx,8),%r11
    2615:	4c 89 1c 39          	mov    %r11,(%rcx,%rdi,1)
    2619:	0f 1f 80 00 00 00 00 	nopl   0x0(%rax)
    2620:	83 fb 07             	cmp    $0x7,%ebx
    2623:	77 11                	ja     2636 <_Z22SetupPrecalculatedDatav+0x956>
    2625:	41 8d 14 da          	lea    (%r10,%rbx,8),%edx
    2629:	49 39 d1             	cmp    %rdx,%r9
    262c:	74 08                	je     2636 <_Z22SetupPrecalculatedDatav+0x956>
    262e:	4c 0b 1c d0          	or     (%rax,%rdx,8),%r11
    2632:	4c 89 1c 39          	mov    %r11,(%rcx,%rdi,1)
    2636:	41 83 f9 3f          	cmp    $0x3f,%r9d
    263a:	77 34                	ja     2670 <_Z22SetupPrecalculatedDatav+0x990>
    263c:	4c 89 ca             	mov    %r9,%rdx
    263f:	48 c1 ea 20          	shr    $0x20,%rdx
    2643:	74 08                	je     264d <_Z22SetupPrecalculatedDatav+0x96d>
    2645:	4c 0b 1c 01          	or     (%rcx,%rax,1),%r11
    2649:	4c 89 1c 39          	mov    %r11,(%rcx,%rdi,1)
    264d:	41 83 f9 37          	cmp    $0x37,%r9d
    2651:	77 1d                	ja     2670 <_Z22SetupPrecalculatedDatav+0x990>
    2653:	44 89 ca             	mov    %r9d,%edx
    2656:	83 e2 38             	and    $0x38,%edx
    2659:	44 01 d2             	add    %r10d,%edx
    265c:	83 c2 08             	add    $0x8,%edx
    265f:	49 39 d1             	cmp    %rdx,%r9
    2662:	74 0c                	je     2670 <_Z22SetupPrecalculatedDatav+0x990>
    2664:	4c 0b 1c d0          	or     (%rax,%rdx,8),%r11
    2668:	4c 89 1c 39          	mov    %r11,(%rcx,%rdi,1)
    266c:	0f 1f 40 00          	nopl   0x0(%rax)
    2670:	41 83 fa 07          	cmp    $0x7,%r10d
    2674:	0f 84 06 ff ff ff    	je     2580 <_Z22SetupPrecalculatedDatav+0x8a0>
    267a:	41 ff c2             	inc    %r10d
    267d:	83 fb 07             	cmp    $0x7,%ebx
    2680:	77 11                	ja     2693 <_Z22SetupPrecalculatedDatav+0x9b3>
    2682:	41 8d 14 da          	lea    (%r10,%rbx,8),%edx
    2686:	49 39 d1             	cmp    %rdx,%r9
    2689:	74 08                	je     2693 <_Z22SetupPrecalculatedDatav+0x9b3>
    268b:	4c 0b 1c d0          	or     (%rax,%rdx,8),%r11
    268f:	4c 89 1c 39          	mov    %r11,(%rcx,%rdi,1)
    2693:	41 83 f9 3f          	cmp    $0x3f,%r9d
    2697:	0f 87 e3 fe ff ff    	ja     2580 <_Z22SetupPrecalculatedDatav+0x8a0>
    269d:	44 89 ca             	mov    %r9d,%edx
    26a0:	83 e2 38             	and    $0x38,%edx
    26a3:	44 09 d2             	or     %r10d,%edx
    26a6:	49 39 d1             	cmp    %rdx,%r9
    26a9:	74 08                	je     26b3 <_Z22SetupPrecalculatedDatav+0x9d3>
    26ab:	4c 0b 1c d0          	or     (%rax,%rdx,8),%r11
    26af:	4c 89 1c 39          	mov    %r11,(%rcx,%rdi,1)
    26b3:	41 83 f9 37          	cmp    $0x37,%r9d
    26b7:	0f 87 c3 fe ff ff    	ja     2580 <_Z22SetupPrecalculatedDatav+0x8a0>
    26bd:	44 89 ca             	mov    %r9d,%edx
    26c0:	83 e2 38             	and    $0x38,%edx
    26c3:	44 01 d2             	add    %r10d,%edx
    26c6:	83 c2 08             	add    $0x8,%edx
    26c9:	49 39 d1             	cmp    %rdx,%r9
    26cc:	0f 84 ae fe ff ff    	je     2580 <_Z22SetupPrecalculatedDatav+0x8a0>
    26d2:	4c 0b 1c d0          	or     (%rax,%rdx,8),%r11
    26d6:	4c 89 1c 39          	mov    %r11,(%rcx,%rdi,1)
    26da:	e9 a1 fe ff ff       	jmp    2580 <_Z22SetupPrecalculatedDatav+0x8a0>
    26df:	66 0f 6f 0d 59 29 01 	movdqa 0x12959(%rip),%xmm1        # 15040 <_IO_stdin_used+0x40>
    26e6:	00 
    26e7:	66 0f 6f 25 61 29 01 	movdqa 0x12961(%rip),%xmm4        # 15050 <_IO_stdin_used+0x50>
    26ee:	00 
    26ef:	66 44 0f 6f 3d 68 29 	movdqa 0x12968(%rip),%xmm15        # 15060 <_IO_stdin_used+0x60>
    26f6:	01 00 
    26f8:	66 44 0f 6f 05 6f 29 	movdqa 0x1296f(%rip),%xmm8        # 15070 <_IO_stdin_used+0x70>
    26ff:	01 00 
    2701:	b9 0f 00 00 00       	mov    $0xf,%ecx
    2706:	66 44 0f 6f 15 01 2a 	movdqa 0x12a01(%rip),%xmm10        # 15110 <_IO_stdin_used+0x110>
    270d:	01 00 
    270f:	48 8d 1d 3a c4 01 00 	lea    0x1c43a(%rip),%rbx        # 1eb50 <last_bit>
    2716:	eb 2d                	jmp    2745 <_Z22SetupPrecalculatedDatav+0xa65>
    2718:	0f 1f 84 00 00 00 00 	nopl   0x0(%rax,%rax,1)
    271f:	00 
    2720:	66 45 0f fe c2       	paddd  %xmm10,%xmm8
    2725:	66 45 0f fe fa       	paddd  %xmm10,%xmm15
    272a:	66 41 0f fe e2       	paddd  %xmm10,%xmm4
    272f:	66 41 0f fe ca       	paddd  %xmm10,%xmm1
    2734:	48 83 c1 10          	add    $0x10,%rcx
    2738:	48 81 f9 ff ff 00 00 	cmp    $0xffff,%rcx
    273f:	0f 84 c7 09 00 00    	je     310c <_Z22SetupPrecalculatedDatav+0x142c>
    2745:	66 41 0f 6f d0       	movdqa %xmm8,%xmm2
    274a:	66 0f 72 f2 10       	pslld  $0x10,%xmm2
    274f:	66 0f 72 e2 1f       	psrad  $0x1f,%xmm2
    2754:	66 41 0f 6f c7       	movdqa %xmm15,%xmm0
    2759:	66 0f 72 f0 10       	pslld  $0x10,%xmm0
    275e:	66 0f 72 e0 1f       	psrad  $0x1f,%xmm0
    2763:	66 0f 6b d0          	packssdw %xmm0,%xmm2
    2767:	66 44 0f 6f da       	movdqa %xmm2,%xmm11
    276c:	66 0f 6f c4          	movdqa %xmm4,%xmm0
    2770:	66 0f 72 f0 10       	pslld  $0x10,%xmm0
    2775:	66 0f 72 e0 1f       	psrad  $0x1f,%xmm0
    277a:	66 0f 6f d9          	movdqa %xmm1,%xmm3
    277e:	66 0f 72 f1 10       	pslld  $0x10,%xmm1
    2783:	66 0f 72 e1 1f       	psrad  $0x1f,%xmm1
    2788:	66 0f 6b c1          	packssdw %xmm1,%xmm0
    278c:	66 44 0f 63 d8       	packsswb %xmm0,%xmm11
    2791:	66 0f 6f d3          	movdqa %xmm3,%xmm2
    2795:	66 44 0f 6f eb       	movdqa %xmm3,%xmm13
    279a:	66 0f 6f 0d de 28 01 	movdqa 0x128de(%rip),%xmm1        # 15080 <_IO_stdin_used+0x80>
    27a1:	00 
    27a2:	66 0f db d1          	pand   %xmm1,%xmm2
    27a6:	66 0f 6f c4          	movdqa %xmm4,%xmm0
    27aa:	66 0f db c1          	pand   %xmm1,%xmm0
    27ae:	66 41 0f 6f df       	movdqa %xmm15,%xmm3
    27b3:	66 0f db d9          	pand   %xmm1,%xmm3
    27b7:	66 41 0f 6f f0       	movdqa %xmm8,%xmm6
    27bc:	66 0f db f1          	pand   %xmm1,%xmm6
    27c0:	66 0f 6f ee          	movdqa %xmm6,%xmm5
    27c4:	66 44 0f 6f ce       	movdqa %xmm6,%xmm9
    27c9:	66 0f ef ff          	pxor   %xmm7,%xmm7
    27cd:	66 0f 76 ef          	pcmpeqd %xmm7,%xmm5
    27d1:	66 0f 6f cb          	movdqa %xmm3,%xmm1
    27d5:	66 0f 76 cf          	pcmpeqd %xmm7,%xmm1
    27d9:	66 0f 6b e9          	packssdw %xmm1,%xmm5
    27dd:	66 0f 6f c8          	movdqa %xmm0,%xmm1
    27e1:	66 0f 76 cf          	pcmpeqd %xmm7,%xmm1
    27e5:	66 44 0f 6f f4       	movdqa %xmm4,%xmm14
    27ea:	66 0f 6f f2          	movdqa %xmm2,%xmm6
    27ee:	66 0f 76 f7          	pcmpeqd %xmm7,%xmm6
    27f2:	66 0f 6b ce          	packssdw %xmm6,%xmm1
    27f6:	66 0f 63 e9          	packsswb %xmm1,%xmm5
    27fa:	66 41 0f 6f c8       	movdqa %xmm8,%xmm1
    27ff:	66 0f 6f 25 89 28 01 	movdqa 0x12889(%rip),%xmm4        # 15090 <_IO_stdin_used+0x90>
    2806:	00 
    2807:	66 0f db cc          	pand   %xmm4,%xmm1
    280b:	66 41 0f 6f f7       	movdqa %xmm15,%xmm6
    2810:	66 0f db f4          	pand   %xmm4,%xmm6
    2814:	66 0f 67 ce          	packuswb %xmm6,%xmm1
    2818:	66 41 0f 6f f6       	movdqa %xmm14,%xmm6
    281d:	66 0f db f4          	pand   %xmm4,%xmm6
    2821:	66 41 0f 6f fd       	movdqa %xmm13,%xmm7
    2826:	66 0f db fc          	pand   %xmm4,%xmm7
    282a:	66 0f 67 f7          	packuswb %xmm7,%xmm6
    282e:	66 0f 67 ce          	packuswb %xmm6,%xmm1
    2832:	66 0f db cd          	pand   %xmm5,%xmm1
    2836:	66 0f 6f 25 72 28 01 	movdqa 0x12872(%rip),%xmm4        # 150b0 <_IO_stdin_used+0xb0>
    283d:	00 
    283e:	66 44 0f 76 cc       	pcmpeqd %xmm4,%xmm9
    2843:	66 0f 76 dc          	pcmpeqd %xmm4,%xmm3
    2847:	66 44 0f 6b cb       	packssdw %xmm3,%xmm9
    284c:	66 0f 76 c4          	pcmpeqd %xmm4,%xmm0
    2850:	66 0f 76 d4          	pcmpeqd %xmm4,%xmm2
    2854:	66 0f 6b c2          	packssdw %xmm2,%xmm0
    2858:	66 44 0f 63 c8       	packsswb %xmm0,%xmm9
    285d:	66 44 0f 7f 4c 24 b0 	movdqa %xmm9,-0x50(%rsp)
    2864:	66 45 0f eb d9       	por    %xmm9,%xmm11
    2869:	66 44 0f eb d9       	por    %xmm1,%xmm11
    286e:	66 44 0f 7f 5c 24 40 	movdqa %xmm11,0x40(%rsp)
    2875:	66 0f 6f c1          	movdqa %xmm1,%xmm0
    2879:	66 0f 71 f0 07       	psllw  $0x7,%xmm0
    287e:	66 0f db 05 1a 28 01 	pand   0x1281a(%rip),%xmm0        # 150a0 <_IO_stdin_used+0xa0>
    2885:	00 
    2886:	66 0f ef c9          	pxor   %xmm1,%xmm1
    288a:	66 0f 64 c8          	pcmpgtb %xmm0,%xmm1
    288e:	66 0f 7f 4c 24 50    	movdqa %xmm1,0x50(%rsp)
    2894:	66 41 0f 6f c5       	movdqa %xmm13,%xmm0
    2899:	66 0f 6f 25 1f 28 01 	movdqa 0x1281f(%rip),%xmm4        # 150c0 <_IO_stdin_used+0xc0>
    28a0:	00 
    28a1:	66 0f db c4          	pand   %xmm4,%xmm0
    28a5:	66 41 0f 6f ce       	movdqa %xmm14,%xmm1
    28aa:	66 41 0f 6f d6       	movdqa %xmm14,%xmm2
    28af:	66 0f db d4          	pand   %xmm4,%xmm2
    28b3:	66 41 0f 6f df       	movdqa %xmm15,%xmm3
    28b8:	66 0f db dc          	pand   %xmm4,%xmm3
    28bc:	66 45 0f 6f f0       	movdqa %xmm8,%xmm14
    28c1:	66 41 0f 6f e8       	movdqa %xmm8,%xmm5
    28c6:	66 0f db ec          	pand   %xmm4,%xmm5
    28ca:	66 0f 6f 25 fe 27 01 	movdqa 0x127fe(%rip),%xmm4        # 150d0 <_IO_stdin_used+0xd0>
    28d1:	00 
    28d2:	66 0f 76 ec          	pcmpeqd %xmm4,%xmm5
    28d6:	66 0f 76 dc          	pcmpeqd %xmm4,%xmm3
    28da:	66 0f 6b eb          	packssdw %xmm3,%xmm5
    28de:	66 0f 76 d4          	pcmpeqd %xmm4,%xmm2
    28e2:	66 0f 76 c4          	pcmpeqd %xmm4,%xmm0
    28e6:	66 0f 6b d0          	packssdw %xmm0,%xmm2
    28ea:	66 0f 63 ea          	packsswb %xmm2,%xmm5
    28ee:	66 0f 7f 6c 24 30    	movdqa %xmm5,0x30(%rsp)
    28f4:	66 41 0f 6f c5       	movdqa %xmm13,%xmm0
    28f9:	66 0f 6f 25 df 27 01 	movdqa 0x127df(%rip),%xmm4        # 150e0 <_IO_stdin_used+0xe0>
    2900:	00 
    2901:	66 0f db c4          	pand   %xmm4,%xmm0
    2905:	66 0f 6f d1          	movdqa %xmm1,%xmm2
    2909:	66 0f db d4          	pand   %xmm4,%xmm2
    290d:	66 41 0f 6f df       	movdqa %xmm15,%xmm3
    2912:	66 0f db dc          	pand   %xmm4,%xmm3
    2916:	66 41 0f 6f e8       	movdqa %xmm8,%xmm5
    291b:	66 0f db ec          	pand   %xmm4,%xmm5
    291f:	66 0f 6f 25 c9 27 01 	movdqa 0x127c9(%rip),%xmm4        # 150f0 <_IO_stdin_used+0xf0>
    2926:	00 
    2927:	66 0f 76 ec          	pcmpeqd %xmm4,%xmm5
    292b:	66 0f 76 dc          	pcmpeqd %xmm4,%xmm3
    292f:	66 0f 6b eb          	packssdw %xmm3,%xmm5
    2933:	66 0f 76 d4          	pcmpeqd %xmm4,%xmm2
    2937:	66 0f 76 c4          	pcmpeqd %xmm4,%xmm0
    293b:	66 0f 6b d0          	packssdw %xmm0,%xmm2
    293f:	66 0f 63 ea          	packsswb %xmm2,%xmm5
    2943:	66 0f 7f 6c 24 20    	movdqa %xmm5,0x20(%rsp)
    2949:	66 41 0f 6f f5       	movdqa %xmm13,%xmm6
    294e:	66 41 0f 6f c5       	movdqa %xmm13,%xmm0
    2953:	66 0f 6f 25 a5 27 01 	movdqa 0x127a5(%rip),%xmm4        # 15100 <_IO_stdin_used+0x100>
    295a:	00 
    295b:	66 0f db c4          	pand   %xmm4,%xmm0
    295f:	66 0f 6f d1          	movdqa %xmm1,%xmm2
    2963:	66 0f db d4          	pand   %xmm4,%xmm2
    2967:	66 41 0f 6f df       	movdqa %xmm15,%xmm3
    296c:	66 0f db dc          	pand   %xmm4,%xmm3
    2970:	66 41 0f 6f e8       	movdqa %xmm8,%xmm5
    2975:	66 0f db ec          	pand   %xmm4,%xmm5
    2979:	66 41 0f 76 ea       	pcmpeqd %xmm10,%xmm5
    297e:	66 41 0f 76 da       	pcmpeqd %xmm10,%xmm3
    2983:	66 0f 6b eb          	packssdw %xmm3,%xmm5
    2987:	66 41 0f 76 d2       	pcmpeqd %xmm10,%xmm2
    298c:	66 41 0f 76 c2       	pcmpeqd %xmm10,%xmm0
    2991:	66 0f 6b d0          	packssdw %xmm0,%xmm2
    2995:	66 0f 63 ea          	packsswb %xmm2,%xmm5
    2999:	66 0f 7f 6c 24 10    	movdqa %xmm5,0x10(%rsp)
    299f:	66 41 0f 6f c5       	movdqa %xmm13,%xmm0
    29a4:	66 0f 6f 25 74 27 01 	movdqa 0x12774(%rip),%xmm4        # 15120 <_IO_stdin_used+0x120>
    29ab:	00 
    29ac:	66 0f db c4          	pand   %xmm4,%xmm0
    29b0:	66 0f 6f d1          	movdqa %xmm1,%xmm2
    29b4:	66 0f db d4          	pand   %xmm4,%xmm2
    29b8:	66 41 0f 6f df       	movdqa %xmm15,%xmm3
    29bd:	66 0f db dc          	pand   %xmm4,%xmm3
    29c1:	66 41 0f 6f e8       	movdqa %xmm8,%xmm5
    29c6:	66 0f db ec          	pand   %xmm4,%xmm5
    29ca:	66 0f 6f 25 5e 27 01 	movdqa 0x1275e(%rip),%xmm4        # 15130 <_IO_stdin_used+0x130>
    29d1:	00 
    29d2:	66 0f 76 ec          	pcmpeqd %xmm4,%xmm5
    29d6:	66 0f 76 dc          	pcmpeqd %xmm4,%xmm3
    29da:	66 0f 6b eb          	packssdw %xmm3,%xmm5
    29de:	66 0f 76 d4          	pcmpeqd %xmm4,%xmm2
    29e2:	66 0f 76 c4          	pcmpeqd %xmm4,%xmm0
    29e6:	66 0f 6b d0          	packssdw %xmm0,%xmm2
    29ea:	66 0f 63 ea          	packsswb %xmm2,%xmm5
    29ee:	66 0f 7f 2c 24       	movdqa %xmm5,(%rsp)
    29f3:	66 41 0f 6f c5       	movdqa %xmm13,%xmm0
    29f8:	66 0f 6f 25 40 27 01 	movdqa 0x12740(%rip),%xmm4        # 15140 <_IO_stdin_used+0x140>
    29ff:	00 
    2a00:	66 0f db c4          	pand   %xmm4,%xmm0
    2a04:	66 0f 6f d1          	movdqa %xmm1,%xmm2
    2a08:	66 0f db d4          	pand   %xmm4,%xmm2
    2a0c:	66 41 0f 6f df       	movdqa %xmm15,%xmm3
    2a11:	66 0f db dc          	pand   %xmm4,%xmm3
    2a15:	66 45 0f 6f c8       	movdqa %xmm8,%xmm9
    2a1a:	66 44 0f db cc       	pand   %xmm4,%xmm9
    2a1f:	66 0f 6f 25 29 27 01 	movdqa 0x12729(%rip),%xmm4        # 15150 <_IO_stdin_used+0x150>
    2a26:	00 
    2a27:	66 44 0f 76 cc       	pcmpeqd %xmm4,%xmm9
    2a2c:	66 0f 76 dc          	pcmpeqd %xmm4,%xmm3
    2a30:	66 44 0f 6b cb       	packssdw %xmm3,%xmm9
    2a35:	66 0f 76 d4          	pcmpeqd %xmm4,%xmm2
    2a39:	66 0f 76 c4          	pcmpeqd %xmm4,%xmm0
    2a3d:	66 0f 6b d0          	packssdw %xmm0,%xmm2
    2a41:	66 44 0f 63 ca       	packsswb %xmm2,%xmm9
    2a46:	66 41 0f 6f c5       	movdqa %xmm13,%xmm0
    2a4b:	66 0f 6f 25 0d 27 01 	movdqa 0x1270d(%rip),%xmm4        # 15160 <_IO_stdin_used+0x160>
    2a52:	00 
    2a53:	66 0f db c4          	pand   %xmm4,%xmm0
    2a57:	66 0f 6f d1          	movdqa %xmm1,%xmm2
    2a5b:	66 0f db d4          	pand   %xmm4,%xmm2
    2a5f:	66 41 0f 6f df       	movdqa %xmm15,%xmm3
    2a64:	66 0f db dc          	pand   %xmm4,%xmm3
    2a68:	66 44 0f db c4       	pand   %xmm4,%xmm8
    2a6d:	66 0f 6f 25 fb 26 01 	movdqa 0x126fb(%rip),%xmm4        # 15170 <_IO_stdin_used+0x170>
    2a74:	00 
    2a75:	66 44 0f 76 c4       	pcmpeqd %xmm4,%xmm8
    2a7a:	66 0f 76 dc          	pcmpeqd %xmm4,%xmm3
    2a7e:	66 44 0f 6b c3       	packssdw %xmm3,%xmm8
    2a83:	66 0f 76 d4          	pcmpeqd %xmm4,%xmm2
    2a87:	66 0f 76 c4          	pcmpeqd %xmm4,%xmm0
    2a8b:	66 0f 6b d0          	packssdw %xmm0,%xmm2
    2a8f:	66 44 0f 63 c2       	packsswb %xmm2,%xmm8
    2a94:	66 41 0f 6f c5       	movdqa %xmm13,%xmm0
    2a99:	66 0f 6f 25 df 26 01 	movdqa 0x126df(%rip),%xmm4        # 15180 <_IO_stdin_used+0x180>
    2aa0:	00 
    2aa1:	66 0f db c4          	pand   %xmm4,%xmm0
    2aa5:	66 0f 6f d1          	movdqa %xmm1,%xmm2
    2aa9:	66 0f db d4          	pand   %xmm4,%xmm2
    2aad:	66 41 0f 6f df       	movdqa %xmm15,%xmm3
    2ab2:	66 0f db dc          	pand   %xmm4,%xmm3
    2ab6:	66 45 0f 6f d6       	movdqa %xmm14,%xmm10
    2abb:	66 44 0f db d4       	pand   %xmm4,%xmm10
    2ac0:	66 0f 6f 25 c8 26 01 	movdqa 0x126c8(%rip),%xmm4        # 15190 <_IO_stdin_used+0x190>
    2ac7:	00 
    2ac8:	66 44 0f 76 d4       	pcmpeqd %xmm4,%xmm10
    2acd:	66 0f 76 dc          	pcmpeqd %xmm4,%xmm3
    2ad1:	66 44 0f 6b d3       	packssdw %xmm3,%xmm10
    2ad6:	66 0f 76 d4          	pcmpeqd %xmm4,%xmm2
    2ada:	66 0f 76 c4          	pcmpeqd %xmm4,%xmm0
    2ade:	66 0f 6b d0          	packssdw %xmm0,%xmm2
    2ae2:	66 44 0f 63 d2       	packsswb %xmm2,%xmm10
    2ae7:	66 41 0f 6f c5       	movdqa %xmm13,%xmm0
    2aec:	66 0f 6f 25 ac 26 01 	movdqa 0x126ac(%rip),%xmm4        # 151a0 <_IO_stdin_used+0x1a0>
    2af3:	00 
    2af4:	66 0f db c4          	pand   %xmm4,%xmm0
    2af8:	66 0f 6f d1          	movdqa %xmm1,%xmm2
    2afc:	66 0f db d4          	pand   %xmm4,%xmm2
    2b00:	66 41 0f 6f df       	movdqa %xmm15,%xmm3
    2b05:	66 0f db dc          	pand   %xmm4,%xmm3
    2b09:	66 41 0f 6f ee       	movdqa %xmm14,%xmm5
    2b0e:	66 0f db ec          	pand   %xmm4,%xmm5
    2b12:	66 0f 6f 25 96 26 01 	movdqa 0x12696(%rip),%xmm4        # 151b0 <_IO_stdin_used+0x1b0>
    2b19:	00 
    2b1a:	66 0f 76 ec          	pcmpeqd %xmm4,%xmm5
    2b1e:	66 0f 76 dc          	pcmpeqd %xmm4,%xmm3
    2b22:	66 0f 6b eb          	packssdw %xmm3,%xmm5
    2b26:	66 0f 76 d4          	pcmpeqd %xmm4,%xmm2
    2b2a:	66 0f 76 c4          	pcmpeqd %xmm4,%xmm0
    2b2e:	66 0f 6b d0          	packssdw %xmm0,%xmm2
    2b32:	66 0f 63 ea          	packsswb %xmm2,%xmm5
    2b36:	66 41 0f 6f c5       	movdqa %xmm13,%xmm0
    2b3b:	66 0f 6f 25 7d 26 01 	movdqa 0x1267d(%rip),%xmm4        # 151c0 <_IO_stdin_used+0x1c0>
    2b42:	00 
    2b43:	66 0f db c4          	pand   %xmm4,%xmm0
    2b47:	66 0f 6f d1          	movdqa %xmm1,%xmm2
    2b4b:	66 0f db d4          	pand   %xmm4,%xmm2
    2b4f:	66 41 0f 6f df       	movdqa %xmm15,%xmm3
    2b54:	66 0f db dc          	pand   %xmm4,%xmm3
    2b58:	66 45 0f 6f e6       	movdqa %xmm14,%xmm12
    2b5d:	66 44 0f db e4       	pand   %xmm4,%xmm12
    2b62:	66 0f 6f 25 66 26 01 	movdqa 0x12666(%rip),%xmm4        # 151d0 <_IO_stdin_used+0x1d0>
    2b69:	00 
    2b6a:	66 44 0f 76 e4       	pcmpeqd %xmm4,%xmm12
    2b6f:	66 0f 76 dc          	pcmpeqd %xmm4,%xmm3
    2b73:	66 44 0f 6b e3       	packssdw %xmm3,%xmm12
    2b78:	66 0f 76 d4          	pcmpeqd %xmm4,%xmm2
    2b7c:	66 0f 76 c4          	pcmpeqd %xmm4,%xmm0
    2b80:	66 0f 6b d0          	packssdw %xmm0,%xmm2
    2b84:	66 44 0f 63 e2       	packsswb %xmm2,%xmm12
    2b89:	66 41 0f 6f c5       	movdqa %xmm13,%xmm0
    2b8e:	66 0f 6f 25 4a 26 01 	movdqa 0x1264a(%rip),%xmm4        # 151e0 <_IO_stdin_used+0x1e0>
    2b95:	00 
    2b96:	66 0f db c4          	pand   %xmm4,%xmm0
    2b9a:	66 0f 6f d1          	movdqa %xmm1,%xmm2
    2b9e:	66 0f db d4          	pand   %xmm4,%xmm2
    2ba2:	66 41 0f 6f df       	movdqa %xmm15,%xmm3
    2ba7:	66 0f db dc          	pand   %xmm4,%xmm3
    2bab:	66 45 0f 6f ee       	movdqa %xmm14,%xmm13
    2bb0:	66 44 0f db ec       	pand   %xmm4,%xmm13
    2bb5:	66 0f 6f 25 33 26 01 	movdqa 0x12633(%rip),%xmm4        # 151f0 <_IO_stdin_used+0x1f0>
    2bbc:	00 
    2bbd:	66 44 0f 76 ec       	pcmpeqd %xmm4,%xmm13
    2bc2:	66 0f 76 dc          	pcmpeqd %xmm4,%xmm3
    2bc6:	66 44 0f 6b eb       	packssdw %xmm3,%xmm13
    2bcb:	66 0f 76 d4          	pcmpeqd %xmm4,%xmm2
    2bcf:	66 0f 76 c4          	pcmpeqd %xmm4,%xmm0
    2bd3:	66 0f 6b d0          	packssdw %xmm0,%xmm2
    2bd7:	66 44 0f 63 ea       	packsswb %xmm2,%xmm13
    2bdc:	66 0f 6f d6          	movdqa %xmm6,%xmm2
    2be0:	66 0f 6f 25 18 26 01 	movdqa 0x12618(%rip),%xmm4        # 15200 <_IO_stdin_used+0x200>
    2be7:	00 
    2be8:	66 0f db d4          	pand   %xmm4,%xmm2
    2bec:	66 41 0f 6f df       	movdqa %xmm15,%xmm3
    2bf1:	66 0f db dc          	pand   %xmm4,%xmm3
    2bf5:	66 41 0f 6f c6       	movdqa %xmm14,%xmm0
    2bfa:	66 0f db c4          	pand   %xmm4,%xmm0
    2bfe:	66 44 0f 6f 1d 09 26 	movdqa 0x12609(%rip),%xmm11        # 15210 <_IO_stdin_used+0x210>
    2c05:	01 00 
    2c07:	66 41 0f 76 c3       	pcmpeqd %xmm11,%xmm0
    2c0c:	66 41 0f 76 db       	pcmpeqd %xmm11,%xmm3
    2c11:	66 0f 6b c3          	packssdw %xmm3,%xmm0
    2c15:	66 0f 6f d9          	movdqa %xmm1,%xmm3
    2c19:	66 0f 7f 4c 24 80    	movdqa %xmm1,-0x80(%rsp)
    2c1f:	66 0f db dc          	pand   %xmm4,%xmm3
    2c23:	66 41 0f 76 db       	pcmpeqd %xmm11,%xmm3
    2c28:	66 41 0f 76 d3       	pcmpeqd %xmm11,%xmm2
    2c2d:	66 0f 6b da          	packssdw %xmm2,%xmm3
    2c31:	66 0f 63 c3          	packsswb %xmm3,%xmm0
    2c35:	66 41 0f 6f df       	movdqa %xmm15,%xmm3
    2c3a:	66 44 0f 6f 1d dd 25 	movdqa 0x125dd(%rip),%xmm11        # 15220 <_IO_stdin_used+0x220>
    2c41:	01 00 
    2c43:	66 41 0f db db       	pand   %xmm11,%xmm3
    2c48:	66 41 0f 6f d6       	movdqa %xmm14,%xmm2
    2c4d:	66 41 0f db d3       	pand   %xmm11,%xmm2
    2c52:	66 0f 6f 3d d6 25 01 	movdqa 0x125d6(%rip),%xmm7        # 15230 <_IO_stdin_used+0x230>
    2c59:	00 
    2c5a:	66 0f 76 d7          	pcmpeqd %xmm7,%xmm2
    2c5e:	66 0f 76 df          	pcmpeqd %xmm7,%xmm3
    2c62:	66 0f 6b d3          	packssdw %xmm3,%xmm2
    2c66:	66 0f 6f de          	movdqa %xmm6,%xmm3
    2c6a:	66 41 0f db db       	pand   %xmm11,%xmm3
    2c6f:	66 41 0f db cb       	pand   %xmm11,%xmm1
    2c74:	66 0f 76 cf          	pcmpeqd %xmm7,%xmm1
    2c78:	66 0f 76 df          	pcmpeqd %xmm7,%xmm3
    2c7c:	66 0f 6b cb          	packssdw %xmm3,%xmm1
    2c80:	66 0f 63 d1          	packsswb %xmm1,%xmm2
    2c84:	66 44 0f 7f 7c 24 d0 	movdqa %xmm15,-0x30(%rsp)
    2c8b:	66 44 0f 6f 1d ac 25 	movdqa 0x125ac(%rip),%xmm11        # 15240 <_IO_stdin_used+0x240>
    2c92:	01 00 
    2c94:	66 45 0f db fb       	pand   %xmm11,%xmm15
    2c99:	66 44 0f 7f 74 24 c0 	movdqa %xmm14,-0x40(%rsp)
    2ca0:	66 41 0f 6f de       	movdqa %xmm14,%xmm3
    2ca5:	66 41 0f db db       	pand   %xmm11,%xmm3
    2caa:	66 44 0f 6f 35 9d 25 	movdqa 0x1259d(%rip),%xmm14        # 15250 <_IO_stdin_used+0x250>
    2cb1:	01 00 
    2cb3:	66 41 0f 76 de       	pcmpeqd %xmm14,%xmm3
    2cb8:	66 45 0f 76 fe       	pcmpeqd %xmm14,%xmm15
    2cbd:	66 41 0f 6b df       	packssdw %xmm15,%xmm3
    2cc2:	66 0f 7f 74 24 a0    	movdqa %xmm6,-0x60(%rsp)
    2cc8:	66 41 0f db f3       	pand   %xmm11,%xmm6
    2ccd:	66 0f 6f 4c 24 80    	movdqa -0x80(%rsp),%xmm1
    2cd3:	66 41 0f db cb       	pand   %xmm11,%xmm1
    2cd8:	66 41 0f 76 ce       	pcmpeqd %xmm14,%xmm1
    2cdd:	66 41 0f 76 f6       	pcmpeqd %xmm14,%xmm6
    2ce2:	66 0f 6b ce          	packssdw %xmm6,%xmm1
    2ce6:	66 0f 63 d9          	packsswb %xmm1,%xmm3
    2cea:	66 0f 6f 74 24 30    	movdqa 0x30(%rsp),%xmm6
    2cf0:	66 0f 6f ce          	movdqa %xmm6,%xmm1
    2cf4:	66 44 0f 6f 74 24 20 	movdqa 0x20(%rsp),%xmm14
    2cfb:	66 41 0f eb ce       	por    %xmm14,%xmm1
    2d00:	66 0f 6f 7c 24 10    	movdqa 0x10(%rsp),%xmm7
    2d06:	66 0f eb cf          	por    %xmm7,%xmm1
    2d0a:	66 0f eb 4c 24 40    	por    0x40(%rsp),%xmm1
    2d10:	66 44 0f 6f 3c 24    	movdqa (%rsp),%xmm15
    2d16:	66 41 0f 6f e7       	movdqa %xmm15,%xmm4
    2d1b:	66 41 0f eb e1       	por    %xmm9,%xmm4
    2d20:	66 41 0f eb e0       	por    %xmm8,%xmm4
    2d25:	66 41 0f eb e2       	por    %xmm10,%xmm4
    2d2a:	66 0f eb e1          	por    %xmm1,%xmm4
    2d2e:	66 44 0f 6f dd       	movdqa %xmm5,%xmm11
    2d33:	66 45 0f eb dc       	por    %xmm12,%xmm11
    2d38:	66 45 0f eb dd       	por    %xmm13,%xmm11
    2d3d:	66 44 0f eb d8       	por    %xmm0,%xmm11
    2d42:	66 44 0f eb da       	por    %xmm2,%xmm11
    2d47:	66 44 0f eb dc       	por    %xmm4,%xmm11
    2d4c:	66 44 0f eb db       	por    %xmm3,%xmm11
    2d51:	66 0f 6f cb          	movdqa %xmm3,%xmm1
    2d55:	66 0f df 0d 03 25 01 	pandn  0x12503(%rip),%xmm1        # 15260 <_IO_stdin_used+0x260>
    2d5c:	00 
    2d5d:	66 0f db 1d 0b 25 01 	pand   0x1250b(%rip),%xmm3        # 15270 <_IO_stdin_used+0x270>
    2d64:	00 
    2d65:	66 0f eb d9          	por    %xmm1,%xmm3
    2d69:	66 0f 6f ca          	movdqa %xmm2,%xmm1
    2d6d:	66 0f df cb          	pandn  %xmm3,%xmm1
    2d71:	66 0f db 15 07 25 01 	pand   0x12507(%rip),%xmm2        # 15280 <_IO_stdin_used+0x280>
    2d78:	00 
    2d79:	66 0f eb d1          	por    %xmm1,%xmm2
    2d7d:	66 0f 6f c8          	movdqa %xmm0,%xmm1
    2d81:	66 0f df ca          	pandn  %xmm2,%xmm1
    2d85:	66 0f 6f 54 24 50    	movdqa 0x50(%rsp),%xmm2
    2d8b:	66 0f db 05 fd 24 01 	pand   0x124fd(%rip),%xmm0        # 15290 <_IO_stdin_used+0x290>
    2d92:	00 
    2d93:	66 0f eb c1          	por    %xmm1,%xmm0
    2d97:	66 41 0f 6f cd       	movdqa %xmm13,%xmm1
    2d9c:	66 0f df c8          	pandn  %xmm0,%xmm1
    2da0:	66 44 0f db 2d f7 24 	pand   0x124f7(%rip),%xmm13        # 152a0 <_IO_stdin_used+0x2a0>
    2da7:	01 00 
    2da9:	66 44 0f eb e9       	por    %xmm1,%xmm13
    2dae:	66 41 0f 6f c4       	movdqa %xmm12,%xmm0
    2db3:	66 41 0f df c5       	pandn  %xmm13,%xmm0
    2db8:	66 44 0f db 25 ef 24 	pand   0x124ef(%rip),%xmm12        # 152b0 <_IO_stdin_used+0x2b0>
    2dbf:	01 00 
    2dc1:	66 44 0f eb e0       	por    %xmm0,%xmm12
    2dc6:	66 0f 6f c5          	movdqa %xmm5,%xmm0
    2dca:	66 41 0f df c4       	pandn  %xmm12,%xmm0
    2dcf:	66 0f db 2d e9 24 01 	pand   0x124e9(%rip),%xmm5        # 152c0 <_IO_stdin_used+0x2c0>
    2dd6:	00 
    2dd7:	66 0f eb e8          	por    %xmm0,%xmm5
    2ddb:	66 41 0f 6f c2       	movdqa %xmm10,%xmm0
    2de0:	66 0f df c5          	pandn  %xmm5,%xmm0
    2de4:	66 44 0f db 15 e3 24 	pand   0x124e3(%rip),%xmm10        # 152d0 <_IO_stdin_used+0x2d0>
    2deb:	01 00 
    2ded:	66 44 0f eb d0       	por    %xmm0,%xmm10
    2df2:	66 41 0f 6f c0       	movdqa %xmm8,%xmm0
    2df7:	66 41 0f df c2       	pandn  %xmm10,%xmm0
    2dfc:	66 44 0f db 05 db 24 	pand   0x124db(%rip),%xmm8        # 152e0 <_IO_stdin_used+0x2e0>
    2e03:	01 00 
    2e05:	66 44 0f eb c0       	por    %xmm0,%xmm8
    2e0a:	66 41 0f 6f c1       	movdqa %xmm9,%xmm0
    2e0f:	66 41 0f df c0       	pandn  %xmm8,%xmm0
    2e14:	66 44 0f db 0d d3 24 	pand   0x124d3(%rip),%xmm9        # 152f0 <_IO_stdin_used+0x2f0>
    2e1b:	01 00 
    2e1d:	66 44 0f eb c8       	por    %xmm0,%xmm9
    2e22:	66 41 0f 6f cf       	movdqa %xmm15,%xmm1
    2e27:	66 41 0f 6f c7       	movdqa %xmm15,%xmm0
    2e2c:	66 41 0f df c1       	pandn  %xmm9,%xmm0
    2e31:	66 0f db 0d c7 24 01 	pand   0x124c7(%rip),%xmm1        # 15300 <_IO_stdin_used+0x300>
    2e38:	00 
    2e39:	66 0f eb c8          	por    %xmm0,%xmm1
    2e3d:	66 0f 6f d9          	movdqa %xmm1,%xmm3
    2e41:	66 0f 6f cf          	movdqa %xmm7,%xmm1
    2e45:	66 0f 6f c7          	movdqa %xmm7,%xmm0
    2e49:	66 0f df c3          	pandn  %xmm3,%xmm0
    2e4d:	66 0f db 0d bb 24 01 	pand   0x124bb(%rip),%xmm1        # 15310 <_IO_stdin_used+0x310>
    2e54:	00 
    2e55:	66 0f eb c8          	por    %xmm0,%xmm1
    2e59:	66 0f 6f d9          	movdqa %xmm1,%xmm3
    2e5d:	66 41 0f 6f ce       	movdqa %xmm14,%xmm1
    2e62:	66 41 0f 6f c6       	movdqa %xmm14,%xmm0
    2e67:	66 0f df c3          	pandn  %xmm3,%xmm0
    2e6b:	66 0f db 0d ad 24 01 	pand   0x124ad(%rip),%xmm1        # 15320 <_IO_stdin_used+0x320>
    2e72:	00 
    2e73:	66 0f eb c8          	por    %xmm0,%xmm1
    2e77:	66 0f 6f d9          	movdqa %xmm1,%xmm3
    2e7b:	66 0f 6f ce          	movdqa %xmm6,%xmm1
    2e7f:	66 0f 6f c6          	movdqa %xmm6,%xmm0
    2e83:	66 0f df c3          	pandn  %xmm3,%xmm0
    2e87:	66 0f db 0d a1 24 01 	pand   0x124a1(%rip),%xmm1        # 15330 <_IO_stdin_used+0x330>
    2e8e:	00 
    2e8f:	66 0f eb c8          	por    %xmm0,%xmm1
    2e93:	66 0f 6f d9          	movdqa %xmm1,%xmm3
    2e97:	66 0f 6f 4c 24 b0    	movdqa -0x50(%rsp),%xmm1
    2e9d:	66 0f 6f c1          	movdqa %xmm1,%xmm0
    2ea1:	66 0f df c3          	pandn  %xmm3,%xmm0
    2ea5:	66 0f f8 c1          	psubb  %xmm1,%xmm0
    2ea9:	66 0f df d0          	pandn  %xmm0,%xmm2
    2ead:	66 44 0f 7f 5c 24 60 	movdqa %xmm11,0x60(%rsp)
    2eb4:	f6 44 24 60 01       	testb  $0x1,0x60(%rsp)
    2eb9:	66 0f 7e d2          	movd   %xmm2,%edx
    2ebd:	74 04                	je     2ec3 <_Z22SetupPrecalculatedDatav+0x11e3>
    2ebf:	88 54 0b f1          	mov    %dl,-0xf(%rbx,%rcx,1)
    2ec3:	66 44 0f 7e de       	movd   %xmm11,%esi
    2ec8:	89 f7                	mov    %esi,%edi
    2eca:	c1 ef 08             	shr    $0x8,%edi
    2ecd:	40 f6 c7 01          	test   $0x1,%dil
    2ed1:	74 04                	je     2ed7 <_Z22SetupPrecalculatedDatav+0x11f7>
    2ed3:	88 74 0b f2          	mov    %dh,-0xe(%rbx,%rcx,1)
    2ed7:	89 f7                	mov    %esi,%edi
    2ed9:	c1 ef 10             	shr    $0x10,%edi
    2edc:	40 f6 c7 01          	test   $0x1,%dil
    2ee0:	66 0f 6f 4c 24 a0    	movdqa -0x60(%rsp),%xmm1
    2ee6:	66 0f 6f 64 24 80    	movdqa -0x80(%rsp),%xmm4
    2eec:	66 44 0f 6f 7c 24 d0 	movdqa -0x30(%rsp),%xmm15
    2ef3:	66 44 0f 6f 44 24 c0 	movdqa -0x40(%rsp),%xmm8
    2efa:	66 44 0f 6f 15 0d 22 	movdqa 0x1220d(%rip),%xmm10        # 15110 <_IO_stdin_used+0x110>
    2f01:	01 00 
    2f03:	0f 84 07 01 00 00    	je     3010 <_Z22SetupPrecalculatedDatav+0x1330>
    2f09:	89 d7                	mov    %edx,%edi
    2f0b:	c1 ef 10             	shr    $0x10,%edi
    2f0e:	40 88 7c 0b f3       	mov    %dil,-0xd(%rbx,%rcx,1)
    2f13:	c1 ee 18             	shr    $0x18,%esi
    2f16:	40 f6 c6 01          	test   $0x1,%sil
    2f1a:	0f 85 fd 00 00 00    	jne    301d <_Z22SetupPrecalculatedDatav+0x133d>
    2f20:	66 41 0f c5 f3 02    	pextrw $0x2,%xmm11,%esi
    2f26:	66 0f c5 d2 02       	pextrw $0x2,%xmm2,%edx
    2f2b:	40 f6 c6 01          	test   $0x1,%sil
    2f2f:	0f 84 04 01 00 00    	je     3039 <_Z22SetupPrecalculatedDatav+0x1359>
    2f35:	88 54 0b f5          	mov    %dl,-0xb(%rbx,%rcx,1)
    2f39:	c1 ee 08             	shr    $0x8,%esi
    2f3c:	40 f6 c6 01          	test   $0x1,%sil
    2f40:	0f 85 00 01 00 00    	jne    3046 <_Z22SetupPrecalculatedDatav+0x1366>
    2f46:	66 41 0f c5 f3 03    	pextrw $0x3,%xmm11,%esi
    2f4c:	66 0f c5 d2 03       	pextrw $0x3,%xmm2,%edx
    2f51:	40 f6 c6 01          	test   $0x1,%sil
    2f55:	0f 84 04 01 00 00    	je     305f <_Z22SetupPrecalculatedDatav+0x137f>
    2f5b:	88 54 0b f7          	mov    %dl,-0x9(%rbx,%rcx,1)
    2f5f:	c1 ee 08             	shr    $0x8,%esi
    2f62:	40 f6 c6 01          	test   $0x1,%sil
    2f66:	0f 85 00 01 00 00    	jne    306c <_Z22SetupPrecalculatedDatav+0x138c>
    2f6c:	66 41 0f c5 f3 04    	pextrw $0x4,%xmm11,%esi
    2f72:	66 0f c5 d2 04       	pextrw $0x4,%xmm2,%edx
    2f77:	40 f6 c6 01          	test   $0x1,%sil
    2f7b:	0f 84 04 01 00 00    	je     3085 <_Z22SetupPrecalculatedDatav+0x13a5>
    2f81:	88 54 0b f9          	mov    %dl,-0x7(%rbx,%rcx,1)
    2f85:	c1 ee 08             	shr    $0x8,%esi
    2f88:	40 f6 c6 01          	test   $0x1,%sil
    2f8c:	0f 85 00 01 00 00    	jne    3092 <_Z22SetupPrecalculatedDatav+0x13b2>
    2f92:	66 41 0f c5 f3 05    	pextrw $0x5,%xmm11,%esi
    2f98:	66 0f c5 d2 05       	pextrw $0x5,%xmm2,%edx
    2f9d:	40 f6 c6 01          	test   $0x1,%sil
    2fa1:	0f 84 04 01 00 00    	je     30ab <_Z22SetupPrecalculatedDatav+0x13cb>
    2fa7:	88 54 0b fb          	mov    %dl,-0x5(%rbx,%rcx,1)
    2fab:	c1 ee 08             	shr    $0x8,%esi
    2fae:	40 f6 c6 01          	test   $0x1,%sil
    2fb2:	0f 85 00 01 00 00    	jne    30b8 <_Z22SetupPrecalculatedDatav+0x13d8>
    2fb8:	66 41 0f c5 f3 06    	pextrw $0x6,%xmm11,%esi
    2fbe:	66 0f c5 d2 06       	pextrw $0x6,%xmm2,%edx
    2fc3:	40 f6 c6 01          	test   $0x1,%sil
    2fc7:	0f 84 04 01 00 00    	je     30d1 <_Z22SetupPrecalculatedDatav+0x13f1>
    2fcd:	88 54 0b fd          	mov    %dl,-0x3(%rbx,%rcx,1)
    2fd1:	c1 ee 08             	shr    $0x8,%esi
    2fd4:	40 f6 c6 01          	test   $0x1,%sil
    2fd8:	0f 85 00 01 00 00    	jne    30de <_Z22SetupPrecalculatedDatav+0x13fe>
    2fde:	66 41 0f c5 f3 07    	pextrw $0x7,%xmm11,%esi
    2fe4:	66 0f c5 d2 07       	pextrw $0x7,%xmm2,%edx
    2fe9:	40 f6 c6 01          	test   $0x1,%sil
    2fed:	0f 84 04 01 00 00    	je     30f7 <_Z22SetupPrecalculatedDatav+0x1417>
    2ff3:	88 54 0b ff          	mov    %dl,-0x1(%rbx,%rcx,1)
    2ff7:	c1 ee 08             	shr    $0x8,%esi
    2ffa:	40 f6 c6 01          	test   $0x1,%sil
    2ffe:	0f 84 1c f7 ff ff    	je     2720 <_Z22SetupPrecalculatedDatav+0xa40>
    3004:	e9 fb 00 00 00       	jmp    3104 <_Z22SetupPrecalculatedDatav+0x1424>
    3009:	0f 1f 80 00 00 00 00 	nopl   0x0(%rax)
    3010:	c1 ee 18             	shr    $0x18,%esi
    3013:	40 f6 c6 01          	test   $0x1,%sil
    3017:	0f 84 03 ff ff ff    	je     2f20 <_Z22SetupPrecalculatedDatav+0x1240>
    301d:	c1 ea 18             	shr    $0x18,%edx
    3020:	88 54 0b f4          	mov    %dl,-0xc(%rbx,%rcx,1)
    3024:	66 41 0f c5 f3 02    	pextrw $0x2,%xmm11,%esi
    302a:	66 0f c5 d2 02       	pextrw $0x2,%xmm2,%edx
    302f:	40 f6 c6 01          	test   $0x1,%sil
    3033:	0f 85 fc fe ff ff    	jne    2f35 <_Z22SetupPrecalculatedDatav+0x1255>
    3039:	c1 ee 08             	shr    $0x8,%esi
    303c:	40 f6 c6 01          	test   $0x1,%sil
    3040:	0f 84 00 ff ff ff    	je     2f46 <_Z22SetupPrecalculatedDatav+0x1266>
    3046:	88 74 0b f6          	mov    %dh,-0xa(%rbx,%rcx,1)
    304a:	66 41 0f c5 f3 03    	pextrw $0x3,%xmm11,%esi
    3050:	66 0f c5 d2 03       	pextrw $0x3,%xmm2,%edx
    3055:	40 f6 c6 01          	test   $0x1,%sil
    3059:	0f 85 fc fe ff ff    	jne    2f5b <_Z22SetupPrecalculatedDatav+0x127b>
    305f:	c1 ee 08             	shr    $0x8,%esi
    3062:	40 f6 c6 01          	test   $0x1,%sil
    3066:	0f 84 00 ff ff ff    	je     2f6c <_Z22SetupPrecalculatedDatav+0x128c>
    306c:	88 74 0b f8          	mov    %dh,-0x8(%rbx,%rcx,1)
    3070:	66 41 0f c5 f3 04    	pextrw $0x4,%xmm11,%esi
    3076:	66 0f c5 d2 04       	pextrw $0x4,%xmm2,%edx
    307b:	40 f6 c6 01          	test   $0x1,%sil
    307f:	0f 85 fc fe ff ff    	jne    2f81 <_Z22SetupPrecalculatedDatav+0x12a1>
    3085:	c1 ee 08             	shr    $0x8,%esi
    3088:	40 f6 c6 01          	test   $0x1,%sil
    308c:	0f 84 00 ff ff ff    	je     2f92 <_Z22SetupPrecalculatedDatav+0x12b2>
    3092:	88 74 0b fa          	mov    %dh,-0x6(%rbx,%rcx,1)
    3096:	66 41 0f c5 f3 05    	pextrw $0x5,%xmm11,%esi
    309c:	66 0f c5 d2 05       	pextrw $0x5,%xmm2,%edx
    30a1:	40 f6 c6 01          	test   $0x1,%sil
    30a5:	0f 85 fc fe ff ff    	jne    2fa7 <_Z22SetupPrecalculatedDatav+0x12c7>
    30ab:	c1 ee 08             	shr    $0x8,%esi
    30ae:	40 f6 c6 01          	test   $0x1,%sil
    30b2:	0f 84 00 ff ff ff    	je     2fb8 <_Z22SetupPrecalculatedDatav+0x12d8>
    30b8:	88 74 0b fc          	mov    %dh,-0x4(%rbx,%rcx,1)
    30bc:	66 41 0f c5 f3 06    	pextrw $0x6,%xmm11,%esi
    30c2:	66 0f c5 d2 06       	pextrw $0x6,%xmm2,%edx
    30c7:	40 f6 c6 01          	test   $0x1,%sil
    30cb:	0f 85 fc fe ff ff    	jne    2fcd <_Z22SetupPrecalculatedDatav+0x12ed>
    30d1:	c1 ee 08             	shr    $0x8,%esi
    30d4:	40 f6 c6 01          	test   $0x1,%sil
    30d8:	0f 84 00 ff ff ff    	je     2fde <_Z22SetupPrecalculatedDatav+0x12fe>
    30de:	88 74 0b fe          	mov    %dh,-0x2(%rbx,%rcx,1)
    30e2:	66 41 0f c5 f3 07    	pextrw $0x7,%xmm11,%esi
    30e8:	66 0f c5 d2 07       	pextrw $0x7,%xmm2,%edx
    30ed:	40 f6 c6 01          	test   $0x1,%sil
    30f1:	0f 85 fc fe ff ff    	jne    2ff3 <_Z22SetupPrecalculatedDatav+0x1313>
    30f7:	c1 ee 08             	shr    $0x8,%esi
    30fa:	40 f6 c6 01          	test   $0x1,%sil
    30fe:	0f 84 1c f6 ff ff    	je     2720 <_Z22SetupPrecalculatedDatav+0xa40>
    3104:	88 34 0b             	mov    %dh,(%rbx,%rcx,1)
    3107:	e9 14 f6 ff ff       	jmp    2720 <_Z22SetupPrecalculatedDatav+0xa40>
    310c:	48 b9 0f 0f 0f 0f 0f 	movabs $0xf0f0f0f0f0f0f0f,%rcx
    3113:	0f 0f 0f 
    3116:	48 89 8b f0 ff 00 00 	mov    %rcx,0xfff0(%rbx)
    311d:	c7 83 f8 ff 00 00 0f 	movl   $0xf0f0f0f,0xfff8(%rbx)
    3124:	0f 0f 0f 
    3127:	66 c7 83 fc ff 00 00 	movw   $0xf0f,0xfffc(%rbx)
    312e:	0f 0f 
    3130:	c6 83 fe ff 00 00 0f 	movb   $0xf,0xfffe(%rbx)
    3137:	31 c9                	xor    %ecx,%ecx
    3139:	4c 8d 0d c0 73 01 00 	lea    0x173c0(%rip),%r9        # 1a500 <PawnAttacksBlack>
    3140:	4c 8d 15 b9 75 01 00 	lea    0x175b9(%rip),%r10        # 1a700 <PawnAttacksWhite>
    3147:	4c 8d 1d b2 77 01 00 	lea    0x177b2(%rip),%r11        # 1a900 <PawnMovesBlack>
    314e:	48 8d 1d ab 79 01 00 	lea    0x179ab(%rip),%rbx        # 1ab00 <PawnMovesWhite>
    3155:	45 31 f6             	xor    %r14d,%r14d
    3158:	eb 26                	jmp    3180 <_Z22SetupPrecalculatedDatav+0x14a0>
    315a:	48 8d 34 0b          	lea    (%rbx,%rcx,1),%rsi
    315e:	49 8d 7e f0          	lea    -0x10(%r14),%rdi
    3162:	4c 89 c2             	mov    %r8,%rdx
    3165:	48 0b 14 f8          	or     (%rax,%rdi,8),%rdx
    3169:	48 89 16             	mov    %rdx,(%rsi)
    316c:	49 ff c6             	inc    %r14
    316f:	48 83 c1 08          	add    $0x8,%rcx
    3173:	48 81 f9 00 02 00 00 	cmp    $0x200,%rcx
    317a:	0f 84 dc 00 00 00    	je     325c <_Z22SetupPrecalculatedDatav+0x157c>
    3180:	4a c7 04 09 00 00 00 	movq   $0x0,(%rcx,%r9,1)
    3187:	00 
    3188:	4a c7 04 11 00 00 00 	movq   $0x0,(%rcx,%r10,1)
    318f:	00 
    3190:	4a c7 04 19 00 00 00 	movq   $0x0,(%rcx,%r11,1)
    3197:	00 
    3198:	48 c7 04 19 00 00 00 	movq   $0x0,(%rcx,%rbx,1)
    319f:	00 
    31a0:	44 89 f7             	mov    %r14d,%edi
    31a3:	83 e7 07             	and    $0x7,%edi
    31a6:	74 28                	je     31d0 <_Z22SetupPrecalculatedDatav+0x14f0>
    31a8:	49 83 fe 37          	cmp    $0x37,%r14
    31ac:	77 32                	ja     31e0 <_Z22SetupPrecalculatedDatav+0x1500>
    31ae:	48 8b 54 01 38       	mov    0x38(%rcx,%rax,1),%rdx
    31b3:	4a 89 14 09          	mov    %rdx,(%rcx,%r9,1)
    31b7:	49 83 fe 08          	cmp    $0x8,%r14
    31bb:	73 25                	jae    31e2 <_Z22SetupPrecalculatedDatav+0x1502>
    31bd:	31 f6                	xor    %esi,%esi
    31bf:	83 ff 07             	cmp    $0x7,%edi
    31c2:	74 4e                	je     3212 <_Z22SetupPrecalculatedDatav+0x1532>
    31c4:	eb 2a                	jmp    31f0 <_Z22SetupPrecalculatedDatav+0x1510>
    31c6:	66 2e 0f 1f 84 00 00 	cs nopw 0x0(%rax,%rax,1)
    31cd:	00 00 00 
    31d0:	31 f6                	xor    %esi,%esi
    31d2:	31 d2                	xor    %edx,%edx
    31d4:	49 83 fe 37          	cmp    $0x37,%r14
    31d8:	77 2f                	ja     3209 <_Z22SetupPrecalculatedDatav+0x1529>
    31da:	eb 1a                	jmp    31f6 <_Z22SetupPrecalculatedDatav+0x1516>
    31dc:	0f 1f 40 00          	nopl   0x0(%rax)
    31e0:	31 d2                	xor    %edx,%edx
    31e2:	48 8b 74 01 b8       	mov    -0x48(%rcx,%rax,1),%rsi
    31e7:	4a 89 34 11          	mov    %rsi,(%rcx,%r10,1)
    31eb:	83 ff 07             	cmp    $0x7,%edi
    31ee:	74 22                	je     3212 <_Z22SetupPrecalculatedDatav+0x1532>
    31f0:	49 83 fe 37          	cmp    $0x37,%r14
    31f4:	77 13                	ja     3209 <_Z22SetupPrecalculatedDatav+0x1529>
    31f6:	48 0b 54 01 48       	or     0x48(%rcx,%rax,1),%rdx
    31fb:	4a 89 14 09          	mov    %rdx,(%rcx,%r9,1)
    31ff:	49 83 fe 08          	cmp    $0x8,%r14
    3203:	0f 82 63 ff ff ff    	jb     316c <_Z22SetupPrecalculatedDatav+0x148c>
    3209:	48 0b 74 01 c8       	or     -0x38(%rcx,%rax,1),%rsi
    320e:	4a 89 34 11          	mov    %rsi,(%rcx,%r10,1)
    3212:	49 83 fe 08          	cmp    $0x8,%r14
    3216:	0f 82 50 ff ff ff    	jb     316c <_Z22SetupPrecalculatedDatav+0x148c>
    321c:	44 89 f6             	mov    %r14d,%esi
    321f:	c1 ee 03             	shr    $0x3,%esi
    3222:	83 fe 07             	cmp    $0x7,%esi
    3225:	0f 84 41 ff ff ff    	je     316c <_Z22SetupPrecalculatedDatav+0x148c>
    322b:	4c 8b 44 01 c0       	mov    -0x40(%rcx,%rax,1),%r8
    3230:	48 8b 54 01 40       	mov    0x40(%rcx,%rax,1),%rdx
    3235:	4a 89 14 19          	mov    %rdx,(%rcx,%r11,1)
    3239:	4c 89 04 19          	mov    %r8,(%rcx,%rbx,1)
    323d:	83 fe 06             	cmp    $0x6,%esi
    3240:	0f 84 14 ff ff ff    	je     315a <_Z22SetupPrecalculatedDatav+0x147a>
    3246:	83 fe 01             	cmp    $0x1,%esi
    3249:	0f 85 1d ff ff ff    	jne    316c <_Z22SetupPrecalculatedDatav+0x148c>
    324f:	4b 8d 34 f3          	lea    (%r11,%r14,8),%rsi
    3253:	49 8d 7e 10          	lea    0x10(%r14),%rdi
    3257:	e9 09 ff ff ff       	jmp    3165 <_Z22SetupPrecalculatedDatav+0x1485>
    325c:	48 8d 0d 9d 6e 01 00 	lea    0x16e9d(%rip),%rcx        # 1a100 <KnightMoves>
    3263:	45 31 c9             	xor    %r9d,%r9d
    3266:	eb 23                	jmp    328b <_Z22SetupPrecalculatedDatav+0x15ab>
    3268:	0f 1f 84 00 00 00 00 	nopl   0x0(%rax,%rax,1)
    326f:	00 
    3270:	4c 01 ca             	add    %r9,%rdx
    3273:	4c 0b 14 d0          	or     (%rax,%rdx,8),%r10
    3277:	4c 89 11             	mov    %r10,(%rcx)
    327a:	49 ff c1             	inc    %r9
    327d:	48 83 c1 08          	add    $0x8,%rcx
    3281:	49 83 f9 40          	cmp    $0x40,%r9
    3285:	0f 84 e1 00 00 00    	je     336c <_Z22SetupPrecalculatedDatav+0x168c>
    328b:	45 89 cb             	mov    %r9d,%r11d
    328e:	49 83 f9 07          	cmp    $0x7,%r9
    3292:	77 2c                	ja     32c0 <_Z22SetupPrecalculatedDatav+0x15e0>
    3294:	45 31 d2             	xor    %r10d,%r10d
    3297:	45 85 db             	test   %r11d,%r11d
    329a:	74 13                	je     32af <_Z22SetupPrecalculatedDatav+0x15cf>
    329c:	4e 0b 54 c8 78       	or     0x78(%rax,%r9,8),%r10
    32a1:	4c 89 11             	mov    %r10,(%rcx)
    32a4:	ba 06 00 00 00       	mov    $0x6,%edx
    32a9:	41 83 fb 07          	cmp    $0x7,%r11d
    32ad:	74 c1                	je     3270 <_Z22SetupPrecalculatedDatav+0x1590>
    32af:	4e 0b 94 c8 88 00 00 	or     0x88(%rax,%r9,8),%r10
    32b6:	00 
    32b7:	4c 89 11             	mov    %r10,(%rcx)
    32ba:	e9 87 00 00 00       	jmp    3346 <_Z22SetupPrecalculatedDatav+0x1666>
    32bf:	90                   	nop
    32c0:	41 83 e3 07          	and    $0x7,%r11d
    32c4:	49 83 f9 10          	cmp    $0x10,%r9
    32c8:	72 26                	jb     32f0 <_Z22SetupPrecalculatedDatav+0x1610>
    32ca:	45 85 db             	test   %r11d,%r11d
    32cd:	74 33                	je     3302 <_Z22SetupPrecalculatedDatav+0x1622>
    32cf:	4e 8b 94 c8 78 ff ff 	mov    -0x88(%rax,%r9,8),%r10
    32d6:	ff 
    32d7:	4c 89 11             	mov    %r10,(%rcx)
    32da:	41 83 fb 07          	cmp    $0x7,%r11d
    32de:	75 25                	jne    3305 <_Z22SetupPrecalculatedDatav+0x1625>
    32e0:	41 bb 07 00 00 00    	mov    $0x7,%r11d
    32e6:	48 c7 c2 f6 ff ff ff 	mov    $0xfffffffffffffff6,%rdx
    32ed:	eb 39                	jmp    3328 <_Z22SetupPrecalculatedDatav+0x1648>
    32ef:	90                   	nop
    32f0:	45 31 d2             	xor    %r10d,%r10d
    32f3:	48 c7 c2 fa ff ff ff 	mov    $0xfffffffffffffffa,%rdx
    32fa:	41 83 fb 02          	cmp    $0x2,%r11d
    32fe:	73 1a                	jae    331a <_Z22SetupPrecalculatedDatav+0x163a>
    3300:	eb 26                	jmp    3328 <_Z22SetupPrecalculatedDatav+0x1648>
    3302:	45 31 d2             	xor    %r10d,%r10d
    3305:	4e 0b 54 c8 88       	or     -0x78(%rax,%r9,8),%r10
    330a:	4c 89 11             	mov    %r10,(%rcx)
    330d:	48 c7 c2 fa ff ff ff 	mov    $0xfffffffffffffffa,%rdx
    3314:	41 83 fb 02          	cmp    $0x2,%r11d
    3318:	72 0e                	jb     3328 <_Z22SetupPrecalculatedDatav+0x1648>
    331a:	4e 0b 54 c8 b0       	or     -0x50(%rax,%r9,8),%r10
    331f:	4c 89 11             	mov    %r10,(%rcx)
    3322:	41 83 fb 05          	cmp    $0x5,%r11d
    3326:	77 0a                	ja     3332 <_Z22SetupPrecalculatedDatav+0x1652>
    3328:	4c 01 ca             	add    %r9,%rdx
    332b:	4c 0b 14 d0          	or     (%rax,%rdx,8),%r10
    332f:	4c 89 11             	mov    %r10,(%rcx)
    3332:	49 83 f9 37          	cmp    $0x37,%r9
    3336:	0f 87 3e ff ff ff    	ja     327a <_Z22SetupPrecalculatedDatav+0x159a>
    333c:	49 83 f9 2f          	cmp    $0x2f,%r9
    3340:	0f 86 51 ff ff ff    	jbe    3297 <_Z22SetupPrecalculatedDatav+0x15b7>
    3346:	ba 0a 00 00 00       	mov    $0xa,%edx
    334b:	41 83 fb 02          	cmp    $0x2,%r11d
    334f:	0f 82 1b ff ff ff    	jb     3270 <_Z22SetupPrecalculatedDatav+0x1590>
    3355:	4e 0b 54 c8 30       	or     0x30(%rax,%r9,8),%r10
    335a:	4c 89 11             	mov    %r10,(%rcx)
    335d:	41 83 fb 05          	cmp    $0x5,%r11d
    3361:	0f 86 09 ff ff ff    	jbe    3270 <_Z22SetupPrecalculatedDatav+0x1590>
    3367:	e9 0e ff ff ff       	jmp    327a <_Z22SetupPrecalculatedDatav+0x159a>
    336c:	31 c9                	xor    %ecx,%ecx
    336e:	48 8d 35 8b 6f 01 00 	lea    0x16f8b(%rip),%rsi        # 1a300 <KingMoves>
    3375:	eb 1f                	jmp    3396 <_Z22SetupPrecalculatedDatav+0x16b6>
    3377:	66 0f 1f 84 00 00 00 	nopw   0x0(%rax,%rax,1)
    337e:	00 00 
    3380:	4c 0b 4c c8 08       	or     0x8(%rax,%rcx,8),%r9
    3385:	4c 89 0c ce          	mov    %r9,(%rsi,%rcx,8)
    3389:	48 ff c1             	inc    %rcx
    338c:	48 83 f9 40          	cmp    $0x40,%rcx
    3390:	0f 84 a3 00 00 00    	je     3439 <_Z22SetupPrecalculatedDatav+0x1759>
    3396:	41 89 ca             	mov    %ecx,%r10d
    3399:	48 83 f9 08          	cmp    $0x8,%rcx
    339d:	73 11                	jae    33b0 <_Z22SetupPrecalculatedDatav+0x16d0>
    339f:	45 31 c9             	xor    %r9d,%r9d
    33a2:	eb 28                	jmp    33cc <_Z22SetupPrecalculatedDatav+0x16ec>
    33a4:	66 66 66 2e 0f 1f 84 	data16 data16 cs nopw 0x0(%rax,%rax,1)
    33ab:	00 00 00 00 00 
    33b0:	41 83 e2 07          	and    $0x7,%r10d
    33b4:	74 3d                	je     33f3 <_Z22SetupPrecalculatedDatav+0x1713>
    33b6:	4c 8b 4c c8 b8       	mov    -0x48(%rax,%rcx,8),%r9
    33bb:	41 83 fa 07          	cmp    $0x7,%r10d
    33bf:	75 35                	jne    33f6 <_Z22SetupPrecalculatedDatav+0x1716>
    33c1:	4c 0b 4c c8 c0       	or     -0x40(%rax,%rcx,8),%r9
    33c6:	48 83 f9 37          	cmp    $0x37,%rcx
    33ca:	77 44                	ja     3410 <_Z22SetupPrecalculatedDatav+0x1730>
    33cc:	45 85 d2             	test   %r10d,%r10d
    33cf:	74 0b                	je     33dc <_Z22SetupPrecalculatedDatav+0x16fc>
    33d1:	4c 0b 4c c8 38       	or     0x38(%rax,%rcx,8),%r9
    33d6:	41 83 fa 07          	cmp    $0x7,%r10d
    33da:	74 05                	je     33e1 <_Z22SetupPrecalculatedDatav+0x1701>
    33dc:	4c 0b 4c c8 48       	or     0x48(%rax,%rcx,8),%r9
    33e1:	ba 00 01 00 00       	mov    $0x100,%edx
    33e6:	48 d3 e2             	shl    %cl,%rdx
    33e9:	49 01 d1             	add    %rdx,%r9
    33ec:	45 85 d2             	test   %r10d,%r10d
    33ef:	75 28                	jne    3419 <_Z22SetupPrecalculatedDatav+0x1739>
    33f1:	eb 8d                	jmp    3380 <_Z22SetupPrecalculatedDatav+0x16a0>
    33f3:	45 31 c9             	xor    %r9d,%r9d
    33f6:	4c 0b 4c c8 c8       	or     -0x38(%rax,%rcx,8),%r9
    33fb:	4c 0b 4c c8 c0       	or     -0x40(%rax,%rcx,8),%r9
    3400:	48 83 f9 37          	cmp    $0x37,%rcx
    3404:	76 c6                	jbe    33cc <_Z22SetupPrecalculatedDatav+0x16ec>
    3406:	66 2e 0f 1f 84 00 00 	cs nopw 0x0(%rax,%rax,1)
    340d:	00 00 00 
    3410:	45 85 d2             	test   %r10d,%r10d
    3413:	0f 84 67 ff ff ff    	je     3380 <_Z22SetupPrecalculatedDatav+0x16a0>
    3419:	4c 0b 4c c8 f8       	or     -0x8(%rax,%rcx,8),%r9
    341e:	4c 89 0c ce          	mov    %r9,(%rsi,%rcx,8)
    3422:	41 83 fa 07          	cmp    $0x7,%r10d
    3426:	0f 85 54 ff ff ff    	jne    3380 <_Z22SetupPrecalculatedDatav+0x16a0>
    342c:	48 ff c1             	inc    %rcx
    342f:	48 83 f9 40          	cmp    $0x40,%rcx
    3433:	0f 85 5d ff ff ff    	jne    3396 <_Z22SetupPrecalculatedDatav+0x16b6>
    3439:	4c 8b 15 c8 9a 01 00 	mov    0x19ac8(%rip),%r10        # 1cf08 <Mask+0x8>
    3440:	48 8b 35 c9 9a 01 00 	mov    0x19ac9(%rip),%rsi        # 1cf10 <Mask+0x10>
    3447:	4c 09 d6             	or     %r10,%rsi
    344a:	66 0f 6f 44 24 f0    	movdqa -0x10(%rsp),%xmm0
    3450:	66 49 0f 7e c4       	movq   %xmm0,%r12
    3455:	4d 89 e1             	mov    %r12,%r9
    3458:	49 09 f1             	or     %rsi,%r9
    345b:	66 0f 70 c0 ee       	pshufd $0xee,%xmm0,%xmm0
    3460:	66 48 0f 7e c3       	movq   %xmm0,%rbx
    3465:	49 89 db             	mov    %rbx,%r11
    3468:	4d 09 cb             	or     %r9,%r11
    346b:	66 0f 6f 44 24 e0    	movdqa -0x20(%rsp),%xmm0
    3471:	66 49 0f 7e c7       	movq   %xmm0,%r15
    3476:	4d 89 fd             	mov    %r15,%r13
    3479:	4d 09 dd             	or     %r11,%r13
    347c:	66 0f 70 c0 ee       	pshufd $0xee,%xmm0,%xmm0
    3481:	66 48 0f 7e c1       	movq   %xmm0,%rcx
    3486:	31 ed                	xor    %ebp,%ebp
    3488:	4c 89 ef             	mov    %r13,%rdi
    348b:	48 89 4c 24 80       	mov    %rcx,-0x80(%rsp)
    3490:	48 09 cf             	or     %rcx,%rdi
    3493:	48 8d 0d 66 98 01 00 	lea    0x19866(%rip),%rcx        # 1cd00 <firstRankAttacks>
    349a:	eb 19                	jmp    34b5 <_Z22SetupPrecalculatedDatav+0x17d5>
    349c:	0f 1f 40 00          	nopl   0x0(%rax)
    34a0:	41 89 e8             	mov    %ebp,%r8d
    34a3:	41 83 e0 7e          	and    $0x7e,%r8d
    34a7:	42 88 14 81          	mov    %dl,(%rcx,%r8,4)
    34ab:	ff c5                	inc    %ebp
    34ad:	81 fd 00 01 00 00    	cmp    $0x100,%ebp
    34b3:	74 41                	je     34f6 <_Z22SetupPrecalculatedDatav+0x1816>
    34b5:	4c 89 d2             	mov    %r10,%rdx
    34b8:	40 f6 c5 02          	test   $0x2,%bpl
    34bc:	75 e2                	jne    34a0 <_Z22SetupPrecalculatedDatav+0x17c0>
    34be:	48 89 f2             	mov    %rsi,%rdx
    34c1:	40 f6 c5 04          	test   $0x4,%bpl
    34c5:	75 d9                	jne    34a0 <_Z22SetupPrecalculatedDatav+0x17c0>
    34c7:	4c 89 ca             	mov    %r9,%rdx
    34ca:	40 f6 c5 08          	test   $0x8,%bpl
    34ce:	75 d0                	jne    34a0 <_Z22SetupPrecalculatedDatav+0x17c0>
    34d0:	4c 89 da             	mov    %r11,%rdx
    34d3:	40 f6 c5 10          	test   $0x10,%bpl
    34d7:	75 c7                	jne    34a0 <_Z22SetupPrecalculatedDatav+0x17c0>
    34d9:	4c 89 ea             	mov    %r13,%rdx
    34dc:	40 f6 c5 20          	test   $0x20,%bpl
    34e0:	75 be                	jne    34a0 <_Z22SetupPrecalculatedDatav+0x17c0>
    34e2:	40 f6 c5 40          	test   $0x40,%bpl
    34e6:	ba 00 00 00 00       	mov    $0x0,%edx
    34eb:	48 0f 44 54 24 98    	cmove  -0x68(%rsp),%rdx
    34f1:	48 09 fa             	or     %rdi,%rdx
    34f4:	eb aa                	jmp    34a0 <_Z22SetupPrecalculatedDatav+0x17c0>
    34f6:	4c 8b 1d 03 9a 01 00 	mov    0x19a03(%rip),%r11        # 1cf00 <Mask>
    34fd:	48 8b 2d 0c 9a 01 00 	mov    0x19a0c(%rip),%rbp        # 1cf10 <Mask+0x10>
    3504:	49 89 e9             	mov    %rbp,%r9
    3507:	4d 09 d9             	or     %r11,%r9
    350a:	4c 89 e7             	mov    %r12,%rdi
    350d:	4c 09 cf             	or     %r9,%rdi
    3510:	49 89 dd             	mov    %rbx,%r13
    3513:	49 09 fd             	or     %rdi,%r13
    3516:	4d 89 fe             	mov    %r15,%r14
    3519:	4d 09 ee             	or     %r13,%r14
    351c:	31 d2                	xor    %edx,%edx
    351e:	4c 89 f6             	mov    %r14,%rsi
    3521:	48 0b 74 24 80       	or     -0x80(%rsp),%rsi
    3526:	48 89 74 24 a0       	mov    %rsi,-0x60(%rsp)
    352b:	eb 19                	jmp    3546 <_Z22SetupPrecalculatedDatav+0x1866>
    352d:	0f 1f 00             	nopl   (%rax)
    3530:	41 89 d0             	mov    %edx,%r8d
    3533:	41 83 e0 7e          	and    $0x7e,%r8d
    3537:	42 88 74 81 01       	mov    %sil,0x1(%rcx,%r8,4)
    353c:	ff c2                	inc    %edx
    353e:	81 fa 00 01 00 00    	cmp    $0x100,%edx
    3544:	74 35                	je     357b <_Z22SetupPrecalculatedDatav+0x189b>
    3546:	4c 89 ce             	mov    %r9,%rsi
    3549:	f6 c2 04             	test   $0x4,%dl
    354c:	75 e2                	jne    3530 <_Z22SetupPrecalculatedDatav+0x1850>
    354e:	48 89 fe             	mov    %rdi,%rsi
    3551:	f6 c2 08             	test   $0x8,%dl
    3554:	75 da                	jne    3530 <_Z22SetupPrecalculatedDatav+0x1850>
    3556:	4c 89 ee             	mov    %r13,%rsi
    3559:	f6 c2 10             	test   $0x10,%dl
    355c:	75 d2                	jne    3530 <_Z22SetupPrecalculatedDatav+0x1850>
    355e:	4c 89 f6             	mov    %r14,%rsi
    3561:	f6 c2 20             	test   $0x20,%dl
    3564:	75 ca                	jne    3530 <_Z22SetupPrecalculatedDatav+0x1850>
    3566:	f6 c2 40             	test   $0x40,%dl
    3569:	be 00 00 00 00       	mov    $0x0,%esi
    356e:	48 0f 44 74 24 98    	cmove  -0x68(%rsp),%rsi
    3574:	48 0b 74 24 a0       	or     -0x60(%rsp),%rsi
    3579:	eb b5                	jmp    3530 <_Z22SetupPrecalculatedDatav+0x1850>
    357b:	31 f6                	xor    %esi,%esi
    357d:	4c 8b 44 24 98       	mov    -0x68(%rsp),%r8
    3582:	4c 8b 4c 24 80       	mov    -0x80(%rsp),%r9
    3587:	eb 1a                	jmp    35a3 <_Z22SetupPrecalculatedDatav+0x18c3>
    3589:	0f 1f 80 00 00 00 00 	nopl   0x0(%rax)
    3590:	89 f7                	mov    %esi,%edi
    3592:	83 e7 7e             	and    $0x7e,%edi
    3595:	88 54 b9 02          	mov    %dl,0x2(%rcx,%rdi,4)
    3599:	ff c6                	inc    %esi
    359b:	81 fe 00 01 00 00    	cmp    $0x100,%esi
    35a1:	74 40                	je     35e3 <_Z22SetupPrecalculatedDatav+0x1903>
    35a3:	40 f6 c6 02          	test   $0x2,%sil
    35a7:	ba 00 00 00 00       	mov    $0x0,%edx
    35ac:	49 0f 44 d3          	cmove  %r11,%rdx
    35b0:	4c 09 d2             	or     %r10,%rdx
    35b3:	4c 09 e2             	or     %r12,%rdx
    35b6:	40 f6 c6 08          	test   $0x8,%sil
    35ba:	75 d4                	jne    3590 <_Z22SetupPrecalculatedDatav+0x18b0>
    35bc:	48 09 da             	or     %rbx,%rdx
    35bf:	40 f6 c6 10          	test   $0x10,%sil
    35c3:	75 cb                	jne    3590 <_Z22SetupPrecalculatedDatav+0x18b0>
    35c5:	4c 09 fa             	or     %r15,%rdx
    35c8:	40 f6 c6 20          	test   $0x20,%sil
    35cc:	75 c2                	jne    3590 <_Z22SetupPrecalculatedDatav+0x18b0>
    35ce:	40 f6 c6 40          	test   $0x40,%sil
    35d2:	bf 00 00 00 00       	mov    $0x0,%edi
    35d7:	49 0f 44 f8          	cmove  %r8,%rdi
    35db:	4c 09 cf             	or     %r9,%rdi
    35de:	48 09 fa             	or     %rdi,%rdx
    35e1:	eb ad                	jmp    3590 <_Z22SetupPrecalculatedDatav+0x18b0>
    35e3:	31 f6                	xor    %esi,%esi
    35e5:	eb 1c                	jmp    3603 <_Z22SetupPrecalculatedDatav+0x1923>
    35e7:	66 0f 1f 84 00 00 00 	nopw   0x0(%rax,%rax,1)
    35ee:	00 00 
    35f0:	89 f7                	mov    %esi,%edi
    35f2:	83 e7 7e             	and    $0x7e,%edi
    35f5:	88 54 b9 03          	mov    %dl,0x3(%rcx,%rdi,4)
    35f9:	ff c6                	inc    %esi
    35fb:	81 fe 00 01 00 00    	cmp    $0x100,%esi
    3601:	74 42                	je     3645 <_Z22SetupPrecalculatedDatav+0x1965>
    3603:	40 f6 c6 02          	test   $0x2,%sil
    3607:	ba 00 00 00 00       	mov    $0x0,%edx
    360c:	49 0f 44 d3          	cmove  %r11,%rdx
    3610:	48 09 ea             	or     %rbp,%rdx
    3613:	4c 09 d2             	or     %r10,%rdx
    3616:	40 f6 c6 04          	test   $0x4,%sil
    361a:	48 0f 45 d5          	cmovne %rbp,%rdx
    361e:	48 09 da             	or     %rbx,%rdx
    3621:	40 f6 c6 10          	test   $0x10,%sil
    3625:	75 c9                	jne    35f0 <_Z22SetupPrecalculatedDatav+0x1910>
    3627:	4c 09 fa             	or     %r15,%rdx
    362a:	40 f6 c6 20          	test   $0x20,%sil
    362e:	75 c0                	jne    35f0 <_Z22SetupPrecalculatedDatav+0x1910>
    3630:	40 f6 c6 40          	test   $0x40,%sil
    3634:	bf 00 00 00 00       	mov    $0x0,%edi
    3639:	49 0f 44 f8          	cmove  %r8,%rdi
    363d:	4c 09 cf             	or     %r9,%rdi
    3640:	48 09 fa             	or     %rdi,%rdx
    3643:	eb ab                	jmp    35f0 <_Z22SetupPrecalculatedDatav+0x1910>
    3645:	48 8b 35 cc 98 01 00 	mov    0x198cc(%rip),%rsi        # 1cf18 <Mask+0x18>
    364c:	48 89 eb             	mov    %rbp,%rbx
    364f:	48 09 f3             	or     %rsi,%rbx
    3652:	4c 8b 35 cf 98 01 00 	mov    0x198cf(%rip),%r14        # 1cf28 <Mask+0x28>
    3659:	4c 8b 3d d0 98 01 00 	mov    0x198d0(%rip),%r15        # 1cf30 <Mask+0x30>
    3660:	45 31 e4             	xor    %r12d,%r12d
    3663:	4c 8b 2d ce 98 01 00 	mov    0x198ce(%rip),%r13        # 1cf38 <Mask+0x38>
    366a:	eb 1a                	jmp    3686 <_Z22SetupPrecalculatedDatav+0x19a6>
    366c:	0f 1f 40 00          	nopl   0x0(%rax)
    3670:	44 89 e7             	mov    %r12d,%edi
    3673:	83 e7 7e             	and    $0x7e,%edi
    3676:	88 54 b9 04          	mov    %dl,0x4(%rcx,%rdi,4)
    367a:	41 ff c4             	inc    %r12d
    367d:	41 81 fc 00 01 00 00 	cmp    $0x100,%r12d
    3684:	74 43                	je     36c9 <_Z22SetupPrecalculatedDatav+0x19e9>
    3686:	48 89 f2             	mov    %rsi,%rdx
    3689:	41 f6 c4 08          	test   $0x8,%r12b
    368d:	75 1c                	jne    36ab <_Z22SetupPrecalculatedDatav+0x19cb>
    368f:	48 89 da             	mov    %rbx,%rdx
    3692:	41 f6 c4 04          	test   $0x4,%r12b
    3696:	75 13                	jne    36ab <_Z22SetupPrecalculatedDatav+0x19cb>
    3698:	41 f6 c4 02          	test   $0x2,%r12b
    369c:	ba 00 00 00 00       	mov    $0x0,%edx
    36a1:	49 0f 44 d3          	cmove  %r11,%rdx
    36a5:	48 09 da             	or     %rbx,%rdx
    36a8:	4c 09 d2             	or     %r10,%rdx
    36ab:	4c 09 f2             	or     %r14,%rdx
    36ae:	41 f6 c4 20          	test   $0x20,%r12b
    36b2:	75 bc                	jne    3670 <_Z22SetupPrecalculatedDatav+0x1990>
    36b4:	41 f6 c4 40          	test   $0x40,%r12b
    36b8:	bf 00 00 00 00       	mov    $0x0,%edi
    36bd:	49 0f 44 fd          	cmove  %r13,%rdi
    36c1:	4c 09 ff             	or     %r15,%rdi
    36c4:	48 09 fa             	or     %rdi,%rdx
    36c7:	eb a7                	jmp    3670 <_Z22SetupPrecalculatedDatav+0x1990>
    36c9:	48 8b 35 50 98 01 00 	mov    0x19850(%rip),%rsi        # 1cf20 <Mask+0x20>
    36d0:	4c 8b 35 41 98 01 00 	mov    0x19841(%rip),%r14        # 1cf18 <Mask+0x18>
    36d7:	49 09 f6             	or     %rsi,%r14
    36da:	49 89 ef             	mov    %rbp,%r15
    36dd:	4d 09 f7             	or     %r14,%r15
    36e0:	48 8b 1d 49 98 01 00 	mov    0x19849(%rip),%rbx        # 1cf30 <Mask+0x30>
    36e7:	31 ff                	xor    %edi,%edi
    36e9:	4c 8b 25 48 98 01 00 	mov    0x19848(%rip),%r12        # 1cf38 <Mask+0x38>
    36f0:	eb 37                	jmp    3729 <_Z22SetupPrecalculatedDatav+0x1a49>
    36f2:	66 66 66 66 66 2e 0f 	data16 data16 data16 data16 cs nopw 0x0(%rax,%rax,1)
    36f9:	1f 84 00 00 00 00 00 
    3700:	40 f6 c7 40          	test   $0x40,%dil
    3704:	41 b8 00 00 00 00    	mov    $0x0,%r8d
    370a:	45 0f 44 c4          	cmove  %r12d,%r8d
    370e:	09 da                	or     %ebx,%edx
    3710:	44 09 c2             	or     %r8d,%edx
    3713:	41 89 f8             	mov    %edi,%r8d
    3716:	41 83 e0 7e          	and    $0x7e,%r8d
    371a:	42 88 54 81 05       	mov    %dl,0x5(%rcx,%r8,4)
    371f:	ff c7                	inc    %edi
    3721:	81 ff 00 01 00 00    	cmp    $0x100,%edi
    3727:	74 30                	je     3759 <_Z22SetupPrecalculatedDatav+0x1a79>
    3729:	48 89 f2             	mov    %rsi,%rdx
    372c:	40 f6 c7 10          	test   $0x10,%dil
    3730:	75 ce                	jne    3700 <_Z22SetupPrecalculatedDatav+0x1a20>
    3732:	4c 89 f2             	mov    %r14,%rdx
    3735:	40 f6 c7 08          	test   $0x8,%dil
    3739:	75 c5                	jne    3700 <_Z22SetupPrecalculatedDatav+0x1a20>
    373b:	4c 89 fa             	mov    %r15,%rdx
    373e:	40 f6 c7 04          	test   $0x4,%dil
    3742:	75 bc                	jne    3700 <_Z22SetupPrecalculatedDatav+0x1a20>
    3744:	40 f6 c7 02          	test   $0x2,%dil
    3748:	ba 00 00 00 00       	mov    $0x0,%edx
    374d:	49 0f 44 d3          	cmove  %r11,%rdx
    3751:	4c 09 fa             	or     %r15,%rdx
    3754:	4c 09 d2             	or     %r10,%rdx
    3757:	eb a7                	jmp    3700 <_Z22SetupPrecalculatedDatav+0x1a20>
    3759:	4c 8b 35 c8 97 01 00 	mov    0x197c8(%rip),%r14        # 1cf28 <Mask+0x28>
    3760:	48 8b 35 b9 97 01 00 	mov    0x197b9(%rip),%rsi        # 1cf20 <Mask+0x20>
    3767:	4c 09 f6             	or     %r14,%rsi
    376a:	4c 8b 3d a7 97 01 00 	mov    0x197a7(%rip),%r15        # 1cf18 <Mask+0x18>
    3771:	49 09 f7             	or     %rsi,%r15
    3774:	49 89 ec             	mov    %rbp,%r12
    3777:	4d 09 fc             	or     %r15,%r12
    377a:	31 ff                	xor    %edi,%edi
    377c:	4c 8b 2d b5 97 01 00 	mov    0x197b5(%rip),%r13        # 1cf38 <Mask+0x38>
    3783:	eb 24                	jmp    37a9 <_Z22SetupPrecalculatedDatav+0x1ac9>
    3785:	66 66 2e 0f 1f 84 00 	data16 cs nopw 0x0(%rax,%rax,1)
    378c:	00 00 00 00 
    3790:	44 09 ea             	or     %r13d,%edx
    3793:	41 89 f8             	mov    %edi,%r8d
    3796:	41 83 e0 7e          	and    $0x7e,%r8d
    379a:	42 88 54 81 06       	mov    %dl,0x6(%rcx,%r8,4)
    379f:	ff c7                	inc    %edi
    37a1:	81 ff 00 01 00 00    	cmp    $0x100,%edi
    37a7:	74 39                	je     37e2 <_Z22SetupPrecalculatedDatav+0x1b02>
    37a9:	4c 89 f2             	mov    %r14,%rdx
    37ac:	40 f6 c7 20          	test   $0x20,%dil
    37b0:	75 de                	jne    3790 <_Z22SetupPrecalculatedDatav+0x1ab0>
    37b2:	48 89 f2             	mov    %rsi,%rdx
    37b5:	40 f6 c7 10          	test   $0x10,%dil
    37b9:	75 d5                	jne    3790 <_Z22SetupPrecalculatedDatav+0x1ab0>
    37bb:	4c 89 fa             	mov    %r15,%rdx
    37be:	40 f6 c7 08          	test   $0x8,%dil
    37c2:	75 cc                	jne    3790 <_Z22SetupPrecalculatedDatav+0x1ab0>
    37c4:	4c 89 e2             	mov    %r12,%rdx
    37c7:	40 f6 c7 04          	test   $0x4,%dil
    37cb:	75 c3                	jne    3790 <_Z22SetupPrecalculatedDatav+0x1ab0>
    37cd:	40 f6 c7 02          	test   $0x2,%dil
    37d1:	ba 00 00 00 00       	mov    $0x0,%edx
    37d6:	49 0f 44 d3          	cmove  %r11,%rdx
    37da:	4c 09 e2             	or     %r12,%rdx
    37dd:	4c 09 d2             	or     %r10,%rdx
    37e0:	eb ae                	jmp    3790 <_Z22SetupPrecalculatedDatav+0x1ab0>
    37e2:	49 09 de             	or     %rbx,%r14
    37e5:	48 8b 35 34 97 01 00 	mov    0x19734(%rip),%rsi        # 1cf20 <Mask+0x20>
    37ec:	4c 09 f6             	or     %r14,%rsi
    37ef:	4c 8b 3d 22 97 01 00 	mov    0x19722(%rip),%r15        # 1cf18 <Mask+0x18>
    37f6:	49 09 f7             	or     %rsi,%r15
    37f9:	4c 09 fd             	or     %r15,%rbp
    37fc:	45 31 e4             	xor    %r12d,%r12d
    37ff:	eb 25                	jmp    3826 <_Z22SetupPrecalculatedDatav+0x1b46>
    3801:	66 66 66 66 66 66 2e 	data16 data16 data16 data16 data16 cs nopw 0x0(%rax,%rax,1)
    3808:	0f 1f 84 00 00 00 00 
    380f:	00 
    3810:	44 89 e7             	mov    %r12d,%edi
    3813:	83 e7 7e             	and    $0x7e,%edi
    3816:	88 54 b9 07          	mov    %dl,0x7(%rcx,%rdi,4)
    381a:	41 ff c4             	inc    %r12d
    381d:	41 81 fc 00 01 00 00 	cmp    $0x100,%r12d
    3824:	74 42                	je     3868 <_Z22SetupPrecalculatedDatav+0x1b88>
    3826:	48 89 da             	mov    %rbx,%rdx
    3829:	41 f6 c4 40          	test   $0x40,%r12b
    382d:	75 e1                	jne    3810 <_Z22SetupPrecalculatedDatav+0x1b30>
    382f:	4c 89 f2             	mov    %r14,%rdx
    3832:	41 f6 c4 20          	test   $0x20,%r12b
    3836:	75 d8                	jne    3810 <_Z22SetupPrecalculatedDatav+0x1b30>
    3838:	48 89 f2             	mov    %rsi,%rdx
    383b:	41 f6 c4 10          	test   $0x10,%r12b
    383f:	75 cf                	jne    3810 <_Z22SetupPrecalculatedDatav+0x1b30>
    3841:	4c 89 fa             	mov    %r15,%rdx
    3844:	41 f6 c4 08          	test   $0x8,%r12b
    3848:	75 c6                	jne    3810 <_Z22SetupPrecalculatedDatav+0x1b30>
    384a:	48 89 ea             	mov    %rbp,%rdx
    384d:	41 f6 c4 04          	test   $0x4,%r12b
    3851:	75 bd                	jne    3810 <_Z22SetupPrecalculatedDatav+0x1b30>
    3853:	41 f6 c4 02          	test   $0x2,%r12b
    3857:	ba 00 00 00 00       	mov    $0x0,%edx
    385c:	49 0f 44 d3          	cmove  %r11,%rdx
    3860:	48 09 ea             	or     %rbp,%rdx
    3863:	4c 09 d2             	or     %r10,%rdx
    3866:	eb a8                	jmp    3810 <_Z22SetupPrecalculatedDatav+0x1b30>
    3868:	49 b9 01 02 04 08 10 	movabs $0x8040201008040201,%r9
    386f:	20 40 80 
    3872:	49 ba 01 01 01 01 01 	movabs $0x101010101010101,%r10
    3879:	01 01 01 
    387c:	31 d2                	xor    %edx,%edx
    387e:	4c 8d 1d 7b 74 01 00 	lea    0x1747b(%rip),%r11        # 1ad00 <fillUpAttacks>
    3885:	48 8d 1d 74 84 01 00 	lea    0x18474(%rip),%rbx        # 1bd00 <aFileAttacks>
    388c:	0f 1f 40 00          	nopl   0x0(%rax)
    3890:	0f b6 34 0a          	movzbl (%rdx,%rcx,1),%esi
    3894:	48 89 f7             	mov    %rsi,%rdi
    3897:	49 0f af fa          	imul   %r10,%rdi
    389b:	49 89 3c d3          	mov    %rdi,(%r11,%rdx,8)
    389f:	49 0f af f1          	imul   %r9,%rsi
    38a3:	48 c1 ee 07          	shr    $0x7,%rsi
    38a7:	4c 21 d6             	and    %r10,%rsi
    38aa:	48 89 74 d3 38       	mov    %rsi,0x38(%rbx,%rdx,8)
    38af:	0f b6 74 0a 08       	movzbl 0x8(%rdx,%rcx,1),%esi
    38b4:	48 89 f7             	mov    %rsi,%rdi
    38b7:	49 0f af fa          	imul   %r10,%rdi
    38bb:	49 89 7c d3 40       	mov    %rdi,0x40(%r11,%rdx,8)
    38c0:	49 0f af f1          	imul   %r9,%rsi
    38c4:	48 c1 ee 07          	shr    $0x7,%rsi
    38c8:	4c 21 d6             	and    %r10,%rsi
    38cb:	48 89 74 d3 78       	mov    %rsi,0x78(%rbx,%rdx,8)
    38d0:	48 83 c2 10          	add    $0x10,%rdx
    38d4:	48 81 fa 00 02 00 00 	cmp    $0x200,%rdx
    38db:	75 b3                	jne    3890 <_Z22SetupPrecalculatedDatav+0x1bb0>
    38dd:	31 d2                	xor    %edx,%edx
    38df:	4c 8d 35 1a 9a 01 00 	lea    0x19a1a(%rip),%r14        # 1d300 <DiagMaska1h8>
    38e6:	4c 8d 3d 13 9c 01 00 	lea    0x19c13(%rip),%r15        # 1d500 <DiagMaska8h1>
    38ed:	0f 1f 00             	nopl   (%rax)
    38f0:	0f b6 74 0a 01       	movzbl 0x1(%rdx,%rcx,1),%esi
    38f5:	48 89 f7             	mov    %rsi,%rdi
    38f8:	49 0f af fa          	imul   %r10,%rdi
    38fc:	49 89 7c d3 08       	mov    %rdi,0x8(%r11,%rdx,8)
    3901:	49 0f af f1          	imul   %r9,%rsi
    3905:	48 c1 ee 07          	shr    $0x7,%rsi
    3909:	4c 21 d6             	and    %r10,%rsi
    390c:	48 89 74 d3 30       	mov    %rsi,0x30(%rbx,%rdx,8)
    3911:	0f b6 74 0a 09       	movzbl 0x9(%rdx,%rcx,1),%esi
    3916:	48 89 f7             	mov    %rsi,%rdi
    3919:	49 0f af fa          	imul   %r10,%rdi
    391d:	49 89 7c d3 48       	mov    %rdi,0x48(%r11,%rdx,8)
    3922:	49 0f af f1          	imul   %r9,%rsi
    3926:	48 c1 ee 07          	shr    $0x7,%rsi
    392a:	4c 21 d6             	and    %r10,%rsi
    392d:	48 89 74 d3 70       	mov    %rsi,0x70(%rbx,%rdx,8)
    3932:	48 83 c2 10          	add    $0x10,%rdx
    3936:	48 81 fa 00 02 00 00 	cmp    $0x200,%rdx
    393d:	75 b1                	jne    38f0 <_Z22SetupPrecalculatedDatav+0x1c10>
    393f:	31 d2                	xor    %edx,%edx
    3941:	66 66 66 66 66 66 2e 	data16 data16 data16 data16 data16 cs nopw 0x0(%rax,%rax,1)
    3948:	0f 1f 84 00 00 00 00 
    394f:	00 
    3950:	0f b6 74 0a 02       	movzbl 0x2(%rdx,%rcx,1),%esi
    3955:	48 89 f7             	mov    %rsi,%rdi
    3958:	49 0f af fa          	imul   %r10,%rdi
    395c:	49 89 7c d3 10       	mov    %rdi,0x10(%r11,%rdx,8)
    3961:	49 0f af f1          	imul   %r9,%rsi
    3965:	48 c1 ee 07          	shr    $0x7,%rsi
    3969:	4c 21 d6             	and    %r10,%rsi
    396c:	48 89 74 d3 28       	mov    %rsi,0x28(%rbx,%rdx,8)
    3971:	0f b6 74 0a 0a       	movzbl 0xa(%rdx,%rcx,1),%esi
    3976:	48 89 f7             	mov    %rsi,%rdi
    3979:	49 0f af fa          	imul   %r10,%rdi
    397d:	49 89 7c d3 50       	mov    %rdi,0x50(%r11,%rdx,8)
    3982:	49 0f af f1          	imul   %r9,%rsi
    3986:	48 c1 ee 07          	shr    $0x7,%rsi
    398a:	4c 21 d6             	and    %r10,%rsi
    398d:	48 89 74 d3 68       	mov    %rsi,0x68(%rbx,%rdx,8)
    3992:	48 83 c2 10          	add    $0x10,%rdx
    3996:	48 81 fa 00 02 00 00 	cmp    $0x200,%rdx
    399d:	75 b1                	jne    3950 <_Z22SetupPrecalculatedDatav+0x1c70>
    399f:	31 d2                	xor    %edx,%edx
    39a1:	66 66 66 66 66 66 2e 	data16 data16 data16 data16 data16 cs nopw 0x0(%rax,%rax,1)
    39a8:	0f 1f 84 00 00 00 00 
    39af:	00 
    39b0:	0f b6 74 0a 03       	movzbl 0x3(%rdx,%rcx,1),%esi
    39b5:	48 89 f7             	mov    %rsi,%rdi
    39b8:	49 0f af fa          	imul   %r10,%rdi
    39bc:	49 89 7c d3 18       	mov    %rdi,0x18(%r11,%rdx,8)
    39c1:	49 0f af f1          	imul   %r9,%rsi
    39c5:	48 c1 ee 07          	shr    $0x7,%rsi
    39c9:	4c 21 d6             	and    %r10,%rsi
    39cc:	48 89 74 d3 20       	mov    %rsi,0x20(%rbx,%rdx,8)
    39d1:	0f b6 74 0a 0b       	movzbl 0xb(%rdx,%rcx,1),%esi
    39d6:	48 89 f7             	mov    %rsi,%rdi
    39d9:	49 0f af fa          	imul   %r10,%rdi
    39dd:	49 89 7c d3 58       	mov    %rdi,0x58(%r11,%rdx,8)
    39e2:	49 0f af f1          	imul   %r9,%rsi
    39e6:	48 c1 ee 07          	shr    $0x7,%rsi
    39ea:	4c 21 d6             	and    %r10,%rsi
    39ed:	48 89 74 d3 60       	mov    %rsi,0x60(%rbx,%rdx,8)
    39f2:	48 83 c2 10          	add    $0x10,%rdx
    39f6:	48 81 fa 00 02 00 00 	cmp    $0x200,%rdx
    39fd:	75 b1                	jne    39b0 <_Z22SetupPrecalculatedDatav+0x1cd0>
    39ff:	31 d2                	xor    %edx,%edx
    3a01:	66 66 66 66 66 66 2e 	data16 data16 data16 data16 data16 cs nopw 0x0(%rax,%rax,1)
    3a08:	0f 1f 84 00 00 00 00 
    3a0f:	00 
    3a10:	0f b6 74 0a 04       	movzbl 0x4(%rdx,%rcx,1),%esi
    3a15:	48 89 f7             	mov    %rsi,%rdi
    3a18:	49 0f af fa          	imul   %r10,%rdi
    3a1c:	49 89 7c d3 20       	mov    %rdi,0x20(%r11,%rdx,8)
    3a21:	49 0f af f1          	imul   %r9,%rsi
    3a25:	48 c1 ee 07          	shr    $0x7,%rsi
    3a29:	4c 21 d6             	and    %r10,%rsi
    3a2c:	48 89 74 d3 18       	mov    %rsi,0x18(%rbx,%rdx,8)
    3a31:	0f b6 74 0a 0c       	movzbl 0xc(%rdx,%rcx,1),%esi
    3a36:	48 89 f7             	mov    %rsi,%rdi
    3a39:	49 0f af fa          	imul   %r10,%rdi
    3a3d:	49 89 7c d3 60       	mov    %rdi,0x60(%r11,%rdx,8)
    3a42:	49 0f af f1          	imul   %r9,%rsi
    3a46:	48 c1 ee 07          	shr    $0x7,%rsi
    3a4a:	4c 21 d6             	and    %r10,%rsi
    3a4d:	48 89 74 d3 58       	mov    %rsi,0x58(%rbx,%rdx,8)
    3a52:	48 83 c2 10          	add    $0x10,%rdx
    3a56:	48 81 fa 00 02 00 00 	cmp    $0x200,%rdx
    3a5d:	75 b1                	jne    3a10 <_Z22SetupPrecalculatedDatav+0x1d30>
    3a5f:	31 d2                	xor    %edx,%edx
    3a61:	66 66 66 66 66 66 2e 	data16 data16 data16 data16 data16 cs nopw 0x0(%rax,%rax,1)
    3a68:	0f 1f 84 00 00 00 00 
    3a6f:	00 
    3a70:	0f b6 74 0a 05       	movzbl 0x5(%rdx,%rcx,1),%esi
    3a75:	48 89 f7             	mov    %rsi,%rdi
    3a78:	49 0f af fa          	imul   %r10,%rdi
    3a7c:	49 89 7c d3 28       	mov    %rdi,0x28(%r11,%rdx,8)
    3a81:	49 0f af f1          	imul   %r9,%rsi
    3a85:	48 c1 ee 07          	shr    $0x7,%rsi
    3a89:	4c 21 d6             	and    %r10,%rsi
    3a8c:	48 89 74 d3 10       	mov    %rsi,0x10(%rbx,%rdx,8)
    3a91:	0f b6 74 0a 0d       	movzbl 0xd(%rdx,%rcx,1),%esi
    3a96:	48 89 f7             	mov    %rsi,%rdi
    3a99:	49 0f af fa          	imul   %r10,%rdi
    3a9d:	49 89 7c d3 68       	mov    %rdi,0x68(%r11,%rdx,8)
    3aa2:	49 0f af f1          	imul   %r9,%rsi
    3aa6:	48 c1 ee 07          	shr    $0x7,%rsi
    3aaa:	4c 21 d6             	and    %r10,%rsi
    3aad:	48 89 74 d3 50       	mov    %rsi,0x50(%rbx,%rdx,8)
    3ab2:	48 83 c2 10          	add    $0x10,%rdx
    3ab6:	48 81 fa 00 02 00 00 	cmp    $0x200,%rdx
    3abd:	75 b1                	jne    3a70 <_Z22SetupPrecalculatedDatav+0x1d90>
    3abf:	31 d2                	xor    %edx,%edx
    3ac1:	66 66 66 66 66 66 2e 	data16 data16 data16 data16 data16 cs nopw 0x0(%rax,%rax,1)
    3ac8:	0f 1f 84 00 00 00 00 
    3acf:	00 
    3ad0:	0f b6 74 0a 06       	movzbl 0x6(%rdx,%rcx,1),%esi
    3ad5:	48 89 f7             	mov    %rsi,%rdi
    3ad8:	49 0f af fa          	imul   %r10,%rdi
    3adc:	49 89 7c d3 30       	mov    %rdi,0x30(%r11,%rdx,8)
    3ae1:	49 0f af f1          	imul   %r9,%rsi
    3ae5:	48 c1 ee 07          	shr    $0x7,%rsi
    3ae9:	4c 21 d6             	and    %r10,%rsi
    3aec:	48 89 74 d3 08       	mov    %rsi,0x8(%rbx,%rdx,8)
    3af1:	0f b6 74 0a 0e       	movzbl 0xe(%rdx,%rcx,1),%esi
    3af6:	48 89 f7             	mov    %rsi,%rdi
    3af9:	49 0f af fa          	imul   %r10,%rdi
    3afd:	49 89 7c d3 70       	mov    %rdi,0x70(%r11,%rdx,8)
    3b02:	49 0f af f1          	imul   %r9,%rsi
    3b06:	48 c1 ee 07          	shr    $0x7,%rsi
    3b0a:	4c 21 d6             	and    %r10,%rsi
    3b0d:	48 89 74 d3 48       	mov    %rsi,0x48(%rbx,%rdx,8)
    3b12:	48 83 c2 10          	add    $0x10,%rdx
    3b16:	48 81 fa 00 02 00 00 	cmp    $0x200,%rdx
    3b1d:	75 b1                	jne    3ad0 <_Z22SetupPrecalculatedDatav+0x1df0>
    3b1f:	31 d2                	xor    %edx,%edx
    3b21:	66 66 66 66 66 66 2e 	data16 data16 data16 data16 data16 cs nopw 0x0(%rax,%rax,1)
    3b28:	0f 1f 84 00 00 00 00 
    3b2f:	00 
    3b30:	0f b6 74 0a 07       	movzbl 0x7(%rdx,%rcx,1),%esi
    3b35:	48 89 f7             	mov    %rsi,%rdi
    3b38:	49 0f af fa          	imul   %r10,%rdi
    3b3c:	49 89 7c d3 38       	mov    %rdi,0x38(%r11,%rdx,8)
    3b41:	49 0f af f1          	imul   %r9,%rsi
    3b45:	48 c1 ee 07          	shr    $0x7,%rsi
    3b49:	4c 21 d6             	and    %r10,%rsi
    3b4c:	48 89 34 d3          	mov    %rsi,(%rbx,%rdx,8)
    3b50:	0f b6 74 0a 0f       	movzbl 0xf(%rdx,%rcx,1),%esi
    3b55:	48 89 f7             	mov    %rsi,%rdi
    3b58:	49 0f af fa          	imul   %r10,%rdi
    3b5c:	49 89 7c d3 78       	mov    %rdi,0x78(%r11,%rdx,8)
    3b61:	49 0f af f1          	imul   %r9,%rsi
    3b65:	48 c1 ee 07          	shr    $0x7,%rsi
    3b69:	4c 21 d6             	and    %r10,%rsi
    3b6c:	48 89 74 d3 40       	mov    %rsi,0x40(%rbx,%rdx,8)
    3b71:	48 83 c2 10          	add    $0x10,%rdx
    3b75:	48 81 fa 00 02 00 00 	cmp    $0x200,%rdx
    3b7c:	75 b2                	jne    3b30 <_Z22SetupPrecalculatedDatav+0x1e50>
    3b7e:	31 c9                	xor    %ecx,%ecx
    3b80:	48 8d 15 79 9b 01 00 	lea    0x19b79(%rip),%rdx        # 1d700 <FileMask>
    3b87:	48 8d 35 b2 9b 01 00 	lea    0x19bb2(%rip),%rsi        # 1d740 <RankMask>
    3b8e:	48 8d 3d eb 9c 01 00 	lea    0x19ceb(%rip),%rdi        # 1d880 <RookMask>
    3b95:	4c 8d 05 e4 9e 01 00 	lea    0x19ee4(%rip),%r8        # 1da80 <BishopMask>
    3b9c:	4c 8d 0d dd a0 01 00 	lea    0x1a0dd(%rip),%r9        # 1dc80 <QueenMask>
    3ba3:	45 31 d2             	xor    %r10d,%r10d
    3ba6:	66 2e 0f 1f 84 00 00 	cs nopw 0x0(%rax,%rax,1)
    3bad:	00 00 00 
    3bb0:	45 89 d3             	mov    %r10d,%r11d
    3bb3:	41 83 e3 07          	and    $0x7,%r11d
    3bb7:	44 89 d3             	mov    %r10d,%ebx
    3bba:	83 e3 f8             	and    $0xfffffff8,%ebx
    3bbd:	48 8b 1c 33          	mov    (%rbx,%rsi,1),%rbx
    3bc1:	4a 0b 1c da          	or     (%rdx,%r11,8),%rbx
    3bc5:	48 89 1c 39          	mov    %rbx,(%rcx,%rdi,1)
    3bc9:	4e 8b 1c 39          	mov    (%rcx,%r15,1),%r11
    3bcd:	4e 0b 1c 31          	or     (%rcx,%r14,1),%r11
    3bd1:	4e 89 1c 01          	mov    %r11,(%rcx,%r8,1)
    3bd5:	49 09 db             	or     %rbx,%r11
    3bd8:	4e 89 1c 09          	mov    %r11,(%rcx,%r9,1)
    3bdc:	49 ff c2             	inc    %r10
    3bdf:	48 83 c1 08          	add    $0x8,%rcx
    3be3:	49 83 fa 40          	cmp    $0x40,%r10
    3be7:	75 c7                	jne    3bb0 <_Z22SetupPrecalculatedDatav+0x1ed0>
    3be9:	48 8b 0d 48 9b 01 00 	mov    0x19b48(%rip),%rcx        # 1d738 <FileMask+0x38>
    3bf0:	48 0b 0d 39 9b 01 00 	or     0x19b39(%rip),%rcx        # 1d730 <FileMask+0x30>
    3bf7:	48 0b 0d 2a 9b 01 00 	or     0x19b2a(%rip),%rcx        # 1d728 <FileMask+0x28>
    3bfe:	48 0b 0d 1b 9b 01 00 	or     0x19b1b(%rip),%rcx        # 1d720 <FileMask+0x20>
    3c05:	48 0b 0d 0c 9b 01 00 	or     0x19b0c(%rip),%rcx        # 1d718 <FileMask+0x18>
    3c0c:	48 0b 0d fd 9a 01 00 	or     0x19afd(%rip),%rcx        # 1d710 <FileMask+0x10>
    3c13:	48 c7 05 62 9b 01 00 	movq   $0x0,0x19b62(%rip)        # 1d780 <AboveMask>
    3c1a:	00 00 00 00 
    3c1e:	48 8b 15 53 9b 01 00 	mov    0x19b53(%rip),%rdx        # 1d778 <RankMask+0x38>
    3c25:	48 0b 15 44 9b 01 00 	or     0x19b44(%rip),%rdx        # 1d770 <RankMask+0x30>
    3c2c:	48 0b 15 35 9b 01 00 	or     0x19b35(%rip),%rdx        # 1d768 <RankMask+0x28>
    3c33:	48 0b 15 26 9b 01 00 	or     0x19b26(%rip),%rdx        # 1d760 <RankMask+0x20>
    3c3a:	48 0b 15 17 9b 01 00 	or     0x19b17(%rip),%rdx        # 1d758 <RankMask+0x18>
    3c41:	48 0b 15 08 9b 01 00 	or     0x19b08(%rip),%rdx        # 1d750 <RankMask+0x10>
    3c48:	48 0b 15 f9 9a 01 00 	or     0x19af9(%rip),%rdx        # 1d748 <RankMask+0x8>
    3c4f:	48 0b 0d b2 9a 01 00 	or     0x19ab2(%rip),%rcx        # 1d708 <FileMask+0x8>
    3c56:	48 c7 05 9f 9b 01 00 	movq   $0x0,0x19b9f(%rip)        # 1d800 <LeftMask>
    3c5d:	00 00 00 00 
    3c61:	48 89 15 58 9b 01 00 	mov    %rdx,0x19b58(%rip)        # 1d7c0 <BelowMask>
    3c68:	48 89 0d d1 9b 01 00 	mov    %rcx,0x19bd1(%rip)        # 1d840 <RightMask>
    3c6f:	48 c7 05 4e 9b 01 00 	movq   $0x0,0x19b4e(%rip)        # 1d7c8 <BelowMask+0x8>
    3c76:	00 00 00 00 
    3c7a:	48 c7 05 c3 9b 01 00 	movq   $0x0,0x19bc3(%rip)        # 1d848 <RightMask+0x8>
    3c81:	00 00 00 00 
    3c85:	48 8b 0d b4 9a 01 00 	mov    0x19ab4(%rip),%rcx        # 1d740 <RankMask>
    3c8c:	48 8b 15 6d 9a 01 00 	mov    0x19a6d(%rip),%rdx        # 1d700 <FileMask>
    3c93:	48 8b 35 9e 9a 01 00 	mov    0x19a9e(%rip),%rsi        # 1d738 <FileMask+0x38>
    3c9a:	48 0b 35 8f 9a 01 00 	or     0x19a8f(%rip),%rsi        # 1d730 <FileMask+0x30>
    3ca1:	48 0b 35 80 9a 01 00 	or     0x19a80(%rip),%rsi        # 1d728 <FileMask+0x28>
    3ca8:	48 0b 35 71 9a 01 00 	or     0x19a71(%rip),%rsi        # 1d720 <FileMask+0x20>
    3caf:	48 0b 35 62 9a 01 00 	or     0x19a62(%rip),%rsi        # 1d718 <FileMask+0x18>
    3cb6:	48 89 0d cb 9a 01 00 	mov    %rcx,0x19acb(%rip)        # 1d788 <AboveMask+0x8>
    3cbd:	48 8b 0d b4 9a 01 00 	mov    0x19ab4(%rip),%rcx        # 1d778 <RankMask+0x38>
    3cc4:	48 0b 0d a5 9a 01 00 	or     0x19aa5(%rip),%rcx        # 1d770 <RankMask+0x30>
    3ccb:	48 0b 0d 96 9a 01 00 	or     0x19a96(%rip),%rcx        # 1d768 <RankMask+0x28>
    3cd2:	48 0b 0d 87 9a 01 00 	or     0x19a87(%rip),%rcx        # 1d760 <RankMask+0x20>
    3cd9:	48 0b 0d 78 9a 01 00 	or     0x19a78(%rip),%rcx        # 1d758 <RankMask+0x18>
    3ce0:	48 0b 0d 69 9a 01 00 	or     0x19a69(%rip),%rcx        # 1d750 <RankMask+0x10>
    3ce7:	48 89 15 1a 9b 01 00 	mov    %rdx,0x19b1a(%rip)        # 1d808 <LeftMask+0x8>
    3cee:	48 0b 35 1b 9a 01 00 	or     0x19a1b(%rip),%rsi        # 1d710 <FileMask+0x10>
    3cf5:	48 89 0d cc 9a 01 00 	mov    %rcx,0x19acc(%rip)        # 1d7c8 <BelowMask+0x8>
    3cfc:	48 89 35 45 9b 01 00 	mov    %rsi,0x19b45(%rip)        # 1d848 <RightMask+0x8>
    3d03:	48 c7 05 c2 9a 01 00 	movq   $0x0,0x19ac2(%rip)        # 1d7d0 <BelowMask+0x10>
    3d0a:	00 00 00 00 
    3d0e:	48 8b 0d eb 99 01 00 	mov    0x199eb(%rip),%rcx        # 1d700 <FileMask>
    3d15:	48 8b 15 24 9a 01 00 	mov    0x19a24(%rip),%rdx        # 1d740 <RankMask>
    3d1c:	48 0b 15 25 9a 01 00 	or     0x19a25(%rip),%rdx        # 1d748 <RankMask+0x8>
    3d23:	48 0b 0d de 99 01 00 	or     0x199de(%rip),%rcx        # 1d708 <FileMask+0x8>
    3d2a:	48 c7 05 1b 9b 01 00 	movq   $0x0,0x19b1b(%rip)        # 1d850 <RightMask+0x10>
    3d31:	00 00 00 00 
    3d35:	48 8b 35 fc 99 01 00 	mov    0x199fc(%rip),%rsi        # 1d738 <FileMask+0x38>
    3d3c:	48 0b 35 ed 99 01 00 	or     0x199ed(%rip),%rsi        # 1d730 <FileMask+0x30>
    3d43:	48 0b 35 de 99 01 00 	or     0x199de(%rip),%rsi        # 1d728 <FileMask+0x28>
    3d4a:	48 0b 35 cf 99 01 00 	or     0x199cf(%rip),%rsi        # 1d720 <FileMask+0x20>
    3d51:	48 89 15 38 9a 01 00 	mov    %rdx,0x19a38(%rip)        # 1d790 <AboveMask+0x10>
    3d58:	48 8b 15 19 9a 01 00 	mov    0x19a19(%rip),%rdx        # 1d778 <RankMask+0x38>
    3d5f:	48 0b 15 0a 9a 01 00 	or     0x19a0a(%rip),%rdx        # 1d770 <RankMask+0x30>
    3d66:	48 0b 15 fb 99 01 00 	or     0x199fb(%rip),%rdx        # 1d768 <RankMask+0x28>
    3d6d:	48 0b 15 ec 99 01 00 	or     0x199ec(%rip),%rdx        # 1d760 <RankMask+0x20>
    3d74:	48 0b 15 dd 99 01 00 	or     0x199dd(%rip),%rdx        # 1d758 <RankMask+0x18>
    3d7b:	48 0b 35 96 99 01 00 	or     0x19996(%rip),%rsi        # 1d718 <FileMask+0x18>
    3d82:	48 89 0d 87 9a 01 00 	mov    %rcx,0x19a87(%rip)        # 1d810 <LeftMask+0x10>
    3d89:	48 89 15 40 9a 01 00 	mov    %rdx,0x19a40(%rip)        # 1d7d0 <BelowMask+0x10>
    3d90:	48 89 35 b9 9a 01 00 	mov    %rsi,0x19ab9(%rip)        # 1d850 <RightMask+0x10>
    3d97:	48 c7 05 f6 99 01 00 	movq   $0x0,0x199f6(%rip)        # 1d798 <AboveMask+0x18>
    3d9e:	00 00 00 00 
    3da2:	48 c7 05 2b 9a 01 00 	movq   $0x0,0x19a2b(%rip)        # 1d7d8 <BelowMask+0x18>
    3da9:	00 00 00 00 
    3dad:	48 8b 0d 4c 99 01 00 	mov    0x1994c(%rip),%rcx        # 1d700 <FileMask>
    3db4:	48 0b 0d 4d 99 01 00 	or     0x1994d(%rip),%rcx        # 1d708 <FileMask+0x8>
    3dbb:	48 c7 05 52 9a 01 00 	movq   $0x0,0x19a52(%rip)        # 1d818 <LeftMask+0x18>
    3dc2:	00 00 00 00 
    3dc6:	48 8b 15 73 99 01 00 	mov    0x19973(%rip),%rdx        # 1d740 <RankMask>
    3dcd:	48 0b 15 74 99 01 00 	or     0x19974(%rip),%rdx        # 1d748 <RankMask+0x8>
    3dd4:	48 0b 15 75 99 01 00 	or     0x19975(%rip),%rdx        # 1d750 <RankMask+0x10>
    3ddb:	48 0b 0d 2e 99 01 00 	or     0x1992e(%rip),%rcx        # 1d710 <FileMask+0x10>
    3de2:	48 c7 05 6b 9a 01 00 	movq   $0x0,0x19a6b(%rip)        # 1d858 <RightMask+0x18>
    3de9:	00 00 00 00 
    3ded:	48 8b 35 44 99 01 00 	mov    0x19944(%rip),%rsi        # 1d738 <FileMask+0x38>
    3df4:	48 0b 35 35 99 01 00 	or     0x19935(%rip),%rsi        # 1d730 <FileMask+0x30>
    3dfb:	48 89 15 96 99 01 00 	mov    %rdx,0x19996(%rip)        # 1d798 <AboveMask+0x18>
    3e02:	48 0b 35 1f 99 01 00 	or     0x1991f(%rip),%rsi        # 1d728 <FileMask+0x28>
    3e09:	48 8b 15 68 99 01 00 	mov    0x19968(%rip),%rdx        # 1d778 <RankMask+0x38>
    3e10:	48 0b 15 59 99 01 00 	or     0x19959(%rip),%rdx        # 1d770 <RankMask+0x30>
    3e17:	48 0b 15 4a 99 01 00 	or     0x1994a(%rip),%rdx        # 1d768 <RankMask+0x28>
    3e1e:	48 0b 15 3b 99 01 00 	or     0x1993b(%rip),%rdx        # 1d760 <RankMask+0x20>
    3e25:	48 0b 35 f4 98 01 00 	or     0x198f4(%rip),%rsi        # 1d720 <FileMask+0x20>
    3e2c:	48 89 0d e5 99 01 00 	mov    %rcx,0x199e5(%rip)        # 1d818 <LeftMask+0x18>
    3e33:	48 89 15 9e 99 01 00 	mov    %rdx,0x1999e(%rip)        # 1d7d8 <BelowMask+0x18>
    3e3a:	48 89 35 17 9a 01 00 	mov    %rsi,0x19a17(%rip)        # 1d858 <RightMask+0x18>
    3e41:	48 c7 05 54 99 01 00 	movq   $0x0,0x19954(%rip)        # 1d7a0 <AboveMask+0x20>
    3e48:	00 00 00 00 
    3e4c:	48 c7 05 89 99 01 00 	movq   $0x0,0x19989(%rip)        # 1d7e0 <BelowMask+0x20>
    3e53:	00 00 00 00 
    3e57:	48 8b 0d a2 98 01 00 	mov    0x198a2(%rip),%rcx        # 1d700 <FileMask>
    3e5e:	48 0b 0d a3 98 01 00 	or     0x198a3(%rip),%rcx        # 1d708 <FileMask+0x8>
    3e65:	48 c7 05 b0 99 01 00 	movq   $0x0,0x199b0(%rip)        # 1d820 <LeftMask+0x20>
    3e6c:	00 00 00 00 
    3e70:	48 0b 0d 99 98 01 00 	or     0x19899(%rip),%rcx        # 1d710 <FileMask+0x10>
    3e77:	48 8b 15 c2 98 01 00 	mov    0x198c2(%rip),%rdx        # 1d740 <RankMask>
    3e7e:	48 0b 15 c3 98 01 00 	or     0x198c3(%rip),%rdx        # 1d748 <RankMask+0x8>
    3e85:	48 0b 15 c4 98 01 00 	or     0x198c4(%rip),%rdx        # 1d750 <RankMask+0x10>
    3e8c:	48 0b 15 c5 98 01 00 	or     0x198c5(%rip),%rdx        # 1d758 <RankMask+0x18>
    3e93:	48 0b 0d 7e 98 01 00 	or     0x1987e(%rip),%rcx        # 1d718 <FileMask+0x18>
    3e9a:	48 c7 05 bb 99 01 00 	movq   $0x0,0x199bb(%rip)        # 1d860 <RightMask+0x20>
    3ea1:	00 00 00 00 
    3ea5:	48 8b 35 8c 98 01 00 	mov    0x1988c(%rip),%rsi        # 1d738 <FileMask+0x38>
    3eac:	48 0b 35 7d 98 01 00 	or     0x1987d(%rip),%rsi        # 1d730 <FileMask+0x30>
    3eb3:	48 89 15 e6 98 01 00 	mov    %rdx,0x198e6(%rip)        # 1d7a0 <AboveMask+0x20>
    3eba:	48 8b 15 b7 98 01 00 	mov    0x198b7(%rip),%rdx        # 1d778 <RankMask+0x38>
    3ec1:	48 0b 15 a8 98 01 00 	or     0x198a8(%rip),%rdx        # 1d770 <RankMask+0x30>
    3ec8:	48 0b 15 99 98 01 00 	or     0x19899(%rip),%rdx        # 1d768 <RankMask+0x28>
    3ecf:	48 0b 35 52 98 01 00 	or     0x19852(%rip),%rsi        # 1d728 <FileMask+0x28>
    3ed6:	48 89 0d 43 99 01 00 	mov    %rcx,0x19943(%rip)        # 1d820 <LeftMask+0x20>
    3edd:	48 89 15 fc 98 01 00 	mov    %rdx,0x198fc(%rip)        # 1d7e0 <BelowMask+0x20>
    3ee4:	48 89 35 75 99 01 00 	mov    %rsi,0x19975(%rip)        # 1d860 <RightMask+0x20>
    3eeb:	48 c7 05 b2 98 01 00 	movq   $0x0,0x198b2(%rip)        # 1d7a8 <AboveMask+0x28>
    3ef2:	00 00 00 00 
    3ef6:	48 c7 05 e7 98 01 00 	movq   $0x0,0x198e7(%rip)        # 1d7e8 <BelowMask+0x28>
    3efd:	00 00 00 00 
    3f01:	48 8b 0d f8 97 01 00 	mov    0x197f8(%rip),%rcx        # 1d700 <FileMask>
    3f08:	48 0b 0d f9 97 01 00 	or     0x197f9(%rip),%rcx        # 1d708 <FileMask+0x8>
    3f0f:	48 0b 0d fa 97 01 00 	or     0x197fa(%rip),%rcx        # 1d710 <FileMask+0x10>
    3f16:	48 0b 0d fb 97 01 00 	or     0x197fb(%rip),%rcx        # 1d718 <FileMask+0x18>
    3f1d:	48 c7 05 00 99 01 00 	movq   $0x0,0x19900(%rip)        # 1d828 <LeftMask+0x28>
    3f24:	00 00 00 00 
    3f28:	48 8b 15 11 98 01 00 	mov    0x19811(%rip),%rdx        # 1d740 <RankMask>
    3f2f:	48 0b 15 12 98 01 00 	or     0x19812(%rip),%rdx        # 1d748 <RankMask+0x8>
    3f36:	48 0b 15 13 98 01 00 	or     0x19813(%rip),%rdx        # 1d750 <RankMask+0x10>
    3f3d:	48 0b 15 14 98 01 00 	or     0x19814(%rip),%rdx        # 1d758 <RankMask+0x18>
    3f44:	48 0b 15 15 98 01 00 	or     0x19815(%rip),%rdx        # 1d760 <RankMask+0x20>
    3f4b:	48 0b 0d ce 97 01 00 	or     0x197ce(%rip),%rcx        # 1d720 <FileMask+0x20>
    3f52:	48 c7 05 0b 99 01 00 	movq   $0x0,0x1990b(%rip)        # 1d868 <RightMask+0x28>
    3f59:	00 00 00 00 
    3f5d:	48 89 15 44 98 01 00 	mov    %rdx,0x19844(%rip)        # 1d7a8 <AboveMask+0x28>
    3f64:	48 8b 15 cd 97 01 00 	mov    0x197cd(%rip),%rdx        # 1d738 <FileMask+0x38>
    3f6b:	48 8b 35 06 98 01 00 	mov    0x19806(%rip),%rsi        # 1d778 <RankMask+0x38>
    3f72:	48 0b 35 f7 97 01 00 	or     0x197f7(%rip),%rsi        # 1d770 <RankMask+0x30>
    3f79:	48 0b 15 b0 97 01 00 	or     0x197b0(%rip),%rdx        # 1d730 <FileMask+0x30>
    3f80:	48 89 0d a1 98 01 00 	mov    %rcx,0x198a1(%rip)        # 1d828 <LeftMask+0x28>
    3f87:	48 89 35 5a 98 01 00 	mov    %rsi,0x1985a(%rip)        # 1d7e8 <BelowMask+0x28>
    3f8e:	48 89 15 d3 98 01 00 	mov    %rdx,0x198d3(%rip)        # 1d868 <RightMask+0x28>
    3f95:	48 c7 05 10 98 01 00 	movq   $0x0,0x19810(%rip)        # 1d7b0 <AboveMask+0x30>
    3f9c:	00 00 00 00 
    3fa0:	48 c7 05 45 98 01 00 	movq   $0x0,0x19845(%rip)        # 1d7f0 <BelowMask+0x30>
    3fa7:	00 00 00 00 
    3fab:	48 8b 0d 4e 97 01 00 	mov    0x1974e(%rip),%rcx        # 1d700 <FileMask>
    3fb2:	48 0b 0d 4f 97 01 00 	or     0x1974f(%rip),%rcx        # 1d708 <FileMask+0x8>
    3fb9:	48 0b 0d 50 97 01 00 	or     0x19750(%rip),%rcx        # 1d710 <FileMask+0x10>
    3fc0:	48 0b 0d 51 97 01 00 	or     0x19751(%rip),%rcx        # 1d718 <FileMask+0x18>
    3fc7:	48 c7 05 5e 98 01 00 	movq   $0x0,0x1985e(%rip)        # 1d830 <LeftMask+0x30>
    3fce:	00 00 00 00 
    3fd2:	48 0b 0d 47 97 01 00 	or     0x19747(%rip),%rcx        # 1d720 <FileMask+0x20>
    3fd9:	48 8b 15 60 97 01 00 	mov    0x19760(%rip),%rdx        # 1d740 <RankMask>
    3fe0:	48 0b 15 61 97 01 00 	or     0x19761(%rip),%rdx        # 1d748 <RankMask+0x8>
    3fe7:	48 0b 15 62 97 01 00 	or     0x19762(%rip),%rdx        # 1d750 <RankMask+0x10>
    3fee:	48 0b 15 63 97 01 00 	or     0x19763(%rip),%rdx        # 1d758 <RankMask+0x18>
    3ff5:	48 0b 15 64 97 01 00 	or     0x19764(%rip),%rdx        # 1d760 <RankMask+0x20>
    3ffc:	48 0b 15 65 97 01 00 	or     0x19765(%rip),%rdx        # 1d768 <RankMask+0x28>
    4003:	48 0b 0d 1e 97 01 00 	or     0x1971e(%rip),%rcx        # 1d728 <FileMask+0x28>
    400a:	48 c7 05 5b 98 01 00 	movq   $0x0,0x1985b(%rip)        # 1d870 <RightMask+0x30>
    4011:	00 00 00 00 
    4015:	48 89 15 94 97 01 00 	mov    %rdx,0x19794(%rip)        # 1d7b0 <AboveMask+0x30>
    401c:	48 89 0d 0d 98 01 00 	mov    %rcx,0x1980d(%rip)        # 1d830 <LeftMask+0x30>
    4023:	48 8b 0d 4e 97 01 00 	mov    0x1974e(%rip),%rcx        # 1d778 <RankMask+0x38>
    402a:	48 8b 15 07 97 01 00 	mov    0x19707(%rip),%rdx        # 1d738 <FileMask+0x38>
    4031:	48 89 0d b8 97 01 00 	mov    %rcx,0x197b8(%rip)        # 1d7f0 <BelowMask+0x30>
    4038:	48 89 15 31 98 01 00 	mov    %rdx,0x19831(%rip)        # 1d870 <RightMask+0x30>
    403f:	48 c7 05 6e 97 01 00 	movq   $0x0,0x1976e(%rip)        # 1d7b8 <AboveMask+0x38>
    4046:	00 00 00 00 
    404a:	48 c7 05 a3 97 01 00 	movq   $0x0,0x197a3(%rip)        # 1d7f8 <BelowMask+0x38>
    4051:	00 00 00 00 
    4055:	48 8b 0d a4 96 01 00 	mov    0x196a4(%rip),%rcx        # 1d700 <FileMask>
    405c:	48 0b 0d a5 96 01 00 	or     0x196a5(%rip),%rcx        # 1d708 <FileMask+0x8>
    4063:	48 0b 0d a6 96 01 00 	or     0x196a6(%rip),%rcx        # 1d710 <FileMask+0x10>
    406a:	48 0b 0d a7 96 01 00 	or     0x196a7(%rip),%rcx        # 1d718 <FileMask+0x18>
    4071:	48 0b 0d a8 96 01 00 	or     0x196a8(%rip),%rcx        # 1d720 <FileMask+0x20>
    4078:	48 0b 0d a9 96 01 00 	or     0x196a9(%rip),%rcx        # 1d728 <FileMask+0x28>
    407f:	48 c7 05 ae 97 01 00 	movq   $0x0,0x197ae(%rip)        # 1d838 <LeftMask+0x38>
    4086:	00 00 00 00 
    408a:	48 8b 15 af 96 01 00 	mov    0x196af(%rip),%rdx        # 1d740 <RankMask>
    4091:	48 0b 15 b0 96 01 00 	or     0x196b0(%rip),%rdx        # 1d748 <RankMask+0x8>
    4098:	48 0b 15 b1 96 01 00 	or     0x196b1(%rip),%rdx        # 1d750 <RankMask+0x10>
    409f:	48 0b 15 b2 96 01 00 	or     0x196b2(%rip),%rdx        # 1d758 <RankMask+0x18>
    40a6:	48 0b 15 b3 96 01 00 	or     0x196b3(%rip),%rdx        # 1d760 <RankMask+0x20>
    40ad:	48 0b 15 b4 96 01 00 	or     0x196b4(%rip),%rdx        # 1d768 <RankMask+0x28>
    40b4:	48 0b 15 b5 96 01 00 	or     0x196b5(%rip),%rdx        # 1d770 <RankMask+0x30>
    40bb:	48 0b 0d 6e 96 01 00 	or     0x1966e(%rip),%rcx        # 1d730 <FileMask+0x30>
    40c2:	48 c7 05 ab 97 01 00 	movq   $0x0,0x197ab(%rip)        # 1d878 <RightMask+0x38>
    40c9:	00 00 00 00 
    40cd:	48 89 15 e4 96 01 00 	mov    %rdx,0x196e4(%rip)        # 1d7b8 <AboveMask+0x38>
    40d4:	48 89 0d 5d 97 01 00 	mov    %rcx,0x1975d(%rip)        # 1d838 <LeftMask+0x38>
    40db:	48 c7 05 ea a5 01 00 	movq   $0x0,0x1a5ea(%rip)        # 1e6d0 <WhiteSqMask>
    40e2:	00 00 00 00 
    40e6:	48 c7 05 e7 a5 01 00 	movq   $0x0,0x1a5e7(%rip)        # 1e6d8 <BlackSqMask>
    40ed:	00 00 00 00 
    40f1:	31 c9                	xor    %ecx,%ecx
    40f3:	31 d2                	xor    %edx,%edx
    40f5:	31 f6                	xor    %esi,%esi
    40f7:	eb 1e                	jmp    4117 <_Z22SetupPrecalculatedDatav+0x2437>
    40f9:	0f 1f 80 00 00 00 00 	nopl   0x0(%rax)
    4100:	48 09 fe             	or     %rdi,%rsi
    4103:	48 89 35 c6 a5 01 00 	mov    %rsi,0x1a5c6(%rip)        # 1e6d0 <WhiteSqMask>
    410a:	48 ff c1             	inc    %rcx
    410d:	48 83 c0 08          	add    $0x8,%rax
    4111:	48 83 f9 40          	cmp    $0x40,%rcx
    4115:	74 2a                	je     4141 <_Z22SetupPrecalculatedDatav+0x2461>
    4117:	41 89 c8             	mov    %ecx,%r8d
    411a:	41 c1 e8 03          	shr    $0x3,%r8d
    411e:	41 01 c8             	add    %ecx,%r8d
    4121:	48 8b 38             	mov    (%rax),%rdi
    4124:	41 f6 c0 01          	test   $0x1,%r8b
    4128:	74 d6                	je     4100 <_Z22SetupPrecalculatedDatav+0x2420>
    412a:	48 09 fa             	or     %rdi,%rdx
    412d:	48 89 15 a4 a5 01 00 	mov    %rdx,0x1a5a4(%rip)        # 1e6d8 <BlackSqMask>
    4134:	48 ff c1             	inc    %rcx
    4137:	48 83 c0 08          	add    $0x8,%rax
    413b:	48 83 f9 40          	cmp    $0x40,%rcx
    413f:	75 d6                	jne    4117 <_Z22SetupPrecalculatedDatav+0x2437>
    4141:	48 8b 05 90 96 01 00 	mov    0x19690(%rip),%rax        # 1d7d8 <BelowMask+0x18>
    4148:	48 8b 0d 09 97 01 00 	mov    0x19709(%rip),%rcx        # 1d858 <RightMask+0x18>
    414f:	48 89 ca             	mov    %rcx,%rdx
    4152:	48 21 c2             	and    %rax,%rdx
    4155:	48 89 15 44 a1 01 00 	mov    %rdx,0x1a144(%rip)        # 1e2a0 <WhiteKingSide>
    415c:	48 8b 15 bd 96 01 00 	mov    0x196bd(%rip),%rdx        # 1d820 <LeftMask+0x20>
    4163:	48 21 d0             	and    %rdx,%rax
    4166:	48 89 05 3b a1 01 00 	mov    %rax,0x1a13b(%rip)        # 1e2a8 <WhiteQueenSide>
    416d:	48 8b 35 2c 96 01 00 	mov    0x1962c(%rip),%rsi        # 1d7a0 <AboveMask+0x20>
    4174:	48 21 f1             	and    %rsi,%rcx
    4177:	48 89 0d 32 a1 01 00 	mov    %rcx,0x1a132(%rip)        # 1e2b0 <BlackKingSide>
    417e:	48 21 d6             	and    %rdx,%rsi
    4181:	48 8b 05 80 95 01 00 	mov    0x19580(%rip),%rax        # 1d708 <FileMask+0x8>
    4188:	48 0b 05 71 95 01 00 	or     0x19571(%rip),%rax        # 1d700 <FileMask>
    418f:	48 89 35 22 a1 01 00 	mov    %rsi,0x1a122(%rip)        # 1e2b8 <BlackQueenSide>
    4196:	48 8b 0d 73 95 01 00 	mov    0x19573(%rip),%rcx        # 1d710 <FileMask+0x10>
    419d:	48 09 c8             	or     %rcx,%rax
    41a0:	4c 8b 35 71 95 01 00 	mov    0x19571(%rip),%r14        # 1d718 <FileMask+0x18>
    41a7:	48 89 05 42 a5 01 00 	mov    %rax,0x1a542(%rip)        # 1e6f0 <KingFilesMask>
    41ae:	48 89 05 43 a5 01 00 	mov    %rax,0x1a543(%rip)        # 1e6f8 <KingFilesMask+0x8>
    41b5:	48 89 05 44 a5 01 00 	mov    %rax,0x1a544(%rip)        # 1e700 <KingFilesMask+0x10>
    41bc:	4c 09 f0             	or     %r14,%rax
    41bf:	48 89 05 22 a5 01 00 	mov    %rax,0x1a522(%rip)        # 1e6e8 <QSMask>
    41c6:	48 8b 35 5b 95 01 00 	mov    0x1955b(%rip),%rsi        # 1d728 <FileMask+0x28>
    41cd:	4c 8b 1d 4c 95 01 00 	mov    0x1954c(%rip),%r11        # 1d720 <FileMask+0x20>
    41d4:	49 09 f3             	or     %rsi,%r11
    41d7:	48 8b 3d 52 95 01 00 	mov    0x19552(%rip),%rdi        # 1d730 <FileMask+0x30>
    41de:	4c 8b 15 53 95 01 00 	mov    0x19553(%rip),%r10        # 1d738 <FileMask+0x38>
    41e5:	48 89 f8             	mov    %rdi,%rax
    41e8:	4c 09 d0             	or     %r10,%rax
    41eb:	4c 09 d8             	or     %r11,%rax
    41ee:	48 89 05 eb a4 01 00 	mov    %rax,0x1a4eb(%rip)        # 1e6e0 <KSMask>
    41f5:	48 8b 1d 24 8e 01 00 	mov    0x18e24(%rip),%rbx        # 1d020 <Mask+0x120>
    41fc:	48 0b 1d 15 8e 01 00 	or     0x18e15(%rip),%rbx        # 1d018 <Mask+0x118>
    4203:	66 0f 6f 15 d5 8d 01 	movdqa 0x18dd5(%rip),%xmm2        # 1cfe0 <Mask+0xe0>
    420a:	00 
    420b:	66 0f 6f 1d bd 8d 01 	movdqa 0x18dbd(%rip),%xmm3        # 1cfd0 <Mask+0xd0>
    4212:	00 
    4213:	48 8b 05 c6 8d 01 00 	mov    0x18dc6(%rip),%rax        # 1cfe0 <Mask+0xe0>
    421a:	66 0f 6f 05 7e 8d 01 	movdqa 0x18d7e(%rip),%xmm0        # 1cfa0 <Mask+0xa0>
    4221:	00 
    4222:	66 0f 6f 0d 66 8d 01 	movdqa 0x18d66(%rip),%xmm1        # 1cf90 <Mask+0x90>
    4229:	00 
    422a:	66 0f 6f e2          	movdqa %xmm2,%xmm4
    422e:	66 0f eb e0          	por    %xmm0,%xmm4
    4232:	66 0f 6f eb          	movdqa %xmm3,%xmm5
    4236:	66 0f eb e9          	por    %xmm1,%xmm5
    423a:	66 0f eb ec          	por    %xmm4,%xmm5
    423e:	66 0f 70 e5 ee       	pshufd $0xee,%xmm5,%xmm4
    4243:	66 0f eb e5          	por    %xmm5,%xmm4
    4247:	66 48 0f 7e e2       	movq   %xmm4,%rdx
    424c:	48 09 da             	or     %rbx,%rdx
    424f:	4c 8b 05 fa 8c 01 00 	mov    0x18cfa(%rip),%r8        # 1cf50 <Mask+0x50>
    4256:	4c 8b 0d fb 8c 01 00 	mov    0x18cfb(%rip),%r9        # 1cf58 <Mask+0x58>
    425d:	4c 89 44 24 a0       	mov    %r8,-0x60(%rsp)
    4262:	4c 89 4c 24 80       	mov    %r9,-0x80(%rsp)
    4267:	4d 09 c8             	or     %r9,%r8
    426a:	4c 8b 0d ef 8c 01 00 	mov    0x18cef(%rip),%r9        # 1cf60 <Mask+0x60>
    4271:	4c 89 4c 24 d0       	mov    %r9,-0x30(%rsp)
    4276:	4d 09 c8             	or     %r9,%r8
    4279:	4c 8b 0d e8 8c 01 00 	mov    0x18ce8(%rip),%r9        # 1cf68 <Mask+0x68>
    4280:	4c 89 4c 24 c0       	mov    %r9,-0x40(%rsp)
    4285:	4d 09 c8             	or     %r9,%r8
    4288:	49 09 d0             	or     %rdx,%r8
    428b:	4c 89 05 2e a4 01 00 	mov    %r8,0x1a42e(%rip)        # 1e6c0 <WhiteStrongSquareMask>
    4292:	4c 8b 25 77 8d 01 00 	mov    0x18d77(%rip),%r12        # 1d010 <Mask+0x110>
    4299:	4c 8b 3d 88 8d 01 00 	mov    0x18d88(%rip),%r15        # 1d028 <Mask+0x128>
    42a0:	66 0f 6f 2d b8 8d 01 	movdqa 0x18db8(%rip),%xmm5        # 1d060 <Mask+0x160>
    42a7:	00 
    42a8:	66 0f 6f 35 a0 8d 01 	movdqa 0x18da0(%rip),%xmm6        # 1d050 <Mask+0x150>
    42af:	00 
    42b0:	66 0f 6f 25 d8 8d 01 	movdqa 0x18dd8(%rip),%xmm4        # 1d090 <Mask+0x190>
    42b7:	00 
    42b8:	66 49 0f 6e ff       	movq   %r15,%xmm7
    42bd:	66 4d 0f 6e c4       	movq   %r12,%xmm8
    42c2:	66 44 0f 6c c7       	punpcklqdq %xmm7,%xmm8
    42c7:	66 0f 6f fe          	movdqa %xmm6,%xmm7
    42cb:	66 0f eb fc          	por    %xmm4,%xmm7
    42cf:	66 44 0f eb c5       	por    %xmm5,%xmm8
    42d4:	66 44 0f eb c7       	por    %xmm7,%xmm8
    42d9:	66 41 0f 70 f8 ee    	pshufd $0xee,%xmm8,%xmm7
    42df:	66 41 0f eb f8       	por    %xmm8,%xmm7
    42e4:	66 44 0f 70 c3 ee    	pshufd $0xee,%xmm3,%xmm8
    42ea:	49 89 d8             	mov    %rbx,%r8
    42ed:	49 09 c0             	or     %rax,%r8
    42f0:	66 4d 0f 7e c1       	movq   %xmm8,%r9
    42f5:	4c 89 4c 24 b0       	mov    %r9,-0x50(%rsp)
    42fa:	4d 09 c8             	or     %r9,%r8
    42fd:	4c 8b 2d a4 8d 01 00 	mov    0x18da4(%rip),%r13        # 1d0a8 <Mask+0x1a8>
    4304:	4d 09 e8             	or     %r13,%r8
    4307:	48 8b 2d 92 8d 01 00 	mov    0x18d92(%rip),%rbp        # 1d0a0 <Mask+0x1a0>
    430e:	49 09 e8             	or     %rbp,%r8
    4311:	66 49 0f 7e f9       	movq   %xmm7,%r9
    4316:	4d 09 c8             	or     %r9,%r8
    4319:	4c 89 05 a8 a3 01 00 	mov    %r8,0x1a3a8(%rip)        # 1e6c8 <BlackStrongSquareMask>
    4320:	66 0f 6f fe          	movdqa %xmm6,%xmm7
    4324:	66 0f eb fd          	por    %xmm5,%xmm7
    4328:	66 44 0f 70 c7 ee    	pshufd $0xee,%xmm7,%xmm8
    432e:	66 44 0f eb c7       	por    %xmm7,%xmm8
    4333:	66 4d 0f 7e c0       	movq   %xmm8,%r8
    4338:	4d 09 f8             	or     %r15,%r8
    433b:	4d 09 e0             	or     %r12,%r8
    433e:	49 09 d0             	or     %rdx,%r8
    4341:	4c 89 05 e8 a7 01 00 	mov    %r8,0x1a7e8(%rip)        # 1eb30 <CenterMask>
    4348:	4c 09 f1             	or     %r14,%rcx
    434b:	4c 09 d9             	or     %r11,%rcx
    434e:	48 89 0d b3 a3 01 00 	mov    %rcx,0x1a3b3(%rip)        # 1e708 <KingFilesMask+0x18>
    4355:	48 89 0d b4 a3 01 00 	mov    %rcx,0x1a3b4(%rip)        # 1e710 <KingFilesMask+0x20>
    435c:	48 09 f7             	or     %rsi,%rdi
    435f:	4c 09 d7             	or     %r10,%rdi
    4362:	48 89 3d af a3 01 00 	mov    %rdi,0x1a3af(%rip)        # 1e718 <KingFilesMask+0x28>
    4369:	48 89 3d b0 a3 01 00 	mov    %rdi,0x1a3b0(%rip)        # 1e720 <KingFilesMask+0x30>
    4370:	48 89 3d b1 a3 01 00 	mov    %rdi,0x1a3b1(%rip)        # 1e728 <KingFilesMask+0x38>
    4377:	31 c9                	xor    %ecx,%ecx
    4379:	48 8d 15 b0 a3 01 00 	lea    0x1a3b0(%rip),%rdx        # 1e730 <KingPressureMask>
    4380:	4c 8d 05 39 9f 01 00 	lea    0x19f39(%rip),%r8        # 1e2c0 <KingSafetyMask>
    4387:	66 0f 1f 84 00 00 00 	nopw   0x0(%rax,%rax,1)
    438e:	00 00 
    4390:	48 8d 71 01          	lea    0x1(%rcx),%rsi
    4394:	f6 c1 06             	test   $0x6,%cl
    4397:	48 89 cf             	mov    %rcx,%rdi
    439a:	48 0f 44 fe          	cmove  %rsi,%rdi
    439e:	49 8b 3c f8          	mov    (%r8,%rdi,8),%rdi
    43a2:	48 89 3c ca          	mov    %rdi,(%rdx,%rcx,8)
    43a6:	89 f7                	mov    %esi,%edi
    43a8:	f7 d7                	not    %edi
    43aa:	40 f6 c7 07          	test   $0x7,%dil
    43ae:	48 0f 44 f1          	cmove  %rcx,%rsi
    43b2:	49 8b 34 f0          	mov    (%r8,%rsi,8),%rsi
    43b6:	48 89 74 ca 08       	mov    %rsi,0x8(%rdx,%rcx,8)
    43bb:	48 83 c1 02          	add    $0x2,%rcx
    43bf:	48 83 f9 40          	cmp    $0x40,%rcx
    43c3:	75 cb                	jne    4390 <_Z22SetupPrecalculatedDatav+0x26b0>
    43c5:	31 c9                	xor    %ecx,%ecx
    43c7:	48 8d 15 62 a5 01 00 	lea    0x1a562(%rip),%rdx        # 1e930 <KingPressureMask1>
    43ce:	4c 8d 05 eb a0 01 00 	lea    0x1a0eb(%rip),%r8        # 1e4c0 <KingSafetyMask1>
    43d5:	66 66 2e 0f 1f 84 00 	data16 cs nopw 0x0(%rax,%rax,1)
    43dc:	00 00 00 00 
    43e0:	48 8d 71 01          	lea    0x1(%rcx),%rsi
    43e4:	f6 c1 06             	test   $0x6,%cl
    43e7:	48 89 cf             	mov    %rcx,%rdi
    43ea:	48 0f 44 fe          	cmove  %rsi,%rdi
    43ee:	49 8b 3c f8          	mov    (%r8,%rdi,8),%rdi
    43f2:	48 89 3c ca          	mov    %rdi,(%rdx,%rcx,8)
    43f6:	89 f7                	mov    %esi,%edi
    43f8:	f7 d7                	not    %edi
    43fa:	40 f6 c7 07          	test   $0x7,%dil
    43fe:	48 0f 44 f1          	cmove  %rcx,%rsi
    4402:	49 8b 34 f0          	mov    (%r8,%rsi,8),%rsi
    4406:	48 89 74 ca 08       	mov    %rsi,0x8(%rdx,%rcx,8)
    440b:	48 83 c1 02          	add    $0x2,%rcx
    440f:	48 83 f9 40          	cmp    $0x40,%rcx
    4413:	75 cb                	jne    43e0 <_Z22SetupPrecalculatedDatav+0x2700>
    4415:	66 48 0f 7e f1       	movq   %xmm6,%rcx
    441a:	66 0f 70 f6 ee       	pshufd $0xee,%xmm6,%xmm6
    441f:	66 48 0f 7e f2       	movq   %xmm6,%rdx
    4424:	66 48 0f 7e ee       	movq   %xmm5,%rsi
    4429:	48 09 ce             	or     %rcx,%rsi
    442c:	48 09 d6             	or     %rdx,%rsi
    442f:	66 0f 70 ed ee       	pshufd $0xee,%xmm5,%xmm5
    4434:	66 48 0f 7e e9       	movq   %xmm5,%rcx
    4439:	66 48 0f 7e e2       	movq   %xmm4,%rdx
    443e:	48 09 ca             	or     %rcx,%rdx
    4441:	48 09 f2             	or     %rsi,%rdx
    4444:	66 0f 70 e4 ee       	pshufd $0xee,%xmm4,%xmm4
    4449:	66 48 0f 7e e1       	movq   %xmm4,%rcx
    444e:	48 09 d1             	or     %rdx,%rcx
    4451:	4c 09 e1             	or     %r12,%rcx
    4454:	4c 09 fb             	or     %r15,%rbx
    4457:	48 09 eb             	or     %rbp,%rbx
    445a:	4c 09 eb             	or     %r13,%rbx
    445d:	48 09 cb             	or     %rcx,%rbx
    4460:	48 89 1d d9 a6 01 00 	mov    %rbx,0x1a6d9(%rip)        # 1eb40 <SpaceMask>
    4467:	66 48 0f 7e d9       	movq   %xmm3,%rcx
    446c:	66 0f 70 d2 ee       	pshufd $0xee,%xmm2,%xmm2
    4471:	66 48 0f 7e d2       	movq   %xmm2,%rdx
    4476:	66 48 0f 7e ce       	movq   %xmm1,%rsi
    447b:	48 09 ce             	or     %rcx,%rsi
    447e:	48 09 d6             	or     %rdx,%rsi
    4481:	66 0f 70 c9 ee       	pshufd $0xee,%xmm1,%xmm1
    4486:	66 48 0f 7e c9       	movq   %xmm1,%rcx
    448b:	66 48 0f 7e c2       	movq   %xmm0,%rdx
    4490:	48 09 ca             	or     %rcx,%rdx
    4493:	48 09 f2             	or     %rsi,%rdx
    4496:	66 0f 70 c0 ee       	pshufd $0xee,%xmm0,%xmm0
    449b:	66 48 0f 7e c1       	movq   %xmm0,%rcx
    44a0:	48 09 d1             	or     %rdx,%rcx
    44a3:	48 0b 4c 24 b0       	or     -0x50(%rsp),%rcx
    44a8:	48 0b 44 24 a0       	or     -0x60(%rsp),%rax
    44ad:	48 0b 44 24 80       	or     -0x80(%rsp),%rax
    44b2:	48 0b 44 24 d0       	or     -0x30(%rsp),%rax
    44b7:	48 0b 44 24 c0       	or     -0x40(%rsp),%rax
    44bc:	48 09 c8             	or     %rcx,%rax
    44bf:	48 89 05 82 a6 01 00 	mov    %rax,0x1a682(%rip)        # 1eb48 <SpaceMask+0x8>
    44c6:	48 83 c4 78          	add    $0x78,%rsp
    44ca:	5b                   	pop    %rbx
    44cb:	41 5c                	pop    %r12
    44cd:	41 5d                	pop    %r13
    44cf:	41 5e                	pop    %r14
    44d1:	41 5f                	pop    %r15
    44d3:	5d                   	pop    %rbp
    44d4:	c3                   	ret    
    44d5:	66 66 2e 0f 1f 84 00 	data16 cs nopw 0x0(%rax,%rax,1)
    44dc:	00 00 00 00 

00000000000044e0 <_Z16SetupCastleMasksP7state_t>:
    44e0:	48 63 8f 14 11 00 00 	movslq 0x1114(%rdi),%rcx
    44e7:	48 8d 05 12 8a 01 00 	lea    0x18a12(%rip),%rax        # 1cf00 <Mask>
    44ee:	48 8b 0c c8          	mov    (%rax,%rcx,8),%rcx
    44f2:	48 8b 15 f7 8b 01 00 	mov    0x18bf7(%rip),%rdx        # 1d0f0 <Mask+0x1f0>
    44f9:	48 63 b7 20 11 00 00 	movslq 0x1120(%rdi),%rsi
    4500:	48 33 14 f0          	xor    (%rax,%rsi,8),%rdx
    4504:	48 33 15 dd 8b 01 00 	xor    0x18bdd(%rip),%rdx        # 1d0e8 <Mask+0x1e8>
    450b:	48 31 ca             	xor    %rcx,%rdx
    450e:	48 89 15 6b 99 01 00 	mov    %rdx,0x1996b(%rip)        # 1de80 <CastleMask>
    4515:	48 8b 15 b4 8b 01 00 	mov    0x18bb4(%rip),%rdx        # 1d0d0 <Mask+0x1d0>
    451c:	48 63 b7 1c 11 00 00 	movslq 0x111c(%rdi),%rsi
    4523:	48 33 14 f0          	xor    (%rax,%rsi,8),%rdx
    4527:	48 33 15 aa 8b 01 00 	xor    0x18baa(%rip),%rdx        # 1d0d8 <Mask+0x1d8>
    452e:	48 31 ca             	xor    %rcx,%rdx
    4531:	48 89 15 50 99 01 00 	mov    %rdx,0x19950(%rip)        # 1de88 <CastleMask+0x8>
    4538:	48 63 8f 18 11 00 00 	movslq 0x1118(%rdi),%rcx
    453f:	48 8b 0c c8          	mov    (%rax,%rcx,8),%rcx
    4543:	48 8b 15 e6 89 01 00 	mov    0x189e6(%rip),%rdx        # 1cf30 <Mask+0x30>
    454a:	48 63 b7 28 11 00 00 	movslq 0x1128(%rdi),%rsi
    4551:	48 33 14 f0          	xor    (%rax,%rsi,8),%rdx
    4555:	48 33 15 cc 89 01 00 	xor    0x189cc(%rip),%rdx        # 1cf28 <Mask+0x28>
    455c:	48 31 ca             	xor    %rcx,%rdx
    455f:	48 89 15 2a 99 01 00 	mov    %rdx,0x1992a(%rip)        # 1de90 <CastleMask+0x10>
    4566:	48 8b 15 a3 89 01 00 	mov    0x189a3(%rip),%rdx        # 1cf10 <Mask+0x10>
    456d:	48 63 b7 24 11 00 00 	movslq 0x1124(%rdi),%rsi
    4574:	48 33 14 f0          	xor    (%rax,%rsi,8),%rdx
    4578:	48 33 15 99 89 01 00 	xor    0x18999(%rip),%rdx        # 1cf18 <Mask+0x18>
    457f:	48 31 ca             	xor    %rcx,%rdx
    4582:	48 89 15 0f 99 01 00 	mov    %rdx,0x1990f(%rip)        # 1de98 <CastleMask+0x18>
    4589:	c3                   	ret    
    458a:	66 0f 1f 44 00 00    	nopw   0x0(%rax,%rax,1)

0000000000004590 <_Z11RankAttacksyj>:
    4590:	89 f0                	mov    %esi,%eax
    4592:	83 e0 07             	and    $0x7,%eax
    4595:	40 80 e6 f8          	and    $0xf8,%sil
    4599:	8d 4e 01             	lea    0x1(%rsi),%ecx
    459c:	48 d3 ef             	shr    %cl,%rdi
    459f:	83 e7 3f             	and    $0x3f,%edi
    45a2:	48 8d 0d 57 87 01 00 	lea    0x18757(%rip),%rcx        # 1cd00 <firstRankAttacks>
    45a9:	48 8d 0c f9          	lea    (%rcx,%rdi,8),%rcx
    45ad:	0f b6 04 08          	movzbl (%rax,%rcx,1),%eax
    45b1:	89 f1                	mov    %esi,%ecx
    45b3:	48 d3 e0             	shl    %cl,%rax
    45b6:	c3                   	ret    
    45b7:	66 0f 1f 84 00 00 00 	nopw   0x0(%rax,%rax,1)
    45be:	00 00 

00000000000045c0 <_Z11FileAttacksyj>:
    45c0:	89 f1                	mov    %esi,%ecx
    45c2:	80 e1 07             	and    $0x7,%cl
    45c5:	48 d3 ef             	shr    %cl,%rdi
    45c8:	48 b8 01 01 01 01 01 	movabs $0x101010101010101,%rax
    45cf:	01 01 01 
    45d2:	48 21 f8             	and    %rdi,%rax
    45d5:	48 ba 00 04 08 10 20 	movabs $0x80402010080400,%rdx
    45dc:	40 80 00 
    45df:	48 0f af d0          	imul   %rax,%rdx
    45e3:	48 c1 ea 3a          	shr    $0x3a,%rdx
    45e7:	c1 e2 06             	shl    $0x6,%edx
    45ea:	48 8d 05 0f 77 01 00 	lea    0x1770f(%rip),%rax        # 1bd00 <aFileAttacks>
    45f1:	48 01 d0             	add    %rdx,%rax
    45f4:	83 e6 f8             	and    $0xfffffff8,%esi
    45f7:	48 8b 04 06          	mov    (%rsi,%rax,1),%rax
    45fb:	48 d3 e0             	shl    %cl,%rax
    45fe:	c3                   	ret    
    45ff:	90                   	nop

0000000000004600 <_Z15DiagonalAttacksyj>:
    4600:	89 f0                	mov    %esi,%eax
    4602:	83 e6 07             	and    $0x7,%esi
    4605:	48 8d 0d f4 8c 01 00 	lea    0x18cf4(%rip),%rcx        # 1d300 <DiagMaska1h8>
    460c:	48 8b 04 c1          	mov    (%rcx,%rax,8),%rax
    4610:	48 21 c7             	and    %rax,%rdi
    4613:	48 b9 02 02 02 02 02 	movabs $0x202020202020202,%rcx
    461a:	02 02 02 
    461d:	48 0f af cf          	imul   %rdi,%rcx
    4621:	48 c1 e9 3a          	shr    $0x3a,%rcx
    4625:	c1 e1 06             	shl    $0x6,%ecx
    4628:	48 8d 15 d1 66 01 00 	lea    0x166d1(%rip),%rdx        # 1ad00 <fillUpAttacks>
    462f:	48 01 ca             	add    %rcx,%rdx
    4632:	48 23 04 f2          	and    (%rdx,%rsi,8),%rax
    4636:	c3                   	ret    
    4637:	66 0f 1f 84 00 00 00 	nopw   0x0(%rax,%rax,1)
    463e:	00 00 

0000000000004640 <_Z15AntiDiagAttacksyj>:
    4640:	89 f0                	mov    %esi,%eax
    4642:	83 e6 07             	and    $0x7,%esi
    4645:	48 8d 0d b4 8e 01 00 	lea    0x18eb4(%rip),%rcx        # 1d500 <DiagMaska8h1>
    464c:	48 8b 04 c1          	mov    (%rcx,%rax,8),%rax
    4650:	48 21 c7             	and    %rax,%rdi
    4653:	48 b9 02 02 02 02 02 	movabs $0x202020202020202,%rcx
    465a:	02 02 02 
    465d:	48 0f af cf          	imul   %rdi,%rcx
    4661:	48 c1 e9 3a          	shr    $0x3a,%rcx
    4665:	c1 e1 06             	shl    $0x6,%ecx
    4668:	48 8d 15 91 66 01 00 	lea    0x16691(%rip),%rdx        # 1ad00 <fillUpAttacks>
    466f:	48 01 ca             	add    %rcx,%rdx
    4672:	48 23 04 f2          	and    (%rdx,%rsi,8),%rax
    4676:	c3                   	ret    
    4677:	66 0f 1f 84 00 00 00 	nopw   0x0(%rax,%rax,1)
    467e:	00 00 

0000000000004680 <_Z13BishopAttacksP7state_ti>:
    4680:	48 8b 8f 08 01 00 00 	mov    0x108(%rdi),%rcx
    4687:	89 f0                	mov    %esi,%eax
    4689:	83 e6 07             	and    $0x7,%esi
    468c:	48 8d 15 6d 8c 01 00 	lea    0x18c6d(%rip),%rdx        # 1d300 <DiagMaska1h8>
    4693:	48 8b 14 c2          	mov    (%rdx,%rax,8),%rdx
    4697:	48 89 d7             	mov    %rdx,%rdi
    469a:	48 21 cf             	and    %rcx,%rdi
    469d:	49 b8 02 02 02 02 02 	movabs $0x202020202020202,%r8
    46a4:	02 02 02 
    46a7:	49 0f af f8          	imul   %r8,%rdi
    46ab:	48 c1 ef 3a          	shr    $0x3a,%rdi
    46af:	c1 e7 06             	shl    $0x6,%edi
    46b2:	4c 8d 0d 47 66 01 00 	lea    0x16647(%rip),%r9        # 1ad00 <fillUpAttacks>
    46b9:	4c 01 cf             	add    %r9,%rdi
    46bc:	48 23 14 f7          	and    (%rdi,%rsi,8),%rdx
    46c0:	48 8d 3d 39 8e 01 00 	lea    0x18e39(%rip),%rdi        # 1d500 <DiagMaska8h1>
    46c7:	48 8b 04 c7          	mov    (%rdi,%rax,8),%rax
    46cb:	48 21 c1             	and    %rax,%rcx
    46ce:	49 0f af c8          	imul   %r8,%rcx
    46d2:	48 c1 e9 3a          	shr    $0x3a,%rcx
    46d6:	c1 e1 06             	shl    $0x6,%ecx
    46d9:	4c 01 c9             	add    %r9,%rcx
    46dc:	48 23 04 f1          	and    (%rcx,%rsi,8),%rax
    46e0:	48 09 d0             	or     %rdx,%rax
    46e3:	c3                   	ret    
    46e4:	66 66 66 2e 0f 1f 84 	data16 data16 cs nopw 0x0(%rax,%rax,1)
    46eb:	00 00 00 00 00 

00000000000046f0 <_Z11RookAttacksP7state_ti>:
    46f0:	48 8b 87 08 01 00 00 	mov    0x108(%rdi),%rax
    46f7:	89 f2                	mov    %esi,%edx
    46f9:	83 e2 07             	and    $0x7,%edx
    46fc:	83 e6 f8             	and    $0xfffffff8,%esi
    46ff:	8d 4e 01             	lea    0x1(%rsi),%ecx
    4702:	48 89 c7             	mov    %rax,%rdi
    4705:	48 d3 ef             	shr    %cl,%rdi
    4708:	83 e7 3f             	and    $0x3f,%edi
    470b:	48 8d 0d ee 85 01 00 	lea    0x185ee(%rip),%rcx        # 1cd00 <firstRankAttacks>
    4712:	48 8d 0c f9          	lea    (%rcx,%rdi,8),%rcx
    4716:	0f b6 3c 0a          	movzbl (%rdx,%rcx,1),%edi
    471a:	89 f1                	mov    %esi,%ecx
    471c:	48 d3 e7             	shl    %cl,%rdi
    471f:	89 d1                	mov    %edx,%ecx
    4721:	48 d3 e8             	shr    %cl,%rax
    4724:	48 b9 01 01 01 01 01 	movabs $0x101010101010101,%rcx
    472b:	01 01 01 
    472e:	48 21 c1             	and    %rax,%rcx
    4731:	48 b8 00 04 08 10 20 	movabs $0x80402010080400,%rax
    4738:	40 80 00 
    473b:	48 0f af c1          	imul   %rcx,%rax
    473f:	48 c1 e8 3a          	shr    $0x3a,%rax
    4743:	c1 e0 06             	shl    $0x6,%eax
    4746:	48 8d 0d b3 75 01 00 	lea    0x175b3(%rip),%rcx        # 1bd00 <aFileAttacks>
    474d:	48 01 c1             	add    %rax,%rcx
    4750:	48 8b 04 0e          	mov    (%rsi,%rcx,1),%rax
    4754:	89 d1                	mov    %edx,%ecx
    4756:	48 d3 e0             	shl    %cl,%rax
    4759:	48 09 f8             	or     %rdi,%rax
    475c:	c3                   	ret    
    475d:	0f 1f 00             	nopl   (%rax)

0000000000004760 <_Z8PopCounty>:
    4760:	31 c0                	xor    %eax,%eax
    4762:	48 85 ff             	test   %rdi,%rdi
    4765:	74 14                	je     477b <_Z8PopCounty+0x1b>
    4767:	66 0f 1f 84 00 00 00 	nopw   0x0(%rax,%rax,1)
    476e:	00 00 
    4770:	48 8d 4f ff          	lea    -0x1(%rdi),%rcx
    4774:	ff c0                	inc    %eax
    4776:	48 21 cf             	and    %rcx,%rdi
    4779:	75 f5                	jne    4770 <_Z8PopCounty+0x10>
    477b:	c3                   	ret    
    477c:	0f 1f 40 00          	nopl   0x0(%rax)

0000000000004780 <_Z9FindFirsty>:
    4780:	31 c9                	xor    %ecx,%ecx
    4782:	48 0f bc c7          	bsf    %rdi,%rax
    4786:	0f 44 c1             	cmove  %ecx,%eax
    4789:	c3                   	ret    
    478a:	66 0f 1f 44 00 00    	nopw   0x0(%rax,%rax,1)

0000000000004790 <_Z15FindFirstRemovePy>:
    4790:	48 8b 0f             	mov    (%rdi),%rcx
    4793:	f3 48 0f bc c1       	tzcnt  %rcx,%rax
    4798:	31 d2                	xor    %edx,%edx
    479a:	48 89 ce             	mov    %rcx,%rsi
    479d:	48 83 ee 01          	sub    $0x1,%rsi
    47a1:	0f 42 c2             	cmovb  %edx,%eax
    47a4:	48 21 ce             	and    %rcx,%rsi
    47a7:	48 89 37             	mov    %rsi,(%rdi)
    47aa:	c3                   	ret    
    47ab:	0f 1f 44 00 00       	nopl   0x0(%rax,%rax,1)

00000000000047b0 <_Z8FindLasty>:
    47b0:	31 c0                	xor    %eax,%eax
    47b2:	48 89 f9             	mov    %rdi,%rcx
    47b5:	48 c1 e9 20          	shr    $0x20,%rcx
    47b9:	0f 95 c0             	setne  %al
    47bc:	48 0f 44 cf          	cmove  %rdi,%rcx
    47c0:	c1 e0 05             	shl    $0x5,%eax
    47c3:	48 89 ca             	mov    %rcx,%rdx
    47c6:	48 c1 ea 10          	shr    $0x10,%rdx
    47ca:	8d 70 10             	lea    0x10(%rax),%esi
    47cd:	48 81 f9 00 00 01 00 	cmp    $0x10000,%rcx
    47d4:	48 0f 42 d1          	cmovb  %rcx,%rdx
    47d8:	0f 42 f0             	cmovb  %eax,%esi
    47db:	48 8d 05 6e a3 01 00 	lea    0x1a36e(%rip),%rax        # 1eb50 <last_bit>
    47e2:	0f b6 04 02          	movzbl (%rdx,%rax,1),%eax
    47e6:	01 f0                	add    %esi,%eax
    47e8:	c3                   	ret    
    47e9:	0f 1f 80 00 00 00 00 	nopl   0x0(%rax)

00000000000047f0 <_Z13ThickPopCounty>:
    47f0:	48 89 f8             	mov    %rdi,%rax
    47f3:	48 d1 e8             	shr    %rax
    47f6:	48 b9 55 55 55 55 55 	movabs $0x5555555555555555,%rcx
    47fd:	55 55 55 
    4800:	48 21 c1             	and    %rax,%rcx
    4803:	48 29 cf             	sub    %rcx,%rdi
    4806:	48 b8 33 33 33 33 33 	movabs $0x3333333333333333,%rax
    480d:	33 33 33 
    4810:	48 89 f9             	mov    %rdi,%rcx
    4813:	48 21 c1             	and    %rax,%rcx
    4816:	48 c1 ef 02          	shr    $0x2,%rdi
    481a:	48 21 f8             	and    %rdi,%rax
    481d:	48 01 c8             	add    %rcx,%rax
    4820:	48 89 c1             	mov    %rax,%rcx
    4823:	48 c1 e9 04          	shr    $0x4,%rcx
    4827:	48 01 c1             	add    %rax,%rcx
    482a:	48 ba 0f 0f 0f 0f 0f 	movabs $0xf0f0f0f0f0f0f0f,%rdx
    4831:	0f 0f 0f 
    4834:	48 21 ca             	and    %rcx,%rdx
    4837:	48 b8 01 01 01 01 01 	movabs $0x101010101010101,%rax
    483e:	01 01 01 
    4841:	48 0f af c2          	imul   %rdx,%rax
    4845:	48 c1 e8 38          	shr    $0x38,%rax
    4849:	c3                   	ret    
    484a:	66 0f 1f 44 00 00    	nopw   0x0(%rax,%rax,1)

0000000000004850 <_Z4ranki>:
    4850:	c1 ff 03             	sar    $0x3,%edi
    4853:	b8 08 00 00 00       	mov    $0x8,%eax
    4858:	29 f8                	sub    %edi,%eax
    485a:	c3                   	ret    
    485b:	0f 1f 44 00 00       	nopl   0x0(%rax,%rax,1)

0000000000004860 <_Z4filei>:
    4860:	83 e7 07             	and    $0x7,%edi
    4863:	8d 47 01             	lea    0x1(%rdi),%eax
    4866:	c3                   	ret    
    4867:	66 0f 1f 84 00 00 00 	nopw   0x0(%rax,%rax,1)
    486e:	00 00 

0000000000004870 <_Z8sum_distii>:
    4870:	89 f8                	mov    %edi,%eax
    4872:	83 e0 07             	and    $0x7,%eax
    4875:	89 f1                	mov    %esi,%ecx
    4877:	83 e1 07             	and    $0x7,%ecx
    487a:	29 c8                	sub    %ecx,%eax
    487c:	89 c1                	mov    %eax,%ecx
    487e:	f7 d9                	neg    %ecx
    4880:	0f 48 c8             	cmovs  %eax,%ecx
    4883:	c1 ff 03             	sar    $0x3,%edi
    4886:	c1 fe 03             	sar    $0x3,%esi
    4889:	29 fe                	sub    %edi,%esi
    488b:	89 f0                	mov    %esi,%eax
    488d:	f7 d8                	neg    %eax
    488f:	0f 48 c6             	cmovs  %esi,%eax
    4892:	01 c8                	add    %ecx,%eax
    4894:	c3                   	ret    
    4895:	66 66 2e 0f 1f 84 00 	data16 cs nopw 0x0(%rax,%rax,1)
    489c:	00 00 00 00 

00000000000048a0 <_Z12taxicab_distii>:
    48a0:	89 f8                	mov    %edi,%eax
    48a2:	83 e0 07             	and    $0x7,%eax
    48a5:	89 f1                	mov    %esi,%ecx
    48a7:	83 e1 07             	and    $0x7,%ecx
    48aa:	29 c8                	sub    %ecx,%eax
    48ac:	89 c1                	mov    %eax,%ecx
    48ae:	f7 d9                	neg    %ecx
    48b0:	0f 48 c8             	cmovs  %eax,%ecx
    48b3:	c1 ff 03             	sar    $0x3,%edi
    48b6:	c1 fe 03             	sar    $0x3,%esi
    48b9:	29 fe                	sub    %edi,%esi
    48bb:	89 f0                	mov    %esi,%eax
    48bd:	f7 d8                	neg    %eax
    48bf:	0f 48 c6             	cmovs  %esi,%eax
    48c2:	39 c1                	cmp    %eax,%ecx
    48c4:	0f 47 c1             	cmova  %ecx,%eax
    48c7:	c3                   	ret    
    48c8:	0f 1f 84 00 00 00 00 	nopl   0x0(%rax,%rax,1)
    48cf:	00 

00000000000048d0 <_Z16taxicab_dist_bitii>:
    48d0:	89 f8                	mov    %edi,%eax
    48d2:	83 e0 07             	and    $0x7,%eax
    48d5:	89 f1                	mov    %esi,%ecx
    48d7:	83 e1 07             	and    $0x7,%ecx
    48da:	29 c8                	sub    %ecx,%eax
    48dc:	89 c1                	mov    %eax,%ecx
    48de:	f7 d9                	neg    %ecx
    48e0:	0f 48 c8             	cmovs  %eax,%ecx
    48e3:	c1 ff 03             	sar    $0x3,%edi
    48e6:	c1 fe 03             	sar    $0x3,%esi
    48e9:	29 fe                	sub    %edi,%esi
    48eb:	89 f0                	mov    %esi,%eax
    48ed:	f7 d8                	neg    %eax
    48ef:	0f 48 c6             	cmovs  %esi,%eax
    48f2:	39 c1                	cmp    %eax,%ecx
    48f4:	0f 47 c1             	cmova  %ecx,%eax
    48f7:	c3                   	ret    
    48f8:	0f 1f 84 00 00 00 00 	nopl   0x0(%rax,%rax,1)
    48ff:	00 

0000000000004900 <_Z11check_phaseP11gamestate_tP7state_t>:
    4900:	55                   	push   %rbp
    4901:	41 57                	push   %r15
    4903:	41 56                	push   %r14
    4905:	41 55                	push   %r13
    4907:	41 54                	push   %r12
    4909:	53                   	push   %rbx
    490a:	48 83 ec 18          	sub    $0x18,%rsp
    490e:	48 8b 86 08 01 00 00 	mov    0x108(%rsi),%rax
    4915:	48 89 44 24 08       	mov    %rax,0x8(%rsp)
    491a:	48 85 c0             	test   %rax,%rax
    491d:	0f 84 d4 00 00 00    	je     49f7 <_Z11check_phaseP11gamestate_tP7state_t+0xf7>
    4923:	49 89 f6             	mov    %rsi,%r14
    4926:	48 89 7c 24 10       	mov    %rdi,0x10(%rsp)
    492b:	c7 44 24 04 00 00 00 	movl   $0x0,0x4(%rsp)
    4932:	00 
    4933:	4c 8d 7c 24 08       	lea    0x8(%rsp),%r15
    4938:	bb 06 20 00 00       	mov    $0x2006,%ebx
    493d:	bd 60 00 00 00       	mov    $0x60,%ebp
    4942:	45 31 e4             	xor    %r12d,%r12d
    4945:	45 31 ed             	xor    %r13d,%r13d
    4948:	eb 21                	jmp    496b <_Z11check_phaseP11gamestate_tP7state_t+0x6b>
    494a:	48 98                	cltq   
    494c:	48 8d 0d 6d 0f 01 00 	lea    0x10f6d(%rip),%rcx        # 158c0 <material>
    4953:	8b 04 81             	mov    (%rcx,%rax,4),%eax
    4956:	89 c1                	mov    %eax,%ecx
    4958:	f7 d9                	neg    %ecx
    495a:	0f 48 c8             	cmovs  %eax,%ecx
    495d:	41 01 cd             	add    %ecx,%r13d
    4960:	41 ff c4             	inc    %r12d
    4963:	48 83 7c 24 08 00    	cmpq   $0x0,0x8(%rsp)
    4969:	74 43                	je     49ae <_Z11check_phaseP11gamestate_tP7state_t+0xae>
    496b:	4c 89 ff             	mov    %r15,%rdi
    496e:	e8 1d fe ff ff       	call   4790 <_Z15FindFirstRemovePy>
    4973:	48 98                	cltq   
    4975:	41 8b 44 86 04       	mov    0x4(%r14,%rax,4),%eax
    497a:	48 83 f8 0d          	cmp    $0xd,%rax
    497e:	77 0a                	ja     498a <_Z11check_phaseP11gamestate_tP7state_t+0x8a>
    4980:	0f a3 c3             	bt     %eax,%ebx
    4983:	72 de                	jb     4963 <_Z11check_phaseP11gamestate_tP7state_t+0x63>
    4985:	0f a3 c5             	bt     %eax,%ebp
    4988:	72 d6                	jb     4960 <_Z11check_phaseP11gamestate_tP7state_t+0x60>
    498a:	89 c1                	mov    %eax,%ecx
    498c:	81 e1 01 00 00 80    	and    $0x80000001,%ecx
    4992:	83 f9 01             	cmp    $0x1,%ecx
    4995:	75 b3                	jne    494a <_Z11check_phaseP11gamestate_tP7state_t+0x4a>
    4997:	48 8d 0d 22 0f 01 00 	lea    0x10f22(%rip),%rcx        # 158c0 <material>
    499e:	8b 04 81             	mov    (%rcx,%rax,4),%eax
    49a1:	89 c1                	mov    %eax,%ecx
    49a3:	f7 d9                	neg    %ecx
    49a5:	0f 48 c8             	cmovs  %eax,%ecx
    49a8:	01 4c 24 04          	add    %ecx,0x4(%rsp)
    49ac:	eb b2                	jmp    4960 <_Z11check_phaseP11gamestate_tP7state_t+0x60>
    49ae:	81 7c 24 04 a5 06 00 	cmpl   $0x6a5,0x4(%rsp)
    49b5:	00 
    49b6:	0f 9c c0             	setl   %al
    49b9:	41 81 fd a5 06 00 00 	cmp    $0x6a5,%r13d
    49c0:	0f 9c c1             	setl   %cl
    49c3:	41 83 fc 0c          	cmp    $0xc,%r12d
    49c7:	48 8b 7c 24 10       	mov    0x10(%rsp),%rdi
    49cc:	7c 20                	jl     49ee <_Z11check_phaseP11gamestate_tP7state_t+0xee>
    49ce:	41 83 be d0 01 00 00 	cmpl   $0x3c,0x1d0(%r14)
    49d5:	3c 
    49d6:	74 0a                	je     49e2 <_Z11check_phaseP11gamestate_tP7state_t+0xe2>
    49d8:	41 83 be d4 01 00 00 	cmpl   $0x4,0x1d4(%r14)
    49df:	04 
    49e0:	75 0c                	jne    49ee <_Z11check_phaseP11gamestate_tP7state_t+0xee>
    49e2:	31 d2                	xor    %edx,%edx
    49e4:	41 83 be c4 01 00 00 	cmpl   $0x0,0x1c4(%r14)
    49eb:	00 
    49ec:	7f 0e                	jg     49fc <_Z11check_phaseP11gamestate_tP7state_t+0xfc>
    49ee:	20 c8                	and    %cl,%al
    49f0:	0f b6 d0             	movzbl %al,%edx
    49f3:	ff c2                	inc    %edx
    49f5:	eb 05                	jmp    49fc <_Z11check_phaseP11gamestate_tP7state_t+0xfc>
    49f7:	ba 02 00 00 00       	mov    $0x2,%edx
    49fc:	89 57 04             	mov    %edx,0x4(%rdi)
    49ff:	48 83 c4 18          	add    $0x18,%rsp
    4a03:	5b                   	pop    %rbx
    4a04:	41 5c                	pop    %r12
    4a06:	41 5d                	pop    %r13
    4a08:	41 5e                	pop    %r14
    4a0a:	41 5f                	pop    %r15
    4a0c:	5d                   	pop    %rbp
    4a0d:	c3                   	ret    
    4a0e:	66 90                	xchg   %ax,%ax

0000000000004a10 <_Z7is_drawP11gamestate_tP7state_t>:
    4a10:	8b 96 dc 01 00 00    	mov    0x1dc(%rsi),%edx
    4a16:	31 c0                	xor    %eax,%eax
    4a18:	83 fa 04             	cmp    $0x4,%edx
    4a1b:	0f 8c a8 00 00 00    	jl     4ac9 <_Z7is_drawP11gamestate_tP7state_t+0xb9>
    4a21:	8b 8e d8 01 00 00    	mov    0x1d8(%rsi),%ecx
    4a27:	83 f9 02             	cmp    $0x2,%ecx
    4a2a:	7c 54                	jl     4a80 <_Z7is_drawP11gamestate_tP7state_t+0x70>
    4a2c:	44 8b 57 3c          	mov    0x3c(%rdi),%r10d
    4a30:	45 8d 04 0a          	lea    (%r10,%rcx,1),%r8d
    4a34:	41 83 f8 03          	cmp    $0x3,%r8d
    4a38:	7c 46                	jl     4a80 <_Z7is_drawP11gamestate_tP7state_t+0x70>
    4a3a:	41 89 d1             	mov    %edx,%r9d
    4a3d:	41 f7 d1             	not    %r9d
    4a40:	45 01 c8             	add    %r9d,%r8d
    4a43:	45 8d 0c 0a          	lea    (%r10,%rcx,1),%r9d
    4a47:	41 83 c1 fd          	add    $0xfffffffd,%r9d
    4a4b:	45 39 c1             	cmp    %r8d,%r9d
    4a4e:	7c 30                	jl     4a80 <_Z7is_drawP11gamestate_tP7state_t+0x70>
    4a50:	4c 8b 8e e0 01 00 00 	mov    0x1e0(%rsi),%r9
    4a57:	41 01 ca             	add    %ecx,%r10d
    4a5a:	41 83 c2 fb          	add    $0xfffffffb,%r10d
    4a5e:	66 90                	xchg   %ax,%ax
    4a60:	45 8d 5a 02          	lea    0x2(%r10),%r11d
    4a64:	4e 3b 8c de 30 11 00 	cmp    0x1130(%rsi,%r11,8),%r9
    4a6b:	00 
    4a6c:	74 5c                	je     4aca <_Z7is_drawP11gamestate_tP7state_t+0xba>
    4a6e:	41 83 fb 02          	cmp    $0x2,%r11d
    4a72:	7c 0c                	jl     4a80 <_Z7is_drawP11gamestate_tP7state_t+0x70>
    4a74:	45 8d 5a fe          	lea    -0x2(%r10),%r11d
    4a78:	45 39 c2             	cmp    %r8d,%r10d
    4a7b:	45 89 da             	mov    %r11d,%r10d
    4a7e:	7d e0                	jge    4a60 <_Z7is_drawP11gamestate_tP7state_t+0x50>
    4a80:	83 fa 06             	cmp    $0x6,%edx
    4a83:	7c 44                	jl     4ac9 <_Z7is_drawP11gamestate_tP7state_t+0xb9>
    4a85:	83 f9 01             	cmp    $0x1,%ecx
    4a88:	7f 3f                	jg     4ac9 <_Z7is_drawP11gamestate_tP7state_t+0xb9>
    4a8a:	03 4f 3c             	add    0x3c(%rdi),%ecx
    4a8d:	78 3a                	js     4ac9 <_Z7is_drawP11gamestate_tP7state_t+0xb9>
    4a8f:	48 8b be e0 01 00 00 	mov    0x1e0(%rsi),%rdi
    4a96:	41 89 c8             	mov    %ecx,%r8d
    4a99:	29 d1                	sub    %edx,%ecx
    4a9b:	31 d2                	xor    %edx,%edx
    4a9d:	0f 1f 00             	nopl   (%rax)
    4aa0:	4a 3b bc c6 30 11 00 	cmp    0x1130(%rsi,%r8,8),%rdi
    4aa7:	00 
    4aa8:	75 0e                	jne    4ab8 <_Z7is_drawP11gamestate_tP7state_t+0xa8>
    4aaa:	b8 01 00 00 00       	mov    $0x1,%eax
    4aaf:	85 d2                	test   %edx,%edx
    4ab1:	ba 01 00 00 00       	mov    $0x1,%edx
    4ab6:	7f 11                	jg     4ac9 <_Z7is_drawP11gamestate_tP7state_t+0xb9>
    4ab8:	31 c0                	xor    %eax,%eax
    4aba:	41 83 f8 02          	cmp    $0x2,%r8d
    4abe:	7c 09                	jl     4ac9 <_Z7is_drawP11gamestate_tP7state_t+0xb9>
    4ac0:	49 83 c0 fe          	add    $0xfffffffffffffffe,%r8
    4ac4:	44 39 c1             	cmp    %r8d,%ecx
    4ac7:	7e d7                	jle    4aa0 <_Z7is_drawP11gamestate_tP7state_t+0x90>
    4ac9:	c3                   	ret    
    4aca:	b8 01 00 00 00       	mov    $0x1,%eax
    4acf:	c3                   	ret    

0000000000004ad0 <_Z21insufficient_materialP7state_t>:
    4ad0:	83 bf 94 01 00 00 00 	cmpl   $0x0,0x194(%rdi)
    4ad7:	75 70                	jne    4b49 <_Z21insufficient_materialP7state_t+0x79>
    4ad9:	83 bf 98 01 00 00 00 	cmpl   $0x0,0x198(%rdi)
    4ae0:	75 67                	jne    4b49 <_Z21insufficient_materialP7state_t+0x79>
    4ae2:	83 bf ac 01 00 00 00 	cmpl   $0x0,0x1ac(%rdi)
    4ae9:	75 5e                	jne    4b49 <_Z21insufficient_materialP7state_t+0x79>
    4aeb:	83 bf b0 01 00 00 00 	cmpl   $0x0,0x1b0(%rdi)
    4af2:	75 55                	jne    4b49 <_Z21insufficient_materialP7state_t+0x79>
    4af4:	83 bf b4 01 00 00 00 	cmpl   $0x0,0x1b4(%rdi)
    4afb:	75 4c                	jne    4b49 <_Z21insufficient_materialP7state_t+0x79>
    4afd:	83 bf b8 01 00 00 00 	cmpl   $0x0,0x1b8(%rdi)
    4b04:	75 43                	jne    4b49 <_Z21insufficient_materialP7state_t+0x79>
    4b06:	8b 87 bc 01 00 00    	mov    0x1bc(%rdi),%eax
    4b0c:	8b 8f c0 01 00 00    	mov    0x1c0(%rdi),%ecx
    4b12:	83 f9 01             	cmp    $0x1,%ecx
    4b15:	7f 17                	jg     4b2e <_Z21insufficient_materialP7state_t+0x5e>
    4b17:	83 f8 01             	cmp    $0x1,%eax
    4b1a:	7f 12                	jg     4b2e <_Z21insufficient_materialP7state_t+0x5e>
    4b1c:	83 bf a0 01 00 00 00 	cmpl   $0x0,0x1a0(%rdi)
    4b23:	75 09                	jne    4b2e <_Z21insufficient_materialP7state_t+0x5e>
    4b25:	83 bf 9c 01 00 00 00 	cmpl   $0x0,0x19c(%rdi)
    4b2c:	74 1e                	je     4b4c <_Z21insufficient_materialP7state_t+0x7c>
    4b2e:	09 c8                	or     %ecx,%eax
    4b30:	75 17                	jne    4b49 <_Z21insufficient_materialP7state_t+0x79>
    4b32:	83 bf 9c 01 00 00 02 	cmpl   $0x2,0x19c(%rdi)
    4b39:	7f 0e                	jg     4b49 <_Z21insufficient_materialP7state_t+0x79>
    4b3b:	b8 01 00 00 00       	mov    $0x1,%eax
    4b40:	83 bf a0 01 00 00 03 	cmpl   $0x3,0x1a0(%rdi)
    4b47:	7c 02                	jl     4b4b <_Z21insufficient_materialP7state_t+0x7b>
    4b49:	31 c0                	xor    %eax,%eax
    4b4b:	c3                   	ret    
    4b4c:	b8 01 00 00 00       	mov    $0x1,%eax
    4b51:	c3                   	ret    
    4b52:	66 2e 0f 1f 84 00 00 	cs nopw 0x0(%rax,%rax,1)
    4b59:	00 00 00 
    4b5c:	0f 1f 40 00          	nopl   0x0(%rax)

0000000000004b60 <_Z14drawn_endgamesP7state_tiii>:
    4b60:	55                   	push   %rbp
    4b61:	41 57                	push   %r15
    4b63:	41 56                	push   %r14
    4b65:	41 55                	push   %r13
    4b67:	41 54                	push   %r12
    4b69:	53                   	push   %rbx
    4b6a:	48 83 ec 28          	sub    $0x28,%rsp
    4b6e:	89 cd                	mov    %ecx,%ebp
    4b70:	41 89 d6             	mov    %edx,%r14d
    4b73:	89 f3                	mov    %esi,%ebx
    4b75:	4c 63 bf d0 01 00 00 	movslq 0x1d0(%rdi),%r15
    4b7c:	48 63 b7 d4 01 00 00 	movslq 0x1d4(%rdi),%rsi
    4b83:	44 8b 8f cc 01 00 00 	mov    0x1cc(%rdi),%r9d
    4b8a:	8b 97 94 01 00 00    	mov    0x194(%rdi),%edx
    4b90:	8b 87 98 01 00 00    	mov    0x198(%rdi),%eax
    4b96:	85 d2                	test   %edx,%edx
    4b98:	0f 84 b4 01 00 00    	je     4d52 <_Z14drawn_endgamesP7state_tiii+0x1f2>
    4b9e:	85 c0                	test   %eax,%eax
    4ba0:	0f 84 f9 01 00 00    	je     4d9f <_Z14drawn_endgamesP7state_tiii+0x23f>
    4ba6:	41 83 fe 04          	cmp    $0x4,%r14d
    4baa:	0f 85 c5 00 00 00    	jne    4c75 <_Z14drawn_endgamesP7state_tiii+0x115>
    4bb0:	83 bf bc 01 00 00 01 	cmpl   $0x1,0x1bc(%rdi)
    4bb7:	0f 85 b8 00 00 00    	jne    4c75 <_Z14drawn_endgamesP7state_tiii+0x115>
    4bbd:	83 bf 94 01 00 00 01 	cmpl   $0x1,0x194(%rdi)
    4bc4:	0f 85 ab 00 00 00    	jne    4c75 <_Z14drawn_endgamesP7state_tiii+0x115>
    4bca:	48 8b 8f 28 01 00 00 	mov    0x128(%rdi),%rcx
    4bd1:	48 8d 05 28 8b 01 00 	lea    0x18b28(%rip),%rax        # 1d700 <FileMask>
    4bd8:	48 8b 10             	mov    (%rax),%rdx
    4bdb:	4c 8b 50 38          	mov    0x38(%rax),%r10
    4bdf:	49 89 d0             	mov    %rdx,%r8
    4be2:	4d 09 d0             	or     %r10,%r8
    4be5:	49 85 c8             	test   %rcx,%r8
    4be8:	0f 84 da 05 00 00    	je     51c8 <_Z14drawn_endgamesP7state_tiii+0x668>
    4bee:	49 85 ca             	test   %rcx,%r10
    4bf1:	74 11                	je     4c04 <_Z14drawn_endgamesP7state_tiii+0xa4>
    4bf3:	4c 8b 40 30          	mov    0x30(%rax),%r8
    4bf7:	4c 85 87 30 01 00 00 	test   %r8,0x130(%rdi)
    4bfe:	0f 84 57 07 00 00    	je     535b <_Z14drawn_endgamesP7state_tiii+0x7fb>
    4c04:	48 85 ca             	test   %rcx,%rdx
    4c07:	0f 84 bb 05 00 00    	je     51c8 <_Z14drawn_endgamesP7state_tiii+0x668>
    4c0d:	48 8b 40 08          	mov    0x8(%rax),%rax
    4c11:	48 85 87 30 01 00 00 	test   %rax,0x130(%rdi)
    4c18:	0f 85 aa 05 00 00    	jne    51c8 <_Z14drawn_endgamesP7state_tiii+0x668>
    4c1e:	48 8d 05 ab 9a 01 00 	lea    0x19aab(%rip),%rax        # 1e6d0 <WhiteSqMask>
    4c25:	48 8b 00             	mov    (%rax),%rax
    4c28:	48 85 87 78 01 00 00 	test   %rax,0x178(%rdi)
    4c2f:	0f 85 93 05 00 00    	jne    51c8 <_Z14drawn_endgamesP7state_tiii+0x668>
    4c35:	45 89 cd             	mov    %r9d,%r13d
    4c38:	48 89 7c 24 10       	mov    %rdi,0x10(%rsp)
    4c3d:	31 ff                	xor    %edi,%edi
    4c3f:	e8 5c fc ff ff       	call   48a0 <_Z12taxicab_distii>
    4c44:	83 f8 02             	cmp    $0x2,%eax
    4c47:	0f 8c 1f 08 00 00    	jl     546c <_Z14drawn_endgamesP7state_tiii+0x90c>
    4c4d:	41 89 c4             	mov    %eax,%r12d
    4c50:	31 ff                	xor    %edi,%edi
    4c52:	44 89 fe             	mov    %r15d,%esi
    4c55:	e8 46 fc ff ff       	call   48a0 <_Z12taxicab_distii>
    4c5a:	41 89 c7             	mov    %eax,%r15d
    4c5d:	48 8b 44 24 10       	mov    0x10(%rsp),%rax
    4c62:	48 8b b8 28 01 00 00 	mov    0x128(%rax),%rdi
    4c69:	e8 12 fb ff ff       	call   4780 <_Z9FindFirsty>
    4c6e:	31 ff                	xor    %edi,%edi
    4c70:	e9 41 07 00 00       	jmp    53b6 <_Z14drawn_endgamesP7state_tiii+0x856>
    4c75:	83 fd 04             	cmp    $0x4,%ebp
    4c78:	0f 85 4a 05 00 00    	jne    51c8 <_Z14drawn_endgamesP7state_tiii+0x668>
    4c7e:	83 bf c0 01 00 00 01 	cmpl   $0x1,0x1c0(%rdi)
    4c85:	0f 85 3d 05 00 00    	jne    51c8 <_Z14drawn_endgamesP7state_tiii+0x668>
    4c8b:	83 bf 98 01 00 00 01 	cmpl   $0x1,0x198(%rdi)
    4c92:	0f 85 30 05 00 00    	jne    51c8 <_Z14drawn_endgamesP7state_tiii+0x668>
    4c98:	48 8b 8f 30 01 00 00 	mov    0x130(%rdi),%rcx
    4c9f:	48 8d 05 5a 8a 01 00 	lea    0x18a5a(%rip),%rax        # 1d700 <FileMask>
    4ca6:	48 8b 10             	mov    (%rax),%rdx
    4ca9:	4c 8b 50 38          	mov    0x38(%rax),%r10
    4cad:	49 89 d0             	mov    %rdx,%r8
    4cb0:	4d 09 d0             	or     %r10,%r8
    4cb3:	49 85 c8             	test   %rcx,%r8
    4cb6:	0f 84 0c 05 00 00    	je     51c8 <_Z14drawn_endgamesP7state_tiii+0x668>
    4cbc:	49 85 ca             	test   %rcx,%r10
    4cbf:	74 11                	je     4cd2 <_Z14drawn_endgamesP7state_tiii+0x172>
    4cc1:	4c 8b 40 30          	mov    0x30(%rax),%r8
    4cc5:	4c 85 87 28 01 00 00 	test   %r8,0x128(%rdi)
    4ccc:	0f 84 0c 07 00 00    	je     53de <_Z14drawn_endgamesP7state_tiii+0x87e>
    4cd2:	48 85 ca             	test   %rcx,%rdx
    4cd5:	0f 84 ed 04 00 00    	je     51c8 <_Z14drawn_endgamesP7state_tiii+0x668>
    4cdb:	48 8b 40 08          	mov    0x8(%rax),%rax
    4cdf:	48 85 87 28 01 00 00 	test   %rax,0x128(%rdi)
    4ce6:	0f 85 dc 04 00 00    	jne    51c8 <_Z14drawn_endgamesP7state_tiii+0x668>
    4cec:	48 8d 05 e5 99 01 00 	lea    0x199e5(%rip),%rax        # 1e6d8 <BlackSqMask>
    4cf3:	48 8b 00             	mov    (%rax),%rax
    4cf6:	48 85 87 80 01 00 00 	test   %rax,0x180(%rdi)
    4cfd:	0f 85 c5 04 00 00    	jne    51c8 <_Z14drawn_endgamesP7state_tiii+0x668>
    4d03:	49 89 f4             	mov    %rsi,%r12
    4d06:	45 89 cd             	mov    %r9d,%r13d
    4d09:	48 89 7c 24 10       	mov    %rdi,0x10(%rsp)
    4d0e:	bf 38 00 00 00       	mov    $0x38,%edi
    4d13:	44 89 fe             	mov    %r15d,%esi
    4d16:	e8 85 fb ff ff       	call   48a0 <_Z12taxicab_distii>
    4d1b:	83 f8 02             	cmp    $0x2,%eax
    4d1e:	0f 8c 8f 09 00 00    	jl     56b3 <_Z14drawn_endgamesP7state_tiii+0xb53>
    4d24:	41 89 c7             	mov    %eax,%r15d
    4d27:	bf 38 00 00 00       	mov    $0x38,%edi
    4d2c:	44 89 e6             	mov    %r12d,%esi
    4d2f:	e8 6c fb ff ff       	call   48a0 <_Z12taxicab_distii>
    4d34:	41 89 c4             	mov    %eax,%r12d
    4d37:	48 8b 44 24 10       	mov    0x10(%rsp),%rax
    4d3c:	48 8b b8 30 01 00 00 	mov    0x130(%rax),%rdi
    4d43:	e8 68 fa ff ff       	call   47b0 <_Z8FindLasty>
    4d48:	bf 38 00 00 00       	mov    $0x38,%edi
    4d4d:	e9 ed 06 00 00       	jmp    543f <_Z14drawn_endgamesP7state_tiii+0x8df>
    4d52:	85 c0                	test   %eax,%eax
    4d54:	0f 84 8a 00 00 00    	je     4de4 <_Z14drawn_endgamesP7state_tiii+0x284>
    4d5a:	83 bf ac 01 00 00 00 	cmpl   $0x0,0x1ac(%rdi)
    4d61:	0f 85 fe 01 00 00    	jne    4f65 <_Z14drawn_endgamesP7state_tiii+0x405>
    4d67:	83 bf b4 01 00 00 00 	cmpl   $0x0,0x1b4(%rdi)
    4d6e:	0f 85 f1 01 00 00    	jne    4f65 <_Z14drawn_endgamesP7state_tiii+0x405>
    4d74:	8b 97 9c 01 00 00    	mov    0x19c(%rdi),%edx
    4d7a:	8b 8f bc 01 00 00    	mov    0x1bc(%rdi),%ecx
    4d80:	83 f9 01             	cmp    $0x1,%ecx
    4d83:	0f 85 c9 01 00 00    	jne    4f52 <_Z14drawn_endgamesP7state_tiii+0x3f2>
    4d89:	85 d2                	test   %edx,%edx
    4d8b:	0f 85 c1 01 00 00    	jne    4f52 <_Z14drawn_endgamesP7state_tiii+0x3f2>
    4d91:	89 d9                	mov    %ebx,%ecx
    4d93:	c1 f9 1f             	sar    $0x1f,%ecx
    4d96:	21 d9                	and    %ebx,%ecx
    4d98:	89 cb                	mov    %ecx,%ebx
    4d9a:	e9 c6 01 00 00       	jmp    4f65 <_Z14drawn_endgamesP7state_tiii+0x405>
    4d9f:	83 bf b0 01 00 00 00 	cmpl   $0x0,0x1b0(%rdi)
    4da6:	0f 85 24 03 00 00    	jne    50d0 <_Z14drawn_endgamesP7state_tiii+0x570>
    4dac:	83 bf b8 01 00 00 00 	cmpl   $0x0,0x1b8(%rdi)
    4db3:	0f 85 17 03 00 00    	jne    50d0 <_Z14drawn_endgamesP7state_tiii+0x570>
    4db9:	8b 8f a0 01 00 00    	mov    0x1a0(%rdi),%ecx
    4dbf:	8b 87 c0 01 00 00    	mov    0x1c0(%rdi),%eax
    4dc5:	83 f8 01             	cmp    $0x1,%eax
    4dc8:	0f 85 ef 02 00 00    	jne    50bd <_Z14drawn_endgamesP7state_tiii+0x55d>
    4dce:	85 c9                	test   %ecx,%ecx
    4dd0:	0f 85 e7 02 00 00    	jne    50bd <_Z14drawn_endgamesP7state_tiii+0x55d>
    4dd6:	31 c0                	xor    %eax,%eax
    4dd8:	85 db                	test   %ebx,%ebx
    4dda:	0f 4f c3             	cmovg  %ebx,%eax
    4ddd:	89 c3                	mov    %eax,%ebx
    4ddf:	e9 ec 02 00 00       	jmp    50d0 <_Z14drawn_endgamesP7state_tiii+0x570>
    4de4:	44 89 74 24 0c       	mov    %r14d,0xc(%rsp)
    4de9:	41 39 ee             	cmp    %ebp,%r14d
    4dec:	44 89 4c 24 1c       	mov    %r9d,0x1c(%rsp)
    4df1:	89 6c 24 18          	mov    %ebp,0x18(%rsp)
    4df5:	4d 89 fe             	mov    %r15,%r14
    4df8:	7e 11                	jle    4e0b <_Z14drawn_endgamesP7state_tiii+0x2ab>
    4dfa:	49 89 ff             	mov    %rdi,%r15
    4dfd:	41 bc 78 00 00 00    	mov    $0x78,%r12d
    4e03:	41 bd f1 ff ff ff    	mov    $0xfffffff1,%r13d
    4e09:	eb 11                	jmp    4e1c <_Z14drawn_endgamesP7state_tiii+0x2bc>
    4e0b:	7d 2c                	jge    4e39 <_Z14drawn_endgamesP7state_tiii+0x2d9>
    4e0d:	49 89 ff             	mov    %rdi,%r15
    4e10:	41 bc 88 ff ff ff    	mov    $0xffffff88,%r12d
    4e16:	41 bd 0f 00 00 00    	mov    $0xf,%r13d
    4e1c:	44 89 f7             	mov    %r14d,%edi
    4e1f:	48 89 f5             	mov    %rsi,%rbp
    4e22:	e8 79 fa ff ff       	call   48a0 <_Z12taxicab_distii>
    4e27:	41 0f af c5          	imul   %r13d,%eax
    4e2b:	41 01 dc             	add    %ebx,%r12d
    4e2e:	41 01 c4             	add    %eax,%r12d
    4e31:	44 89 e3             	mov    %r12d,%ebx
    4e34:	4c 89 ff             	mov    %r15,%rdi
    4e37:	eb 03                	jmp    4e3c <_Z14drawn_endgamesP7state_tiii+0x2dc>
    4e39:	48 89 f5             	mov    %rsi,%rbp
    4e3c:	8b 87 ac 01 00 00    	mov    0x1ac(%rdi),%eax
    4e42:	8b 8f b0 01 00 00    	mov    0x1b0(%rdi),%ecx
    4e48:	44 8b 8f b4 01 00 00 	mov    0x1b4(%rdi),%r9d
    4e4f:	42 8d 14 48          	lea    (%rax,%r9,2),%edx
    4e53:	44 8b 87 b8 01 00 00 	mov    0x1b8(%rdi),%r8d
    4e5a:	46 8d 14 41          	lea    (%rcx,%r8,2),%r10d
    4e5e:	44 39 d2             	cmp    %r10d,%edx
    4e61:	75 64                	jne    4ec7 <_Z14drawn_endgamesP7state_tiii+0x367>
    4e63:	44 89 d6             	mov    %r10d,%esi
    4e66:	44 8b 9f 9c 01 00 00 	mov    0x19c(%rdi),%r11d
    4e6d:	44 8b af a0 01 00 00 	mov    0x1a0(%rdi),%r13d
    4e74:	44 8b 97 bc 01 00 00 	mov    0x1bc(%rdi),%r10d
    4e7b:	4c 89 5c 24 20       	mov    %r11,0x20(%rsp)
    4e80:	45 01 d3             	add    %r10d,%r11d
    4e83:	44 8b bf c0 01 00 00 	mov    0x1c0(%rdi),%r15d
    4e8a:	4c 89 7c 24 10       	mov    %r15,0x10(%rsp)
    4e8f:	47 8d 24 2f          	lea    (%r15,%r13,1),%r12d
    4e93:	45 89 df             	mov    %r11d,%r15d
    4e96:	45 29 e7             	sub    %r12d,%r15d
    4e99:	41 83 ff 01          	cmp    $0x1,%r15d
    4e9d:	75 3c                	jne    4edb <_Z14drawn_endgamesP7state_tiii+0x37b>
    4e9f:	41 83 fa 02          	cmp    $0x2,%r10d
    4ea3:	75 56                	jne    4efb <_Z14drawn_endgamesP7state_tiii+0x39b>
    4ea5:	41 83 fd 01          	cmp    $0x1,%r13d
    4ea9:	4d 89 f7             	mov    %r14,%r15
    4eac:	49 89 ed             	mov    %rbp,%r13
    4eaf:	41 89 f2             	mov    %esi,%r10d
    4eb2:	0f 84 c0 05 00 00    	je     5478 <_Z14drawn_endgamesP7state_tiii+0x918>
    4eb8:	85 db                	test   %ebx,%ebx
    4eba:	44 8b 74 24 0c       	mov    0xc(%rsp),%r14d
    4ebf:	8b 6c 24 18          	mov    0x18(%rsp),%ebp
    4ec3:	7f 4c                	jg     4f11 <_Z14drawn_endgamesP7state_tiii+0x3b1>
    4ec5:	eb 4d                	jmp    4f14 <_Z14drawn_endgamesP7state_tiii+0x3b4>
    4ec7:	4d 89 f7             	mov    %r14,%r15
    4eca:	44 8b 74 24 0c       	mov    0xc(%rsp),%r14d
    4ecf:	48 89 ee             	mov    %rbp,%rsi
    4ed2:	8b 6c 24 18          	mov    0x18(%rsp),%ebp
    4ed6:	e9 b6 05 00 00       	jmp    5491 <_Z14drawn_endgamesP7state_tiii+0x931>
    4edb:	4d 89 f7             	mov    %r14,%r15
    4ede:	44 8b 74 24 0c       	mov    0xc(%rsp),%r14d
    4ee3:	49 89 ed             	mov    %rbp,%r13
    4ee6:	8b 6c 24 18          	mov    0x18(%rsp),%ebp
    4eea:	41 89 f2             	mov    %esi,%r10d
    4eed:	45 29 dc             	sub    %r11d,%r12d
    4ef0:	41 83 fc 01          	cmp    $0x1,%r12d
    4ef4:	74 2b                	je     4f21 <_Z14drawn_endgamesP7state_tiii+0x3c1>
    4ef6:	e9 93 05 00 00       	jmp    548e <_Z14drawn_endgamesP7state_tiii+0x92e>
    4efb:	85 db                	test   %ebx,%ebx
    4efd:	4d 89 f7             	mov    %r14,%r15
    4f00:	44 8b 74 24 0c       	mov    0xc(%rsp),%r14d
    4f05:	49 89 ed             	mov    %rbp,%r13
    4f08:	8b 6c 24 18          	mov    0x18(%rsp),%ebp
    4f0c:	41 89 f2             	mov    %esi,%r10d
    4f0f:	7e 03                	jle    4f14 <_Z14drawn_endgamesP7state_tiii+0x3b4>
    4f11:	c1 eb 03             	shr    $0x3,%ebx
    4f14:	45 29 dc             	sub    %r11d,%r12d
    4f17:	41 83 fc 01          	cmp    $0x1,%r12d
    4f1b:	0f 85 6d 05 00 00    	jne    548e <_Z14drawn_endgamesP7state_tiii+0x92e>
    4f21:	83 7c 24 10 02       	cmpl   $0x2,0x10(%rsp)
    4f26:	75 17                	jne    4f3f <_Z14drawn_endgamesP7state_tiii+0x3df>
    4f28:	83 7c 24 20 01       	cmpl   $0x1,0x20(%rsp)
    4f2d:	4c 89 ee             	mov    %r13,%rsi
    4f30:	0f 84 5b 05 00 00    	je     5491 <_Z14drawn_endgamesP7state_tiii+0x931>
    4f36:	85 db                	test   %ebx,%ebx
    4f38:	78 10                	js     4f4a <_Z14drawn_endgamesP7state_tiii+0x3ea>
    4f3a:	e9 52 05 00 00       	jmp    5491 <_Z14drawn_endgamesP7state_tiii+0x931>
    4f3f:	85 db                	test   %ebx,%ebx
    4f41:	4c 89 ee             	mov    %r13,%rsi
    4f44:	0f 89 47 05 00 00    	jns    5491 <_Z14drawn_endgamesP7state_tiii+0x931>
    4f4a:	c1 fb 03             	sar    $0x3,%ebx
    4f4d:	e9 3f 05 00 00       	jmp    5491 <_Z14drawn_endgamesP7state_tiii+0x931>
    4f52:	83 fa 01             	cmp    $0x1,%edx
    4f55:	75 0e                	jne    4f65 <_Z14drawn_endgamesP7state_tiii+0x405>
    4f57:	89 da                	mov    %ebx,%edx
    4f59:	c1 fa 1f             	sar    $0x1f,%edx
    4f5c:	21 da                	and    %ebx,%edx
    4f5e:	85 c9                	test   %ecx,%ecx
    4f60:	0f 45 d3             	cmovne %ebx,%edx
    4f63:	89 d3                	mov    %edx,%ebx
    4f65:	41 83 fe 0a          	cmp    $0xa,%r14d
    4f69:	0f 85 fa 00 00 00    	jne    5069 <_Z14drawn_endgamesP7state_tiii+0x509>
    4f6f:	83 fd 06             	cmp    $0x6,%ebp
    4f72:	0f 85 f1 00 00 00    	jne    5069 <_Z14drawn_endgamesP7state_tiii+0x509>
    4f78:	89 da                	mov    %ebx,%edx
    4f7a:	c1 ea 02             	shr    $0x2,%edx
    4f7d:	85 c0                	test   %eax,%eax
    4f7f:	0f 4e d3             	cmovle %ebx,%edx
    4f82:	85 db                	test   %ebx,%ebx
    4f84:	0f 4e d3             	cmovle %ebx,%edx
    4f87:	b1 01                	mov    $0x1,%cl
    4f89:	89 d3                	mov    %edx,%ebx
    4f8b:	41 83 fe 10          	cmp    $0x10,%r14d
    4f8f:	7f 0e                	jg     4f9f <_Z14drawn_endgamesP7state_tiii+0x43f>
    4f91:	41 39 ee             	cmp    %ebp,%r14d
    4f94:	7e 09                	jle    4f9f <_Z14drawn_endgamesP7state_tiii+0x43f>
    4f96:	85 db                	test   %ebx,%ebx
    4f98:	0f 9f c2             	setg   %dl
    4f9b:	20 d1                	and    %dl,%cl
    4f9d:	d3 eb                	shr    %cl,%ebx
    4f9f:	83 fd 06             	cmp    $0x6,%ebp
    4fa2:	0f 85 fe fb ff ff    	jne    4ba6 <_Z14drawn_endgamesP7state_tiii+0x46>
    4fa8:	41 83 fe 06          	cmp    $0x6,%r14d
    4fac:	0f 85 f4 fb ff ff    	jne    4ba6 <_Z14drawn_endgamesP7state_tiii+0x46>
    4fb2:	83 f8 01             	cmp    $0x1,%eax
    4fb5:	0f 85 eb fb ff ff    	jne    4ba6 <_Z14drawn_endgamesP7state_tiii+0x46>
    4fbb:	89 6c 24 18          	mov    %ebp,0x18(%rsp)
    4fbf:	48 89 f5             	mov    %rsi,%rbp
    4fc2:	44 89 74 24 0c       	mov    %r14d,0xc(%rsp)
    4fc7:	49 89 fc             	mov    %rdi,%r12
    4fca:	48 8b bf 30 01 00 00 	mov    0x130(%rdi),%rdi
    4fd1:	e8 da f7 ff ff       	call   47b0 <_Z8FindLasty>
    4fd6:	41 89 c5             	mov    %eax,%r13d
    4fd9:	44 89 ff             	mov    %r15d,%edi
    4fdc:	e8 7f f8 ff ff       	call   4860 <_Z4filei>
    4fe1:	4d 89 fe             	mov    %r15,%r14
    4fe4:	41 89 c7             	mov    %eax,%r15d
    4fe7:	44 89 ef             	mov    %r13d,%edi
    4fea:	e8 71 f8 ff ff       	call   4860 <_Z4filei>
    4fef:	41 29 c7             	sub    %eax,%r15d
    4ff2:	44 89 f8             	mov    %r15d,%eax
    4ff5:	f7 d8                	neg    %eax
    4ff7:	41 0f 48 c7          	cmovs  %r15d,%eax
    4ffb:	83 f8 01             	cmp    $0x1,%eax
    4ffe:	77 18                	ja     5018 <_Z14drawn_endgamesP7state_tiii+0x4b8>
    5000:	44 89 f7             	mov    %r14d,%edi
    5003:	e8 48 f8 ff ff       	call   4850 <_Z4ranki>
    5008:	41 89 c7             	mov    %eax,%r15d
    500b:	44 89 ef             	mov    %r13d,%edi
    500e:	e8 3d f8 ff ff       	call   4850 <_Z4ranki>
    5013:	41 39 c7             	cmp    %eax,%r15d
    5016:	7c 3e                	jl     5056 <_Z14drawn_endgamesP7state_tiii+0x4f6>
    5018:	49 89 ee             	mov    %rbp,%r14
    501b:	89 ef                	mov    %ebp,%edi
    501d:	e8 2e f8 ff ff       	call   4850 <_Z4ranki>
    5022:	41 89 c7             	mov    %eax,%r15d
    5025:	44 89 ef             	mov    %r13d,%edi
    5028:	e8 23 f8 ff ff       	call   4850 <_Z4ranki>
    502d:	41 39 c7             	cmp    %eax,%r15d
    5030:	7f 24                	jg     5056 <_Z14drawn_endgamesP7state_tiii+0x4f6>
    5032:	44 89 f7             	mov    %r14d,%edi
    5035:	e8 26 f8 ff ff       	call   4860 <_Z4filei>
    503a:	41 89 c7             	mov    %eax,%r15d
    503d:	44 89 ef             	mov    %r13d,%edi
    5040:	e8 1b f8 ff ff       	call   4860 <_Z4filei>
    5045:	41 29 c7             	sub    %eax,%r15d
    5048:	44 89 f8             	mov    %r15d,%eax
    504b:	f7 d8                	neg    %eax
    504d:	41 0f 48 c7          	cmovs  %r15d,%eax
    5051:	83 f8 02             	cmp    $0x2,%eax
    5054:	72 02                	jb     5058 <_Z14drawn_endgamesP7state_tiii+0x4f8>
    5056:	d1 fb                	sar    %ebx
    5058:	4c 89 e7             	mov    %r12,%rdi
    505b:	44 8b 74 24 0c       	mov    0xc(%rsp),%r14d
    5060:	8b 6c 24 18          	mov    0x18(%rsp),%ebp
    5064:	e9 5f 01 00 00       	jmp    51c8 <_Z14drawn_endgamesP7state_tiii+0x668>
    5069:	41 83 fe 08          	cmp    $0x8,%r14d
    506d:	75 16                	jne    5085 <_Z14drawn_endgamesP7state_tiii+0x525>
    506f:	89 d9                	mov    %ebx,%ecx
    5071:	c1 e9 03             	shr    $0x3,%ecx
    5074:	83 bf bc 01 00 00 00 	cmpl   $0x0,0x1bc(%rdi)
    507b:	0f 45 cb             	cmovne %ebx,%ecx
    507e:	85 db                	test   %ebx,%ebx
    5080:	0f 4e cb             	cmovle %ebx,%ecx
    5083:	89 cb                	mov    %ecx,%ebx
    5085:	44 89 f2             	mov    %r14d,%edx
    5088:	29 ea                	sub    %ebp,%edx
    508a:	83 fa 05             	cmp    $0x5,%edx
    508d:	0f 9c c1             	setl   %cl
    5090:	41 83 fe 08          	cmp    $0x8,%r14d
    5094:	0f 8f f1 fe ff ff    	jg     4f8b <_Z14drawn_endgamesP7state_tiii+0x42b>
    509a:	83 fa 04             	cmp    $0x4,%edx
    509d:	0f 8f e8 fe ff ff    	jg     4f8b <_Z14drawn_endgamesP7state_tiii+0x42b>
    50a3:	89 d9                	mov    %ebx,%ecx
    50a5:	c1 e9 03             	shr    $0x3,%ecx
    50a8:	85 db                	test   %ebx,%ebx
    50aa:	0f 4e cb             	cmovle %ebx,%ecx
    50ad:	89 cb                	mov    %ecx,%ebx
    50af:	83 fd 06             	cmp    $0x6,%ebp
    50b2:	0f 84 f0 fe ff ff    	je     4fa8 <_Z14drawn_endgamesP7state_tiii+0x448>
    50b8:	e9 e9 fa ff ff       	jmp    4ba6 <_Z14drawn_endgamesP7state_tiii+0x46>
    50bd:	83 f9 01             	cmp    $0x1,%ecx
    50c0:	75 0e                	jne    50d0 <_Z14drawn_endgamesP7state_tiii+0x570>
    50c2:	31 c9                	xor    %ecx,%ecx
    50c4:	85 db                	test   %ebx,%ebx
    50c6:	0f 4f cb             	cmovg  %ebx,%ecx
    50c9:	85 c0                	test   %eax,%eax
    50cb:	0f 45 cb             	cmovne %ebx,%ecx
    50ce:	89 cb                	mov    %ecx,%ebx
    50d0:	41 83 fe 06          	cmp    $0x6,%r14d
    50d4:	0f 85 3f 01 00 00    	jne    5219 <_Z14drawn_endgamesP7state_tiii+0x6b9>
    50da:	83 fd 0a             	cmp    $0xa,%ebp
    50dd:	0f 85 36 01 00 00    	jne    5219 <_Z14drawn_endgamesP7state_tiii+0x6b9>
    50e3:	89 d8                	mov    %ebx,%eax
    50e5:	c1 f8 02             	sar    $0x2,%eax
    50e8:	85 db                	test   %ebx,%ebx
    50ea:	0f 49 c3             	cmovns %ebx,%eax
    50ed:	85 d2                	test   %edx,%edx
    50ef:	0f 4e c3             	cmovle %ebx,%eax
    50f2:	b1 01                	mov    $0x1,%cl
    50f4:	89 c3                	mov    %eax,%ebx
    50f6:	83 fd 10             	cmp    $0x10,%ebp
    50f9:	7f 0e                	jg     5109 <_Z14drawn_endgamesP7state_tiii+0x5a9>
    50fb:	44 39 f5             	cmp    %r14d,%ebp
    50fe:	7e 09                	jle    5109 <_Z14drawn_endgamesP7state_tiii+0x5a9>
    5100:	85 db                	test   %ebx,%ebx
    5102:	0f 98 c0             	sets   %al
    5105:	20 c1                	and    %al,%cl
    5107:	d3 fb                	sar    %cl,%ebx
    5109:	41 83 fe 06          	cmp    $0x6,%r14d
    510d:	0f 85 93 fa ff ff    	jne    4ba6 <_Z14drawn_endgamesP7state_tiii+0x46>
    5113:	83 fd 06             	cmp    $0x6,%ebp
    5116:	0f 85 8a fa ff ff    	jne    4ba6 <_Z14drawn_endgamesP7state_tiii+0x46>
    511c:	83 fa 01             	cmp    $0x1,%edx
    511f:	0f 85 81 fa ff ff    	jne    4ba6 <_Z14drawn_endgamesP7state_tiii+0x46>
    5125:	44 89 74 24 0c       	mov    %r14d,0xc(%rsp)
    512a:	4d 89 fe             	mov    %r15,%r14
    512d:	48 89 7c 24 10       	mov    %rdi,0x10(%rsp)
    5132:	48 8b bf 28 01 00 00 	mov    0x128(%rdi),%rdi
    5139:	49 89 f4             	mov    %rsi,%r12
    513c:	e8 3f f6 ff ff       	call   4780 <_Z9FindFirsty>
    5141:	41 89 c5             	mov    %eax,%r13d
    5144:	44 89 e7             	mov    %r12d,%edi
    5147:	e8 14 f7 ff ff       	call   4860 <_Z4filei>
    514c:	41 89 c7             	mov    %eax,%r15d
    514f:	44 89 ef             	mov    %r13d,%edi
    5152:	e8 09 f7 ff ff       	call   4860 <_Z4filei>
    5157:	41 29 c7             	sub    %eax,%r15d
    515a:	44 89 f8             	mov    %r15d,%eax
    515d:	f7 d8                	neg    %eax
    515f:	41 0f 48 c7          	cmovs  %r15d,%eax
    5163:	83 f8 01             	cmp    $0x1,%eax
    5166:	77 18                	ja     5180 <_Z14drawn_endgamesP7state_tiii+0x620>
    5168:	44 89 e7             	mov    %r12d,%edi
    516b:	e8 e0 f6 ff ff       	call   4850 <_Z4ranki>
    5170:	41 89 c7             	mov    %eax,%r15d
    5173:	44 89 ef             	mov    %r13d,%edi
    5176:	e8 d5 f6 ff ff       	call   4850 <_Z4ranki>
    517b:	41 39 c7             	cmp    %eax,%r15d
    517e:	7f 3c                	jg     51bc <_Z14drawn_endgamesP7state_tiii+0x65c>
    5180:	44 89 f7             	mov    %r14d,%edi
    5183:	e8 c8 f6 ff ff       	call   4850 <_Z4ranki>
    5188:	41 89 c7             	mov    %eax,%r15d
    518b:	44 89 ef             	mov    %r13d,%edi
    518e:	e8 bd f6 ff ff       	call   4850 <_Z4ranki>
    5193:	41 39 c7             	cmp    %eax,%r15d
    5196:	7c 24                	jl     51bc <_Z14drawn_endgamesP7state_tiii+0x65c>
    5198:	44 89 f7             	mov    %r14d,%edi
    519b:	e8 c0 f6 ff ff       	call   4860 <_Z4filei>
    51a0:	41 89 c7             	mov    %eax,%r15d
    51a3:	44 89 ef             	mov    %r13d,%edi
    51a6:	e8 b5 f6 ff ff       	call   4860 <_Z4filei>
    51ab:	41 29 c7             	sub    %eax,%r15d
    51ae:	44 89 f8             	mov    %r15d,%eax
    51b1:	f7 d8                	neg    %eax
    51b3:	41 0f 48 c7          	cmovs  %r15d,%eax
    51b7:	83 f8 02             	cmp    $0x2,%eax
    51ba:	72 02                	jb     51be <_Z14drawn_endgamesP7state_tiii+0x65e>
    51bc:	d1 fb                	sar    %ebx
    51be:	48 8b 7c 24 10       	mov    0x10(%rsp),%rdi
    51c3:	44 8b 74 24 0c       	mov    0xc(%rsp),%r14d
    51c8:	44 09 f5             	or     %r14d,%ebp
    51cb:	0f 85 79 01 00 00    	jne    534a <_Z14drawn_endgamesP7state_tiii+0x7ea>
    51d1:	83 bf 94 01 00 00 01 	cmpl   $0x1,0x194(%rdi)
    51d8:	0f 85 cf 00 00 00    	jne    52ad <_Z14drawn_endgamesP7state_tiii+0x74d>
    51de:	48 8b 87 28 01 00 00 	mov    0x128(%rdi),%rax
    51e5:	48 8d 0d 14 85 01 00 	lea    0x18514(%rip),%rcx        # 1d700 <FileMask>
    51ec:	48 85 41 38          	test   %rax,0x38(%rcx)
    51f0:	74 7a                	je     526c <_Z14drawn_endgamesP7state_tiii+0x70c>
    51f2:	48 8d 05 07 7d 01 00 	lea    0x17d07(%rip),%rax        # 1cf00 <Mask>
    51f9:	48 8b 48 78          	mov    0x78(%rax),%rcx
    51fd:	48 0b 48 38          	or     0x38(%rax),%rcx
    5201:	48 0b 48 70          	or     0x70(%rax),%rcx
    5205:	48 0b 48 30          	or     0x30(%rax),%rcx
    5209:	48 0b 48 28          	or     0x28(%rax),%rcx
    520d:	48 0b 88 b8 00 00 00 	or     0xb8(%rax),%rcx
    5214:	e9 81 00 00 00       	jmp    529a <_Z14drawn_endgamesP7state_tiii+0x73a>
    5219:	83 fd 08             	cmp    $0x8,%ebp
    521c:	75 16                	jne    5234 <_Z14drawn_endgamesP7state_tiii+0x6d4>
    521e:	89 d8                	mov    %ebx,%eax
    5220:	c1 f8 03             	sar    $0x3,%eax
    5223:	83 bf c0 01 00 00 00 	cmpl   $0x0,0x1c0(%rdi)
    522a:	0f 45 c3             	cmovne %ebx,%eax
    522d:	85 db                	test   %ebx,%ebx
    522f:	0f 49 c3             	cmovns %ebx,%eax
    5232:	89 c3                	mov    %eax,%ebx
    5234:	89 e8                	mov    %ebp,%eax
    5236:	44 29 f0             	sub    %r14d,%eax
    5239:	83 f8 05             	cmp    $0x5,%eax
    523c:	0f 9c c1             	setl   %cl
    523f:	83 fd 08             	cmp    $0x8,%ebp
    5242:	0f 8f ae fe ff ff    	jg     50f6 <_Z14drawn_endgamesP7state_tiii+0x596>
    5248:	83 f8 04             	cmp    $0x4,%eax
    524b:	0f 8f a5 fe ff ff    	jg     50f6 <_Z14drawn_endgamesP7state_tiii+0x596>
    5251:	89 d8                	mov    %ebx,%eax
    5253:	c1 f8 03             	sar    $0x3,%eax
    5256:	85 db                	test   %ebx,%ebx
    5258:	0f 49 c3             	cmovns %ebx,%eax
    525b:	89 c3                	mov    %eax,%ebx
    525d:	41 83 fe 06          	cmp    $0x6,%r14d
    5261:	0f 84 ac fe ff ff    	je     5113 <_Z14drawn_endgamesP7state_tiii+0x5b3>
    5267:	e9 3a f9 ff ff       	jmp    4ba6 <_Z14drawn_endgamesP7state_tiii+0x46>
    526c:	48 85 01             	test   %rax,(%rcx)
    526f:	74 3a                	je     52ab <_Z14drawn_endgamesP7state_tiii+0x74b>
    5271:	48 8d 05 88 7c 01 00 	lea    0x17c88(%rip),%rax        # 1cf00 <Mask>
    5278:	f3 0f 6f 40 08       	movdqu 0x8(%rax),%xmm0
    527d:	66 0f eb 40 40       	por    0x40(%rax),%xmm0
    5282:	66 0f 70 c8 ee       	pshufd $0xee,%xmm0,%xmm1
    5287:	66 0f eb c8          	por    %xmm0,%xmm1
    528b:	66 48 0f 7e c9       	movq   %xmm1,%rcx
    5290:	48 0b 08             	or     (%rax),%rcx
    5293:	48 0b 88 80 00 00 00 	or     0x80(%rax),%rcx
    529a:	89 d8                	mov    %ebx,%eax
    529c:	c1 f8 02             	sar    $0x2,%eax
    529f:	48 85 8f 50 01 00 00 	test   %rcx,0x150(%rdi)
    52a6:	0f 44 c3             	cmove  %ebx,%eax
    52a9:	89 c3                	mov    %eax,%ebx
    52ab:	d1 fb                	sar    %ebx
    52ad:	83 bf 98 01 00 00 01 	cmpl   $0x1,0x198(%rdi)
    52b4:	0f 85 90 00 00 00    	jne    534a <_Z14drawn_endgamesP7state_tiii+0x7ea>
    52ba:	48 8b 87 30 01 00 00 	mov    0x130(%rdi),%rax
    52c1:	48 8d 0d 38 84 01 00 	lea    0x18438(%rip),%rcx        # 1d700 <FileMask>
    52c8:	48 85 41 38          	test   %rax,0x38(%rcx)
    52cc:	74 33                	je     5301 <_Z14drawn_endgamesP7state_tiii+0x7a1>
    52ce:	48 8d 05 2b 7c 01 00 	lea    0x17c2b(%rip),%rax        # 1cf00 <Mask>
    52d5:	48 8b 88 b8 01 00 00 	mov    0x1b8(%rax),%rcx
    52dc:	48 0b 88 f8 01 00 00 	or     0x1f8(%rax),%rcx
    52e3:	48 0b 88 f0 01 00 00 	or     0x1f0(%rax),%rcx
    52ea:	48 0b 88 b0 01 00 00 	or     0x1b0(%rax),%rcx
    52f1:	48 0b 88 e8 01 00 00 	or     0x1e8(%rax),%rcx
    52f8:	48 0b 88 78 01 00 00 	or     0x178(%rax),%rcx
    52ff:	eb 36                	jmp    5337 <_Z14drawn_endgamesP7state_tiii+0x7d7>
    5301:	48 85 01             	test   %rax,(%rcx)
    5304:	74 42                	je     5348 <_Z14drawn_endgamesP7state_tiii+0x7e8>
    5306:	48 8d 05 f3 7b 01 00 	lea    0x17bf3(%rip),%rax        # 1cf00 <Mask>
    530d:	48 8b 88 80 01 00 00 	mov    0x180(%rax),%rcx
    5314:	48 0b 88 c0 01 00 00 	or     0x1c0(%rax),%rcx
    531b:	48 0b 88 c8 01 00 00 	or     0x1c8(%rax),%rcx
    5322:	48 0b 88 88 01 00 00 	or     0x188(%rax),%rcx
    5329:	48 0b 88 d0 01 00 00 	or     0x1d0(%rax),%rcx
    5330:	48 0b 88 40 01 00 00 	or     0x140(%rax),%rcx
    5337:	89 d8                	mov    %ebx,%eax
    5339:	c1 f8 02             	sar    $0x2,%eax
    533c:	48 85 8f 48 01 00 00 	test   %rcx,0x148(%rdi)
    5343:	0f 44 c3             	cmove  %ebx,%eax
    5346:	89 c3                	mov    %eax,%ebx
    5348:	d1 fb                	sar    %ebx
    534a:	89 d8                	mov    %ebx,%eax
    534c:	48 83 c4 28          	add    $0x28,%rsp
    5350:	5b                   	pop    %rbx
    5351:	41 5c                	pop    %r12
    5353:	41 5d                	pop    %r13
    5355:	41 5e                	pop    %r14
    5357:	41 5f                	pop    %r15
    5359:	5d                   	pop    %rbp
    535a:	c3                   	ret    
    535b:	48 8d 05 76 93 01 00 	lea    0x19376(%rip),%rax        # 1e6d8 <BlackSqMask>
    5362:	48 8b 00             	mov    (%rax),%rax
    5365:	48 85 87 78 01 00 00 	test   %rax,0x178(%rdi)
    536c:	0f 85 56 fe ff ff    	jne    51c8 <_Z14drawn_endgamesP7state_tiii+0x668>
    5372:	45 89 cd             	mov    %r9d,%r13d
