
benchspec/CPU/541.leela_r/exe/leela_r_base.RapModTest-llvm-m64:     file format elf64-x86-64


Disassembly of section .init:

0000000000003000 <_init>:
    3000:	f3 0f 1e fa          	endbr64 
    3004:	48 83 ec 08          	sub    $0x8,%rsp
    3008:	48 8b 05 b9 8f 02 00 	mov    0x28fb9(%rip),%rax        # 2bfc8 <__gmon_start__@Base>
    300f:	48 85 c0             	test   %rax,%rax
    3012:	74 02                	je     3016 <_init+0x16>
    3014:	ff d0                	call   *%rax
    3016:	48 83 c4 08          	add    $0x8,%rsp
    301a:	c3                   	ret    

Disassembly of section .plt:

0000000000003020 <_ZNSo3putEc@plt-0x10>:
    3020:	ff 35 e2 8f 02 00    	push   0x28fe2(%rip)        # 2c008 <_GLOBAL_OFFSET_TABLE_+0x8>
    3026:	ff 25 e4 8f 02 00    	jmp    *0x28fe4(%rip)        # 2c010 <_GLOBAL_OFFSET_TABLE_+0x10>
    302c:	0f 1f 40 00          	nopl   0x0(%rax)

0000000000003030 <_ZNSo3putEc@plt>:
    3030:	ff 25 e2 8f 02 00    	jmp    *0x28fe2(%rip)        # 2c018 <_ZNSo3putEc@GLIBCXX_3.4>
    3036:	68 00 00 00 00       	push   $0x0
    303b:	e9 e0 ff ff ff       	jmp    3020 <_init+0x20>

0000000000003040 <isspace@plt>:
    3040:	ff 25 da 8f 02 00    	jmp    *0x28fda(%rip)        # 2c020 <isspace@GLIBC_2.2.5>
    3046:	68 01 00 00 00       	push   $0x1
    304b:	e9 d0 ff ff ff       	jmp    3020 <_init+0x20>

0000000000003050 <_ZSt29_Rb_tree_insert_and_rebalancebPSt18_Rb_tree_node_baseS0_RS_@plt>:
    3050:	ff 25 d2 8f 02 00    	jmp    *0x28fd2(%rip)        # 2c028 <_ZSt29_Rb_tree_insert_and_rebalancebPSt18_Rb_tree_node_baseS0_RS_@GLIBCXX_3.4>
    3056:	68 02 00 00 00       	push   $0x2
    305b:	e9 c0 ff ff ff       	jmp    3020 <_init+0x20>

0000000000003060 <_ZNSt13basic_filebufIcSt11char_traitsIcEE5closeEv@plt>:
    3060:	ff 25 ca 8f 02 00    	jmp    *0x28fca(%rip)        # 2c030 <_ZNSt13basic_filebufIcSt11char_traitsIcEE5closeEv@GLIBCXX_3.4>
    3066:	68 03 00 00 00       	push   $0x3
    306b:	e9 b0 ff ff ff       	jmp    3020 <_init+0x20>

0000000000003070 <_ZNSt7__cxx1119basic_ostringstreamIcSt11char_traitsIcESaIcEED1Ev@plt>:
    3070:	ff 25 c2 8f 02 00    	jmp    *0x28fc2(%rip)        # 2c038 <_ZNSt7__cxx1119basic_ostringstreamIcSt11char_traitsIcESaIcEED1Ev@GLIBCXX_3.4.21>
    3076:	68 04 00 00 00       	push   $0x4
    307b:	e9 a0 ff ff ff       	jmp    3020 <_init+0x20>

0000000000003080 <_ZNSt14basic_ifstreamIcSt11char_traitsIcEED1Ev@plt>:
    3080:	ff 25 ba 8f 02 00    	jmp    *0x28fba(%rip)        # 2c040 <_ZNSt14basic_ifstreamIcSt11char_traitsIcEED1Ev@GLIBCXX_3.4>
    3086:	68 05 00 00 00       	push   $0x5
    308b:	e9 90 ff ff ff       	jmp    3020 <_init+0x20>

0000000000003090 <_ZSt9terminatev@plt>:
    3090:	ff 25 b2 8f 02 00    	jmp    *0x28fb2(%rip)        # 2c048 <_ZSt9terminatev@GLIBCXX_3.4>
    3096:	68 06 00 00 00       	push   $0x6
    309b:	e9 80 ff ff ff       	jmp    3020 <_init+0x20>

00000000000030a0 <_ZNKSt7__cxx1112basic_stringIcSt11char_traitsIcESaIcEE7compareEPKc@plt>:
    30a0:	ff 25 aa 8f 02 00    	jmp    *0x28faa(%rip)        # 2c050 <_ZNKSt7__cxx1112basic_stringIcSt11char_traitsIcESaIcEE7compareEPKc@GLIBCXX_3.4.21>
    30a6:	68 07 00 00 00       	push   $0x7
    30ab:	e9 70 ff ff ff       	jmp    3020 <_init+0x20>

00000000000030b0 <_ZNSt7__cxx1112basic_stringIcSt11char_traitsIcESaIcEE6resizeEmc@plt>:
    30b0:	ff 25 a2 8f 02 00    	jmp    *0x28fa2(%rip)        # 2c058 <_ZNSt7__cxx1112basic_stringIcSt11char_traitsIcESaIcEE6resizeEmc@GLIBCXX_3.4.21>
    30b6:	68 08 00 00 00       	push   $0x8
    30bb:	e9 60 ff ff ff       	jmp    3020 <_init+0x20>

00000000000030c0 <_ZNSt7__cxx1112basic_stringIcSt11char_traitsIcESaIcEE9_M_appendEPKcm@plt>:
    30c0:	ff 25 9a 8f 02 00    	jmp    *0x28f9a(%rip)        # 2c060 <_ZNSt7__cxx1112basic_stringIcSt11char_traitsIcESaIcEE9_M_appendEPKcm@GLIBCXX_3.4.21>
    30c6:	68 09 00 00 00       	push   $0x9
    30cb:	e9 50 ff ff ff       	jmp    3020 <_init+0x20>

00000000000030d0 <_ZNSi5ungetEv@plt>:
    30d0:	ff 25 92 8f 02 00    	jmp    *0x28f92(%rip)        # 2c068 <_ZNSi5ungetEv@GLIBCXX_3.4>
    30d6:	68 0a 00 00 00       	push   $0xa
    30db:	e9 40 ff ff ff       	jmp    3020 <_init+0x20>

00000000000030e0 <_ZNSt8ios_baseD2Ev@plt>:
    30e0:	ff 25 8a 8f 02 00    	jmp    *0x28f8a(%rip)        # 2c070 <_ZNSt8ios_baseD2Ev@GLIBCXX_3.4>
    30e6:	68 0b 00 00 00       	push   $0xb
    30eb:	e9 30 ff ff ff       	jmp    3020 <_init+0x20>

00000000000030f0 <_ZSt17__throw_bad_allocv@plt>:
    30f0:	ff 25 82 8f 02 00    	jmp    *0x28f82(%rip)        # 2c078 <_ZSt17__throw_bad_allocv@GLIBCXX_3.4>
    30f6:	68 0c 00 00 00       	push   $0xc
    30fb:	e9 20 ff ff ff       	jmp    3020 <_init+0x20>

0000000000003100 <_ZNSt7__cxx1112basic_stringIcSt11char_traitsIcESaIcEEC2EPKcRKS3_@plt>:
    3100:	ff 25 7a 8f 02 00    	jmp    *0x28f7a(%rip)        # 2c080 <_ZNSt7__cxx1112basic_stringIcSt11char_traitsIcESaIcEEC2EPKcRKS3_@GLIBCXX_3.4.21>
    3106:	68 0d 00 00 00       	push   $0xd
    310b:	e9 10 ff ff ff       	jmp    3020 <_init+0x20>

0000000000003110 <__cxa_begin_catch@plt>:
    3110:	ff 25 72 8f 02 00    	jmp    *0x28f72(%rip)        # 2c088 <__cxa_begin_catch@CXXABI_1.3>
    3116:	68 0e 00 00 00       	push   $0xe
    311b:	e9 00 ff ff ff       	jmp    3020 <_init+0x20>

0000000000003120 <strlen@plt>:
    3120:	ff 25 6a 8f 02 00    	jmp    *0x28f6a(%rip)        # 2c090 <strlen@GLIBC_2.2.5>
    3126:	68 0f 00 00 00       	push   $0xf
    312b:	e9 f0 fe ff ff       	jmp    3020 <_init+0x20>

0000000000003130 <memcmp@plt>:
    3130:	ff 25 62 8f 02 00    	jmp    *0x28f62(%rip)        # 2c098 <memcmp@GLIBC_2.2.5>
    3136:	68 10 00 00 00       	push   $0x10
    313b:	e9 e0 fe ff ff       	jmp    3020 <_init+0x20>

0000000000003140 <_ZNSt7__cxx1119basic_istringstreamIcSt11char_traitsIcESaIcEED1Ev@plt>:
    3140:	ff 25 5a 8f 02 00    	jmp    *0x28f5a(%rip)        # 2c0a0 <_ZNSt7__cxx1119basic_istringstreamIcSt11char_traitsIcESaIcEED1Ev@GLIBCXX_3.4.21>
    3146:	68 11 00 00 00       	push   $0x11
    314b:	e9 d0 fe ff ff       	jmp    3020 <_init+0x20>

0000000000003150 <__cxa_allocate_exception@plt>:
    3150:	ff 25 52 8f 02 00    	jmp    *0x28f52(%rip)        # 2c0a8 <__cxa_allocate_exception@CXXABI_1.3>
    3156:	68 12 00 00 00       	push   $0x12
    315b:	e9 c0 fe ff ff       	jmp    3020 <_init+0x20>

0000000000003160 <_ZSt20__throw_length_errorPKc@plt>:
    3160:	ff 25 4a 8f 02 00    	jmp    *0x28f4a(%rip)        # 2c0b0 <_ZSt20__throw_length_errorPKc@GLIBCXX_3.4>
    3166:	68 13 00 00 00       	push   $0x13
    316b:	e9 b0 fe ff ff       	jmp    3020 <_init+0x20>

0000000000003170 <_ZNSt7__cxx1112basic_stringIcSt11char_traitsIcESaIcEE9_M_assignERKS4_@plt>:
    3170:	ff 25 42 8f 02 00    	jmp    *0x28f42(%rip)        # 2c0b8 <_ZNSt7__cxx1112basic_stringIcSt11char_traitsIcESaIcEE9_M_assignERKS4_@GLIBCXX_3.4.21>
    3176:	68 14 00 00 00       	push   $0x14
    317b:	e9 a0 fe ff ff       	jmp    3020 <_init+0x20>

0000000000003180 <memset@plt>:
    3180:	ff 25 3a 8f 02 00    	jmp    *0x28f3a(%rip)        # 2c0c0 <memset@GLIBC_2.2.5>
    3186:	68 15 00 00 00       	push   $0x15
    318b:	e9 90 fe ff ff       	jmp    3020 <_init+0x20>

0000000000003190 <_ZNSirsERi@plt>:
    3190:	ff 25 32 8f 02 00    	jmp    *0x28f32(%rip)        # 2c0c8 <_ZNSirsERi@GLIBCXX_3.4>
    3196:	68 16 00 00 00       	push   $0x16
    319b:	e9 80 fe ff ff       	jmp    3020 <_init+0x20>

00000000000031a0 <_ZNSo5flushEv@plt>:
    31a0:	ff 25 2a 8f 02 00    	jmp    *0x28f2a(%rip)        # 2c0d0 <_ZNSo5flushEv@GLIBCXX_3.4>
    31a6:	68 17 00 00 00       	push   $0x17
    31ab:	e9 70 fe ff ff       	jmp    3020 <_init+0x20>

00000000000031b0 <_ZSt18_Rb_tree_incrementPSt18_Rb_tree_node_base@plt>:
    31b0:	ff 25 22 8f 02 00    	jmp    *0x28f22(%rip)        # 2c0d8 <_ZSt18_Rb_tree_incrementPSt18_Rb_tree_node_base@GLIBCXX_3.4>
    31b6:	68 18 00 00 00       	push   $0x18
    31bb:	e9 60 fe ff ff       	jmp    3020 <_init+0x20>

00000000000031c0 <_ZNSt7__cxx1112basic_stringIcSt11char_traitsIcESaIcEE4swapERS4_@plt>:
    31c0:	ff 25 1a 8f 02 00    	jmp    *0x28f1a(%rip)        # 2c0e0 <_ZNSt7__cxx1112basic_stringIcSt11char_traitsIcESaIcEE4swapERS4_@GLIBCXX_3.4.21>
    31c6:	68 19 00 00 00       	push   $0x19
    31cb:	e9 50 fe ff ff       	jmp    3020 <_init+0x20>

00000000000031d0 <isupper@plt>:
    31d0:	ff 25 12 8f 02 00    	jmp    *0x28f12(%rip)        # 2c0e8 <isupper@GLIBC_2.2.5>
    31d6:	68 1a 00 00 00       	push   $0x1a
    31db:	e9 40 fe ff ff       	jmp    3020 <_init+0x20>

00000000000031e0 <_ZSt28__throw_bad_array_new_lengthv@plt>:
    31e0:	ff 25 0a 8f 02 00    	jmp    *0x28f0a(%rip)        # 2c0f0 <_ZSt28__throw_bad_array_new_lengthv@GLIBCXX_3.4.29>
    31e6:	68 1b 00 00 00       	push   $0x1b
    31eb:	e9 30 fe ff ff       	jmp    3020 <_init+0x20>

00000000000031f0 <memcpy@plt>:
    31f0:	ff 25 02 8f 02 00    	jmp    *0x28f02(%rip)        # 2c0f8 <memcpy@GLIBC_2.14>
    31f6:	68 1c 00 00 00       	push   $0x1c
    31fb:	e9 20 fe ff ff       	jmp    3020 <_init+0x20>

0000000000003200 <_ZNSt13basic_filebufIcSt11char_traitsIcEED2Ev@plt>:
    3200:	ff 25 fa 8e 02 00    	jmp    *0x28efa(%rip)        # 2c100 <_ZNSt13basic_filebufIcSt11char_traitsIcEED2Ev@GLIBCXX_3.4>
    3206:	68 1d 00 00 00       	push   $0x1d
    320b:	e9 10 fe ff ff       	jmp    3020 <_init+0x20>

0000000000003210 <__cxa_atexit@plt>:
    3210:	ff 25 f2 8e 02 00    	jmp    *0x28ef2(%rip)        # 2c108 <__cxa_atexit@GLIBC_2.2.5>
    3216:	68 1e 00 00 00       	push   $0x1e
    321b:	e9 00 fe ff ff       	jmp    3020 <_init+0x20>

0000000000003220 <_ZdlPv@plt>:
    3220:	ff 25 ea 8e 02 00    	jmp    *0x28eea(%rip)        # 2c110 <_ZdlPv@GLIBCXX_3.4>
    3226:	68 1f 00 00 00       	push   $0x1f
    322b:	e9 f0 fd ff ff       	jmp    3020 <_init+0x20>

0000000000003230 <_Znwm@plt>:
    3230:	ff 25 e2 8e 02 00    	jmp    *0x28ee2(%rip)        # 2c118 <_Znwm@GLIBCXX_3.4>
    3236:	68 20 00 00 00       	push   $0x20
    323b:	e9 e0 fd ff ff       	jmp    3020 <_init+0x20>

0000000000003240 <bcmp@plt>:
    3240:	ff 25 da 8e 02 00    	jmp    *0x28eda(%rip)        # 2c120 <bcmp@GLIBC_2.2.5>
    3246:	68 21 00 00 00       	push   $0x21
    324b:	e9 d0 fd ff ff       	jmp    3020 <_init+0x20>

0000000000003250 <_ZSt18_Rb_tree_decrementPSt18_Rb_tree_node_base@plt>:
    3250:	ff 25 d2 8e 02 00    	jmp    *0x28ed2(%rip)        # 2c128 <_ZSt18_Rb_tree_decrementPSt18_Rb_tree_node_base@GLIBCXX_3.4>
    3256:	68 22 00 00 00       	push   $0x22
    325b:	e9 c0 fd ff ff       	jmp    3020 <_init+0x20>

0000000000003260 <_ZSt16__ostream_insertIcSt11char_traitsIcEERSt13basic_ostreamIT_T0_ES6_PKS3_l@plt>:
    3260:	ff 25 ca 8e 02 00    	jmp    *0x28eca(%rip)        # 2c130 <_ZSt16__ostream_insertIcSt11char_traitsIcEERSt13basic_ostreamIT_T0_ES6_PKS3_l@GLIBCXX_3.4.9>
    3266:	68 23 00 00 00       	push   $0x23
    326b:	e9 b0 fd ff ff       	jmp    3020 <_init+0x20>

0000000000003270 <_ZNKSt5ctypeIcE13_M_widen_initEv@plt>:
    3270:	ff 25 c2 8e 02 00    	jmp    *0x28ec2(%rip)        # 2c138 <_ZNKSt5ctypeIcE13_M_widen_initEv@GLIBCXX_3.4.11>
    3276:	68 24 00 00 00       	push   $0x24
    327b:	e9 a0 fd ff ff       	jmp    3020 <_init+0x20>

0000000000003280 <_ZNSt7__cxx1112basic_stringIcSt11char_traitsIcESaIcEE8_M_eraseEmm@plt>:
    3280:	ff 25 ba 8e 02 00    	jmp    *0x28eba(%rip)        # 2c140 <_ZNSt7__cxx1112basic_stringIcSt11char_traitsIcESaIcEE8_M_eraseEmm@GLIBCXX_3.4.21>
    3286:	68 25 00 00 00       	push   $0x25
    328b:	e9 90 fd ff ff       	jmp    3020 <_init+0x20>

0000000000003290 <_ZNSi3getEv@plt>:
    3290:	ff 25 b2 8e 02 00    	jmp    *0x28eb2(%rip)        # 2c148 <_ZNSi3getEv@GLIBCXX_3.4>
    3296:	68 26 00 00 00       	push   $0x26
    329b:	e9 80 fd ff ff       	jmp    3020 <_init+0x20>

00000000000032a0 <exit@plt>:
    32a0:	ff 25 aa 8e 02 00    	jmp    *0x28eaa(%rip)        # 2c150 <exit@GLIBC_2.2.5>
    32a6:	68 27 00 00 00       	push   $0x27
    32ab:	e9 70 fd ff ff       	jmp    3020 <_init+0x20>

00000000000032b0 <_ZSt16__throw_bad_castv@plt>:
    32b0:	ff 25 a2 8e 02 00    	jmp    *0x28ea2(%rip)        # 2c158 <_ZSt16__throw_bad_castv@GLIBCXX_3.4>
    32b6:	68 28 00 00 00       	push   $0x28
    32bb:	e9 60 fd ff ff       	jmp    3020 <_init+0x20>

00000000000032c0 <_ZStrsIcSt11char_traitsIcESaIcEERSt13basic_istreamIT_T0_ES7_RNSt7__cxx1112basic_stringIS4_S5_T1_EE@plt>:
    32c0:	ff 25 9a 8e 02 00    	jmp    *0x28e9a(%rip)        # 2c160 <_ZStrsIcSt11char_traitsIcESaIcEERSt13basic_istreamIT_T0_ES7_RNSt7__cxx1112basic_stringIS4_S5_T1_EE@GLIBCXX_3.4.21>
    32c6:	68 29 00 00 00       	push   $0x29
    32cb:	e9 50 fd ff ff       	jmp    3020 <_init+0x20>

00000000000032d0 <_ZStrsIcSt11char_traitsIcEERSt13basic_istreamIT_T0_ES6_RS3_@plt>:
    32d0:	ff 25 92 8e 02 00    	jmp    *0x28e92(%rip)        # 2c168 <_ZStrsIcSt11char_traitsIcEERSt13basic_istreamIT_T0_ES6_RS3_@GLIBCXX_3.4>
    32d6:	68 2a 00 00 00       	push   $0x2a
    32db:	e9 40 fd ff ff       	jmp    3020 <_init+0x20>

00000000000032e0 <vfprintf@plt>:
    32e0:	ff 25 8a 8e 02 00    	jmp    *0x28e8a(%rip)        # 2c170 <vfprintf@GLIBC_2.2.5>
    32e6:	68 2b 00 00 00       	push   $0x2b
    32eb:	e9 30 fd ff ff       	jmp    3020 <_init+0x20>

00000000000032f0 <_ZNSt7__cxx1119basic_ostringstreamIcSt11char_traitsIcESaIcEEC1Ev@plt>:
    32f0:	ff 25 82 8e 02 00    	jmp    *0x28e82(%rip)        # 2c178 <_ZNSt7__cxx1119basic_ostringstreamIcSt11char_traitsIcESaIcEEC1Ev@GLIBCXX_3.4.26>
    32f6:	68 2c 00 00 00       	push   $0x2c
    32fb:	e9 20 fd ff ff       	jmp    3020 <_init+0x20>

0000000000003300 <_ZNSt7__cxx1112basic_stringIcSt11char_traitsIcESaIcEEC2ERKS4_@plt>:
    3300:	ff 25 7a 8e 02 00    	jmp    *0x28e7a(%rip)        # 2c180 <_ZNSt7__cxx1112basic_stringIcSt11char_traitsIcESaIcEEC2ERKS4_@GLIBCXX_3.4.21>
    3306:	68 2d 00 00 00       	push   $0x2d
    330b:	e9 10 fd ff ff       	jmp    3020 <_init+0x20>

0000000000003310 <_ZNSt6localeD1Ev@plt>:
    3310:	ff 25 72 8e 02 00    	jmp    *0x28e72(%rip)        # 2c188 <_ZNSt6localeD1Ev@GLIBCXX_3.4>
    3316:	68 2e 00 00 00       	push   $0x2e
    331b:	e9 00 fd ff ff       	jmp    3020 <_init+0x20>

0000000000003320 <fprintf@plt>:
    3320:	ff 25 6a 8e 02 00    	jmp    *0x28e6a(%rip)        # 2c190 <fprintf@GLIBC_2.2.5>
    3326:	68 2f 00 00 00       	push   $0x2f
    332b:	e9 f0 fc ff ff       	jmp    3020 <_init+0x20>

0000000000003330 <tolower@plt>:
    3330:	ff 25 62 8e 02 00    	jmp    *0x28e62(%rip)        # 2c198 <tolower@GLIBC_2.2.5>
    3336:	68 30 00 00 00       	push   $0x30
    333b:	e9 e0 fc ff ff       	jmp    3020 <_init+0x20>

0000000000003340 <__cxa_rethrow@plt>:
    3340:	ff 25 5a 8e 02 00    	jmp    *0x28e5a(%rip)        # 2c1a0 <__cxa_rethrow@CXXABI_1.3>
    3346:	68 31 00 00 00       	push   $0x31
    334b:	e9 d0 fc ff ff       	jmp    3020 <_init+0x20>

0000000000003350 <_ZSt24__throw_out_of_range_fmtPKcz@plt>:
    3350:	ff 25 52 8e 02 00    	jmp    *0x28e52(%rip)        # 2c1a8 <_ZSt24__throw_out_of_range_fmtPKcz@GLIBCXX_3.4.20>
    3356:	68 32 00 00 00       	push   $0x32
    335b:	e9 c0 fc ff ff       	jmp    3020 <_init+0x20>

0000000000003360 <_ZNSt8ios_base4InitC1Ev@plt>:
    3360:	ff 25 4a 8e 02 00    	jmp    *0x28e4a(%rip)        # 2c1b0 <_ZNSt8ios_base4InitC1Ev@GLIBCXX_3.4>
    3366:	68 33 00 00 00       	push   $0x33
    336b:	e9 b0 fc ff ff       	jmp    3020 <_init+0x20>

0000000000003370 <puts@plt>:
    3370:	ff 25 42 8e 02 00    	jmp    *0x28e42(%rip)        # 2c1b8 <puts@GLIBC_2.2.5>
    3376:	68 34 00 00 00       	push   $0x34
    337b:	e9 a0 fc ff ff       	jmp    3020 <_init+0x20>

0000000000003380 <_ZNSt7__cxx1112basic_stringIcSt11char_traitsIcESaIcEE10_M_replaceEmmPKcm@plt>:
    3380:	ff 25 3a 8e 02 00    	jmp    *0x28e3a(%rip)        # 2c1c0 <_ZNSt7__cxx1112basic_stringIcSt11char_traitsIcESaIcEE10_M_replaceEmmPKcm@GLIBCXX_3.4.21>
    3386:	68 35 00 00 00       	push   $0x35
    338b:	e9 90 fc ff ff       	jmp    3020 <_init+0x20>

0000000000003390 <_ZNSt7__cxx1112basic_stringIcSt11char_traitsIcESaIcEE7reserveEm@plt>:
    3390:	ff 25 32 8e 02 00    	jmp    *0x28e32(%rip)        # 2c1c8 <_ZNSt7__cxx1112basic_stringIcSt11char_traitsIcESaIcEE7reserveEm@GLIBCXX_3.4.21>
    3396:	68 36 00 00 00       	push   $0x36
    339b:	e9 80 fc ff ff       	jmp    3020 <_init+0x20>

00000000000033a0 <isalpha@plt>:
    33a0:	ff 25 2a 8e 02 00    	jmp    *0x28e2a(%rip)        # 2c1d0 <isalpha@GLIBC_2.2.5>
    33a6:	68 37 00 00 00       	push   $0x37
    33ab:	e9 70 fc ff ff       	jmp    3020 <_init+0x20>

00000000000033b0 <memmove@plt>:
    33b0:	ff 25 22 8e 02 00    	jmp    *0x28e22(%rip)        # 2c1d8 <memmove@GLIBC_2.2.5>
    33b6:	68 38 00 00 00       	push   $0x38
    33bb:	e9 60 fc ff ff       	jmp    3020 <_init+0x20>

00000000000033c0 <__cxa_end_catch@plt>:
    33c0:	ff 25 1a 8e 02 00    	jmp    *0x28e1a(%rip)        # 2c1e0 <__cxa_end_catch@CXXABI_1.3>
    33c6:	68 39 00 00 00       	push   $0x39
    33cb:	e9 50 fc ff ff       	jmp    3020 <_init+0x20>

00000000000033d0 <_ZNSt7__cxx1119basic_istringstreamIcSt11char_traitsIcESaIcEEC1ERKNS_12basic_stringIcS2_S3_EESt13_Ios_Openmode@plt>:
    33d0:	ff 25 12 8e 02 00    	jmp    *0x28e12(%rip)        # 2c1e8 <_ZNSt7__cxx1119basic_istringstreamIcSt11char_traitsIcESaIcEEC1ERKNS_12basic_stringIcS2_S3_EESt13_Ios_Openmode@GLIBCXX_3.4.21>
    33d6:	68 3a 00 00 00       	push   $0x3a
    33db:	e9 40 fc ff ff       	jmp    3020 <_init+0x20>

00000000000033e0 <_ZNSt9basic_iosIcSt11char_traitsIcEE5clearESt12_Ios_Iostate@plt>:
    33e0:	ff 25 0a 8e 02 00    	jmp    *0x28e0a(%rip)        # 2c1f0 <_ZNSt9basic_iosIcSt11char_traitsIcEE5clearESt12_Ios_Iostate@GLIBCXX_3.4>
    33e6:	68 3b 00 00 00       	push   $0x3b
    33eb:	e9 30 fc ff ff       	jmp    3020 <_init+0x20>

00000000000033f0 <__cxa_throw@plt>:
    33f0:	ff 25 02 8e 02 00    	jmp    *0x28e02(%rip)        # 2c1f8 <__cxa_throw@CXXABI_1.3>
    33f6:	68 3c 00 00 00       	push   $0x3c
    33fb:	e9 20 fc ff ff       	jmp    3020 <_init+0x20>

0000000000003400 <_ZNSolsEi@plt>:
    3400:	ff 25 fa 8d 02 00    	jmp    *0x28dfa(%rip)        # 2c200 <_ZNSolsEi@GLIBCXX_3.4>
    3406:	68 3d 00 00 00       	push   $0x3d
    340b:	e9 10 fc ff ff       	jmp    3020 <_init+0x20>

0000000000003410 <_ZNKSt7__cxx1112basic_stringIcSt11char_traitsIcESaIcEE4findEPKcmm@plt>:
    3410:	ff 25 f2 8d 02 00    	jmp    *0x28df2(%rip)        # 2c208 <_ZNKSt7__cxx1112basic_stringIcSt11char_traitsIcESaIcEE4findEPKcmm@GLIBCXX_3.4.21>
    3416:	68 3e 00 00 00       	push   $0x3e
    341b:	e9 00 fc ff ff       	jmp    3020 <_init+0x20>

0000000000003420 <_Unwind_Resume@plt>:
    3420:	ff 25 ea 8d 02 00    	jmp    *0x28dea(%rip)        # 2c210 <_Unwind_Resume@GCC_3.0>
    3426:	68 3f 00 00 00       	push   $0x3f
    342b:	e9 f0 fb ff ff       	jmp    3020 <_init+0x20>

0000000000003430 <_ZNSt7__cxx1112basic_stringIcSt11char_traitsIcESaIcEE9_M_createERmm@plt>:
    3430:	ff 25 e2 8d 02 00    	jmp    *0x28de2(%rip)        # 2c218 <_ZNSt7__cxx1112basic_stringIcSt11char_traitsIcESaIcEE9_M_createERmm@GLIBCXX_3.4.21>
    3436:	68 40 00 00 00       	push   $0x40
    343b:	e9 e0 fb ff ff       	jmp    3020 <_init+0x20>

0000000000003440 <_ZNSt7__cxx1112basic_stringIcSt11char_traitsIcESaIcEE9_M_mutateEmmPKcm@plt>:
    3440:	ff 25 da 8d 02 00    	jmp    *0x28dda(%rip)        # 2c220 <_ZNSt7__cxx1112basic_stringIcSt11char_traitsIcESaIcEE9_M_mutateEmmPKcm@GLIBCXX_3.4.21>
    3446:	68 41 00 00 00       	push   $0x41
    344b:	e9 d0 fb ff ff       	jmp    3020 <_init+0x20>

0000000000003450 <_ZNSt14basic_ifstreamIcSt11char_traitsIcEEC1EPKcSt13_Ios_Openmode@plt>:
    3450:	ff 25 d2 8d 02 00    	jmp    *0x28dd2(%rip)        # 2c228 <_ZNSt14basic_ifstreamIcSt11char_traitsIcEEC1EPKcSt13_Ios_Openmode@GLIBCXX_3.4>
    3456:	68 42 00 00 00       	push   $0x42
    345b:	e9 c0 fb ff ff       	jmp    3020 <_init+0x20>

0000000000003460 <_ZSt7getlineIcSt11char_traitsIcESaIcEERSt13basic_istreamIT_T0_ES7_RNSt7__cxx1112basic_stringIS4_S5_T1_EES4_@plt>:
    3460:	ff 25 ca 8d 02 00    	jmp    *0x28dca(%rip)        # 2c230 <_ZSt7getlineIcSt11char_traitsIcESaIcEERSt13basic_istreamIT_T0_ES7_RNSt7__cxx1112basic_stringIS4_S5_T1_EES4_@GLIBCXX_3.4.21>
    3466:	68 43 00 00 00       	push   $0x43
    346b:	e9 b0 fb ff ff       	jmp    3020 <_init+0x20>

0000000000003470 <_ZNSt7__cxx1112basic_stringIcSt11char_traitsIcESaIcEE6assignEPKc@plt>:
    3470:	ff 25 c2 8d 02 00    	jmp    *0x28dc2(%rip)        # 2c238 <_ZNSt7__cxx1112basic_stringIcSt11char_traitsIcESaIcEE6assignEPKc@GLIBCXX_3.4.21>
    3476:	68 44 00 00 00       	push   $0x44
    347b:	e9 a0 fb ff ff       	jmp    3020 <_init+0x20>

0000000000003480 <fwrite@plt>:
    3480:	ff 25 ba 8d 02 00    	jmp    *0x28dba(%rip)        # 2c240 <fwrite@GLIBC_2.2.5>
    3486:	68 45 00 00 00       	push   $0x45
    348b:	e9 90 fb ff ff       	jmp    3020 <_init+0x20>

0000000000003490 <_ZnwmRKSt9nothrow_t@plt>:
    3490:	ff 25 b2 8d 02 00    	jmp    *0x28db2(%rip)        # 2c248 <_ZnwmRKSt9nothrow_t@GLIBCXX_3.4>
    3496:	68 46 00 00 00       	push   $0x46
    349b:	e9 80 fb ff ff       	jmp    3020 <_init+0x20>

00000000000034a0 <_ZNSi10_M_extractIfEERSiRT_@plt>:
    34a0:	ff 25 aa 8d 02 00    	jmp    *0x28daa(%rip)        # 2c250 <_ZNSi10_M_extractIfEERSiRT_@GLIBCXX_3.4.9>
    34a6:	68 47 00 00 00       	push   $0x47
    34ab:	e9 70 fb ff ff       	jmp    3020 <_init+0x20>

Disassembly of section .plt.got:

00000000000034b0 <__cxa_finalize@plt>:
    34b0:	ff 25 b2 8a 02 00    	jmp    *0x28ab2(%rip)        # 2bf68 <__cxa_finalize@GLIBC_2.2.5>
    34b6:	66 90                	xchg   %ax,%ax

Disassembly of section .text:

00000000000034c0 <_GLOBAL__sub_I_Leela.cpp>:
    34c0:	53                   	push   %rbx
    34c1:	48 8d 1d e9 a6 02 00 	lea    0x2a6e9(%rip),%rbx        # 2dbb1 <_ZStL8__ioinit>
    34c8:	48 89 df             	mov    %rbx,%rdi
    34cb:	e8 90 fe ff ff       	call   3360 <_ZNSt8ios_base4InitC1Ev@plt>
    34d0:	48 8b 3d 21 8b 02 00 	mov    0x28b21(%rip),%rdi        # 2bff8 <_ZNSt8ios_base4InitD1Ev@GLIBCXX_3.4>
    34d7:	48 8d 15 82 8d 02 00 	lea    0x28d82(%rip),%rdx        # 2c260 <__dso_handle>
    34de:	48 89 de             	mov    %rbx,%rsi
    34e1:	5b                   	pop    %rbx
    34e2:	e9 29 fd ff ff       	jmp    3210 <__cxa_atexit@plt>
    34e7:	66 0f 1f 84 00 00 00 	nopw   0x0(%rax,%rax,1)
    34ee:	00 00 

00000000000034f0 <_GLOBAL__sub_I_SGFParser.cpp>:
    34f0:	53                   	push   %rbx
    34f1:	48 8d 1d ba a6 02 00 	lea    0x2a6ba(%rip),%rbx        # 2dbb2 <_ZStL8__ioinit>
    34f8:	48 89 df             	mov    %rbx,%rdi
    34fb:	e8 60 fe ff ff       	call   3360 <_ZNSt8ios_base4InitC1Ev@plt>
    3500:	48 8b 3d f1 8a 02 00 	mov    0x28af1(%rip),%rdi        # 2bff8 <_ZNSt8ios_base4InitD1Ev@GLIBCXX_3.4>
    3507:	48 8d 15 52 8d 02 00 	lea    0x28d52(%rip),%rdx        # 2c260 <__dso_handle>
    350e:	48 89 de             	mov    %rbx,%rsi
    3511:	5b                   	pop    %rbx
    3512:	e9 f9 fc ff ff       	jmp    3210 <__cxa_atexit@plt>
    3517:	66 0f 1f 84 00 00 00 	nopw   0x0(%rax,%rax,1)
    351e:	00 00 

0000000000003520 <_GLOBAL__sub_I_Utils.cpp>:
    3520:	53                   	push   %rbx
    3521:	48 8d 1d 8b a6 02 00 	lea    0x2a68b(%rip),%rbx        # 2dbb3 <_ZStL8__ioinit>
    3528:	48 89 df             	mov    %rbx,%rdi
    352b:	e8 30 fe ff ff       	call   3360 <_ZNSt8ios_base4InitC1Ev@plt>
    3530:	48 8b 3d c1 8a 02 00 	mov    0x28ac1(%rip),%rdi        # 2bff8 <_ZNSt8ios_base4InitD1Ev@GLIBCXX_3.4>
    3537:	48 8d 15 22 8d 02 00 	lea    0x28d22(%rip),%rdx        # 2c260 <__dso_handle>
    353e:	48 89 de             	mov    %rbx,%rsi
    3541:	5b                   	pop    %rbx
    3542:	e9 c9 fc ff ff       	jmp    3210 <__cxa_atexit@plt>
    3547:	66 0f 1f 84 00 00 00 	nopw   0x0(%rax,%rax,1)
    354e:	00 00 

0000000000003550 <_GLOBAL__sub_I_FastBoard.cpp>:
    3550:	53                   	push   %rbx
    3551:	48 8d 1d 5c a6 02 00 	lea    0x2a65c(%rip),%rbx        # 2dbb4 <_ZStL8__ioinit>
    3558:	48 89 df             	mov    %rbx,%rdi
    355b:	e8 00 fe ff ff       	call   3360 <_ZNSt8ios_base4InitC1Ev@plt>
    3560:	48 8b 3d 91 8a 02 00 	mov    0x28a91(%rip),%rdi        # 2bff8 <_ZNSt8ios_base4InitD1Ev@GLIBCXX_3.4>
    3567:	48 8d 15 f2 8c 02 00 	lea    0x28cf2(%rip),%rdx        # 2c260 <__dso_handle>
    356e:	48 89 de             	mov    %rbx,%rsi
    3571:	5b                   	pop    %rbx
    3572:	e9 99 fc ff ff       	jmp    3210 <__cxa_atexit@plt>
    3577:	66 0f 1f 84 00 00 00 	nopw   0x0(%rax,%rax,1)
    357e:	00 00 

0000000000003580 <_GLOBAL__sub_I_SGFTree.cpp>:
    3580:	53                   	push   %rbx
    3581:	48 8d 1d 38 a6 02 00 	lea    0x2a638(%rip),%rbx        # 2dbc0 <_ZStL8__ioinit>
    3588:	48 89 df             	mov    %rbx,%rdi
    358b:	e8 d0 fd ff ff       	call   3360 <_ZNSt8ios_base4InitC1Ev@plt>
    3590:	48 8b 3d 61 8a 02 00 	mov    0x28a61(%rip),%rdi        # 2bff8 <_ZNSt8ios_base4InitD1Ev@GLIBCXX_3.4>
    3597:	48 8d 15 c2 8c 02 00 	lea    0x28cc2(%rip),%rdx        # 2c260 <__dso_handle>
    359e:	48 89 de             	mov    %rbx,%rsi
    35a1:	5b                   	pop    %rbx
    35a2:	e9 69 fc ff ff       	jmp    3210 <__cxa_atexit@plt>
    35a7:	66 0f 1f 84 00 00 00 	nopw   0x0(%rax,%rax,1)
    35ae:	00 00 

00000000000035b0 <__cxx_global_array_dtor>:
    35b0:	50                   	push   %rax
    35b1:	48 8b 3d b8 17 03 00 	mov    0x317b8(%rip),%rdi        # 34d70 <_ZN3GTP10s_commandsB5cxx11E+0x320>
    35b8:	48 8d 05 c1 17 03 00 	lea    0x317c1(%rip),%rax        # 34d80 <_ZN3GTP10s_commandsB5cxx11E+0x330>
    35bf:	48 39 c7             	cmp    %rax,%rdi
    35c2:	74 05                	je     35c9 <__cxx_global_array_dtor+0x19>
    35c4:	e8 57 fc ff ff       	call   3220 <_ZdlPv@plt>
    35c9:	48 8b 3d 80 17 03 00 	mov    0x31780(%rip),%rdi        # 34d50 <_ZN3GTP10s_commandsB5cxx11E+0x300>
    35d0:	48 8d 05 89 17 03 00 	lea    0x31789(%rip),%rax        # 34d60 <_ZN3GTP10s_commandsB5cxx11E+0x310>
    35d7:	48 39 c7             	cmp    %rax,%rdi
    35da:	74 05                	je     35e1 <__cxx_global_array_dtor+0x31>
    35dc:	e8 3f fc ff ff       	call   3220 <_ZdlPv@plt>
    35e1:	48 8b 3d 48 17 03 00 	mov    0x31748(%rip),%rdi        # 34d30 <_ZN3GTP10s_commandsB5cxx11E+0x2e0>
    35e8:	48 8d 05 51 17 03 00 	lea    0x31751(%rip),%rax        # 34d40 <_ZN3GTP10s_commandsB5cxx11E+0x2f0>
    35ef:	48 39 c7             	cmp    %rax,%rdi
    35f2:	74 05                	je     35f9 <__cxx_global_array_dtor+0x49>
    35f4:	e8 27 fc ff ff       	call   3220 <_ZdlPv@plt>
    35f9:	48 8b 3d 10 17 03 00 	mov    0x31710(%rip),%rdi        # 34d10 <_ZN3GTP10s_commandsB5cxx11E+0x2c0>
    3600:	48 8d 05 19 17 03 00 	lea    0x31719(%rip),%rax        # 34d20 <_ZN3GTP10s_commandsB5cxx11E+0x2d0>
    3607:	48 39 c7             	cmp    %rax,%rdi
    360a:	74 05                	je     3611 <__cxx_global_array_dtor+0x61>
    360c:	e8 0f fc ff ff       	call   3220 <_ZdlPv@plt>
    3611:	48 8b 3d d8 16 03 00 	mov    0x316d8(%rip),%rdi        # 34cf0 <_ZN3GTP10s_commandsB5cxx11E+0x2a0>
    3618:	48 8d 05 e1 16 03 00 	lea    0x316e1(%rip),%rax        # 34d00 <_ZN3GTP10s_commandsB5cxx11E+0x2b0>
    361f:	48 39 c7             	cmp    %rax,%rdi
    3622:	74 05                	je     3629 <__cxx_global_array_dtor+0x79>
    3624:	e8 f7 fb ff ff       	call   3220 <_ZdlPv@plt>
    3629:	48 8b 3d a0 16 03 00 	mov    0x316a0(%rip),%rdi        # 34cd0 <_ZN3GTP10s_commandsB5cxx11E+0x280>
    3630:	48 8d 05 a9 16 03 00 	lea    0x316a9(%rip),%rax        # 34ce0 <_ZN3GTP10s_commandsB5cxx11E+0x290>
    3637:	48 39 c7             	cmp    %rax,%rdi
    363a:	74 05                	je     3641 <__cxx_global_array_dtor+0x91>
    363c:	e8 df fb ff ff       	call   3220 <_ZdlPv@plt>
    3641:	48 8b 3d 68 16 03 00 	mov    0x31668(%rip),%rdi        # 34cb0 <_ZN3GTP10s_commandsB5cxx11E+0x260>
    3648:	48 8d 05 71 16 03 00 	lea    0x31671(%rip),%rax        # 34cc0 <_ZN3GTP10s_commandsB5cxx11E+0x270>
    364f:	48 39 c7             	cmp    %rax,%rdi
    3652:	74 05                	je     3659 <__cxx_global_array_dtor+0xa9>
    3654:	e8 c7 fb ff ff       	call   3220 <_ZdlPv@plt>
    3659:	48 8b 3d 30 16 03 00 	mov    0x31630(%rip),%rdi        # 34c90 <_ZN3GTP10s_commandsB5cxx11E+0x240>
    3660:	48 8d 05 39 16 03 00 	lea    0x31639(%rip),%rax        # 34ca0 <_ZN3GTP10s_commandsB5cxx11E+0x250>
    3667:	48 39 c7             	cmp    %rax,%rdi
    366a:	74 05                	je     3671 <__cxx_global_array_dtor+0xc1>
    366c:	e8 af fb ff ff       	call   3220 <_ZdlPv@plt>
    3671:	48 8b 3d f8 15 03 00 	mov    0x315f8(%rip),%rdi        # 34c70 <_ZN3GTP10s_commandsB5cxx11E+0x220>
    3678:	48 8d 05 01 16 03 00 	lea    0x31601(%rip),%rax        # 34c80 <_ZN3GTP10s_commandsB5cxx11E+0x230>
    367f:	48 39 c7             	cmp    %rax,%rdi
    3682:	74 05                	je     3689 <__cxx_global_array_dtor+0xd9>
    3684:	e8 97 fb ff ff       	call   3220 <_ZdlPv@plt>
    3689:	48 8b 3d c0 15 03 00 	mov    0x315c0(%rip),%rdi        # 34c50 <_ZN3GTP10s_commandsB5cxx11E+0x200>
    3690:	48 8d 05 c9 15 03 00 	lea    0x315c9(%rip),%rax        # 34c60 <_ZN3GTP10s_commandsB5cxx11E+0x210>
    3697:	48 39 c7             	cmp    %rax,%rdi
    369a:	74 05                	je     36a1 <__cxx_global_array_dtor+0xf1>
    369c:	e8 7f fb ff ff       	call   3220 <_ZdlPv@plt>
    36a1:	48 8b 3d 88 15 03 00 	mov    0x31588(%rip),%rdi        # 34c30 <_ZN3GTP10s_commandsB5cxx11E+0x1e0>
    36a8:	48 8d 05 91 15 03 00 	lea    0x31591(%rip),%rax        # 34c40 <_ZN3GTP10s_commandsB5cxx11E+0x1f0>
    36af:	48 39 c7             	cmp    %rax,%rdi
    36b2:	74 05                	je     36b9 <__cxx_global_array_dtor+0x109>
    36b4:	e8 67 fb ff ff       	call   3220 <_ZdlPv@plt>
    36b9:	48 8b 3d 50 15 03 00 	mov    0x31550(%rip),%rdi        # 34c10 <_ZN3GTP10s_commandsB5cxx11E+0x1c0>
    36c0:	48 8d 05 59 15 03 00 	lea    0x31559(%rip),%rax        # 34c20 <_ZN3GTP10s_commandsB5cxx11E+0x1d0>
    36c7:	48 39 c7             	cmp    %rax,%rdi
    36ca:	74 05                	je     36d1 <__cxx_global_array_dtor+0x121>
    36cc:	e8 4f fb ff ff       	call   3220 <_ZdlPv@plt>
    36d1:	48 8b 3d 18 15 03 00 	mov    0x31518(%rip),%rdi        # 34bf0 <_ZN3GTP10s_commandsB5cxx11E+0x1a0>
    36d8:	48 8d 05 21 15 03 00 	lea    0x31521(%rip),%rax        # 34c00 <_ZN3GTP10s_commandsB5cxx11E+0x1b0>
    36df:	48 39 c7             	cmp    %rax,%rdi
    36e2:	74 05                	je     36e9 <__cxx_global_array_dtor+0x139>
    36e4:	e8 37 fb ff ff       	call   3220 <_ZdlPv@plt>
    36e9:	48 8b 3d e0 14 03 00 	mov    0x314e0(%rip),%rdi        # 34bd0 <_ZN3GTP10s_commandsB5cxx11E+0x180>
    36f0:	48 8d 05 e9 14 03 00 	lea    0x314e9(%rip),%rax        # 34be0 <_ZN3GTP10s_commandsB5cxx11E+0x190>
    36f7:	48 39 c7             	cmp    %rax,%rdi
    36fa:	74 05                	je     3701 <__cxx_global_array_dtor+0x151>
    36fc:	e8 1f fb ff ff       	call   3220 <_ZdlPv@plt>
    3701:	48 8b 3d a8 14 03 00 	mov    0x314a8(%rip),%rdi        # 34bb0 <_ZN3GTP10s_commandsB5cxx11E+0x160>
    3708:	48 8d 05 b1 14 03 00 	lea    0x314b1(%rip),%rax        # 34bc0 <_ZN3GTP10s_commandsB5cxx11E+0x170>
    370f:	48 39 c7             	cmp    %rax,%rdi
    3712:	74 05                	je     3719 <__cxx_global_array_dtor+0x169>
    3714:	e8 07 fb ff ff       	call   3220 <_ZdlPv@plt>
    3719:	48 8b 3d 70 14 03 00 	mov    0x31470(%rip),%rdi        # 34b90 <_ZN3GTP10s_commandsB5cxx11E+0x140>
    3720:	48 8d 05 79 14 03 00 	lea    0x31479(%rip),%rax        # 34ba0 <_ZN3GTP10s_commandsB5cxx11E+0x150>
    3727:	48 39 c7             	cmp    %rax,%rdi
    372a:	74 05                	je     3731 <__cxx_global_array_dtor+0x181>
    372c:	e8 ef fa ff ff       	call   3220 <_ZdlPv@plt>
    3731:	48 8b 3d 38 14 03 00 	mov    0x31438(%rip),%rdi        # 34b70 <_ZN3GTP10s_commandsB5cxx11E+0x120>
    3738:	48 8d 05 41 14 03 00 	lea    0x31441(%rip),%rax        # 34b80 <_ZN3GTP10s_commandsB5cxx11E+0x130>
    373f:	48 39 c7             	cmp    %rax,%rdi
    3742:	74 05                	je     3749 <__cxx_global_array_dtor+0x199>
    3744:	e8 d7 fa ff ff       	call   3220 <_ZdlPv@plt>
    3749:	48 8b 3d 00 14 03 00 	mov    0x31400(%rip),%rdi        # 34b50 <_ZN3GTP10s_commandsB5cxx11E+0x100>
    3750:	48 8d 05 09 14 03 00 	lea    0x31409(%rip),%rax        # 34b60 <_ZN3GTP10s_commandsB5cxx11E+0x110>
    3757:	48 39 c7             	cmp    %rax,%rdi
    375a:	74 05                	je     3761 <__cxx_global_array_dtor+0x1b1>
    375c:	e8 bf fa ff ff       	call   3220 <_ZdlPv@plt>
    3761:	48 8b 3d c8 13 03 00 	mov    0x313c8(%rip),%rdi        # 34b30 <_ZN3GTP10s_commandsB5cxx11E+0xe0>
    3768:	48 8d 05 d1 13 03 00 	lea    0x313d1(%rip),%rax        # 34b40 <_ZN3GTP10s_commandsB5cxx11E+0xf0>
    376f:	48 39 c7             	cmp    %rax,%rdi
    3772:	74 05                	je     3779 <__cxx_global_array_dtor+0x1c9>
    3774:	e8 a7 fa ff ff       	call   3220 <_ZdlPv@plt>
    3779:	48 8b 3d 90 13 03 00 	mov    0x31390(%rip),%rdi        # 34b10 <_ZN3GTP10s_commandsB5cxx11E+0xc0>
    3780:	48 8d 05 99 13 03 00 	lea    0x31399(%rip),%rax        # 34b20 <_ZN3GTP10s_commandsB5cxx11E+0xd0>
    3787:	48 39 c7             	cmp    %rax,%rdi
    378a:	74 05                	je     3791 <__cxx_global_array_dtor+0x1e1>
    378c:	e8 8f fa ff ff       	call   3220 <_ZdlPv@plt>
    3791:	48 8b 3d 58 13 03 00 	mov    0x31358(%rip),%rdi        # 34af0 <_ZN3GTP10s_commandsB5cxx11E+0xa0>
    3798:	48 8d 05 61 13 03 00 	lea    0x31361(%rip),%rax        # 34b00 <_ZN3GTP10s_commandsB5cxx11E+0xb0>
    379f:	48 39 c7             	cmp    %rax,%rdi
    37a2:	74 05                	je     37a9 <__cxx_global_array_dtor+0x1f9>
    37a4:	e8 77 fa ff ff       	call   3220 <_ZdlPv@plt>
    37a9:	48 8b 3d 20 13 03 00 	mov    0x31320(%rip),%rdi        # 34ad0 <_ZN3GTP10s_commandsB5cxx11E+0x80>
    37b0:	48 8d 05 29 13 03 00 	lea    0x31329(%rip),%rax        # 34ae0 <_ZN3GTP10s_commandsB5cxx11E+0x90>
    37b7:	48 39 c7             	cmp    %rax,%rdi
    37ba:	74 05                	je     37c1 <__cxx_global_array_dtor+0x211>
    37bc:	e8 5f fa ff ff       	call   3220 <_ZdlPv@plt>
    37c1:	48 8b 3d e8 12 03 00 	mov    0x312e8(%rip),%rdi        # 34ab0 <_ZN3GTP10s_commandsB5cxx11E+0x60>
    37c8:	48 8d 05 f1 12 03 00 	lea    0x312f1(%rip),%rax        # 34ac0 <_ZN3GTP10s_commandsB5cxx11E+0x70>
    37cf:	48 39 c7             	cmp    %rax,%rdi
    37d2:	74 05                	je     37d9 <__cxx_global_array_dtor+0x229>
    37d4:	e8 47 fa ff ff       	call   3220 <_ZdlPv@plt>
    37d9:	48 8b 3d b0 12 03 00 	mov    0x312b0(%rip),%rdi        # 34a90 <_ZN3GTP10s_commandsB5cxx11E+0x40>
    37e0:	48 8d 05 b9 12 03 00 	lea    0x312b9(%rip),%rax        # 34aa0 <_ZN3GTP10s_commandsB5cxx11E+0x50>
    37e7:	48 39 c7             	cmp    %rax,%rdi
    37ea:	74 05                	je     37f1 <__cxx_global_array_dtor+0x241>
    37ec:	e8 2f fa ff ff       	call   3220 <_ZdlPv@plt>
    37f1:	48 8b 3d 78 12 03 00 	mov    0x31278(%rip),%rdi        # 34a70 <_ZN3GTP10s_commandsB5cxx11E+0x20>
    37f8:	48 8d 05 81 12 03 00 	lea    0x31281(%rip),%rax        # 34a80 <_ZN3GTP10s_commandsB5cxx11E+0x30>
    37ff:	48 39 c7             	cmp    %rax,%rdi
    3802:	74 05                	je     3809 <__cxx_global_array_dtor+0x259>
    3804:	e8 17 fa ff ff       	call   3220 <_ZdlPv@plt>
    3809:	48 8b 3d 40 12 03 00 	mov    0x31240(%rip),%rdi        # 34a50 <_ZN3GTP10s_commandsB5cxx11E>
    3810:	48 8d 05 49 12 03 00 	lea    0x31249(%rip),%rax        # 34a60 <_ZN3GTP10s_commandsB5cxx11E+0x10>
    3817:	48 39 c7             	cmp    %rax,%rdi
    381a:	74 06                	je     3822 <__cxx_global_array_dtor+0x272>
    381c:	58                   	pop    %rax
    381d:	e9 fe f9 ff ff       	jmp    3220 <_ZdlPv@plt>
    3822:	58                   	pop    %rax
    3823:	c3                   	ret    
    3824:	66 66 66 2e 0f 1f 84 	data16 data16 cs nopw 0x0(%rax,%rax,1)
    382b:	00 00 00 00 00 

0000000000003830 <_GLOBAL__sub_I_GTP.cpp>:
    3830:	41 57                	push   %r15
    3832:	41 56                	push   %r14
    3834:	53                   	push   %rbx
    3835:	48 83 ec 10          	sub    $0x10,%rsp
    3839:	48 8d 1d 00 12 03 00 	lea    0x31200(%rip),%rbx        # 34a40 <_ZStL8__ioinit>
    3840:	48 89 df             	mov    %rbx,%rdi
    3843:	e8 18 fb ff ff       	call   3360 <_ZNSt8ios_base4InitC1Ev@plt>
    3848:	48 8b 3d a9 87 02 00 	mov    0x287a9(%rip),%rdi        # 2bff8 <_ZNSt8ios_base4InitD1Ev@GLIBCXX_3.4>
    384f:	48 8d 15 0a 8a 02 00 	lea    0x28a0a(%rip),%rdx        # 2c260 <__dso_handle>
    3856:	48 89 de             	mov    %rbx,%rsi
    3859:	e8 b2 f9 ff ff       	call   3210 <__cxa_atexit@plt>
    385e:	48 8d 05 fb 11 03 00 	lea    0x311fb(%rip),%rax        # 34a60 <_ZN3GTP10s_commandsB5cxx11E+0x10>
    3865:	48 89 05 e4 11 03 00 	mov    %rax,0x311e4(%rip)        # 34a50 <_ZN3GTP10s_commandsB5cxx11E>
    386c:	48 8d 1d dd 11 03 00 	lea    0x311dd(%rip),%rbx        # 34a50 <_ZN3GTP10s_commandsB5cxx11E>
    3873:	48 c7 44 24 08 10 00 	movq   $0x10,0x8(%rsp)
    387a:	00 00 
    387c:	48 8d 74 24 08       	lea    0x8(%rsp),%rsi
    3881:	48 89 df             	mov    %rbx,%rdi
    3884:	31 d2                	xor    %edx,%edx
    3886:	e8 a5 fb ff ff       	call   3430 <_ZNSt7__cxx1112basic_stringIcSt11char_traitsIcESaIcEE9_M_createERmm@plt>
    388b:	48 89 05 be 11 03 00 	mov    %rax,0x311be(%rip)        # 34a50 <_ZN3GTP10s_commandsB5cxx11E>
    3892:	48 8b 4c 24 08       	mov    0x8(%rsp),%rcx
    3897:	48 89 0d c2 11 03 00 	mov    %rcx,0x311c2(%rip)        # 34a60 <_ZN3GTP10s_commandsB5cxx11E+0x10>
    389e:	0f 10 05 fb 0c 02 00 	movups 0x20cfb(%rip),%xmm0        # 245a0 <_ZZN9FastState16play_random_moveEiE10crit_enemy+0xcc>
    38a5:	0f 11 00             	movups %xmm0,(%rax)
    38a8:	48 89 0d a9 11 03 00 	mov    %rcx,0x311a9(%rip)        # 34a58 <_ZN3GTP10s_commandsB5cxx11E+0x8>
    38af:	48 8b 05 9a 11 03 00 	mov    0x3119a(%rip),%rax        # 34a50 <_ZN3GTP10s_commandsB5cxx11E>
    38b6:	c6 04 08 00          	movb   $0x0,(%rax,%rcx,1)
    38ba:	48 8d 05 bf 11 03 00 	lea    0x311bf(%rip),%rax        # 34a80 <_ZN3GTP10s_commandsB5cxx11E+0x30>
    38c1:	48 89 05 a8 11 03 00 	mov    %rax,0x311a8(%rip)        # 34a70 <_ZN3GTP10s_commandsB5cxx11E+0x20>
    38c8:	c7 05 ae 11 03 00 6e 	movl   $0x656d616e,0x311ae(%rip)        # 34a80 <_ZN3GTP10s_commandsB5cxx11E+0x30>
    38cf:	61 6d 65 
    38d2:	48 c7 05 9b 11 03 00 	movq   $0x4,0x3119b(%rip)        # 34a78 <_ZN3GTP10s_commandsB5cxx11E+0x28>
    38d9:	04 00 00 00 
    38dd:	c6 05 a0 11 03 00 00 	movb   $0x0,0x311a0(%rip)        # 34a84 <_ZN3GTP10s_commandsB5cxx11E+0x34>
    38e4:	48 8d 05 b5 11 03 00 	lea    0x311b5(%rip),%rax        # 34aa0 <_ZN3GTP10s_commandsB5cxx11E+0x50>
    38eb:	48 89 05 9e 11 03 00 	mov    %rax,0x3119e(%rip)        # 34a90 <_ZN3GTP10s_commandsB5cxx11E+0x40>
    38f2:	c7 05 a4 11 03 00 76 	movl   $0x73726576,0x311a4(%rip)        # 34aa0 <_ZN3GTP10s_commandsB5cxx11E+0x50>
    38f9:	65 72 73 
    38fc:	c7 05 9d 11 03 00 73 	movl   $0x6e6f6973,0x3119d(%rip)        # 34aa3 <_ZN3GTP10s_commandsB5cxx11E+0x53>
    3903:	69 6f 6e 
    3906:	48 c7 05 87 11 03 00 	movq   $0x7,0x31187(%rip)        # 34a98 <_ZN3GTP10s_commandsB5cxx11E+0x48>
    390d:	07 00 00 00 
    3911:	c6 05 8f 11 03 00 00 	movb   $0x0,0x3118f(%rip)        # 34aa7 <_ZN3GTP10s_commandsB5cxx11E+0x57>
    3918:	48 8d 05 a1 11 03 00 	lea    0x311a1(%rip),%rax        # 34ac0 <_ZN3GTP10s_commandsB5cxx11E+0x70>
    391f:	48 89 05 8a 11 03 00 	mov    %rax,0x3118a(%rip)        # 34ab0 <_ZN3GTP10s_commandsB5cxx11E+0x60>
    3926:	c7 05 90 11 03 00 71 	movl   $0x74697571,0x31190(%rip)        # 34ac0 <_ZN3GTP10s_commandsB5cxx11E+0x70>
    392d:	75 69 74 
    3930:	48 c7 05 7d 11 03 00 	movq   $0x4,0x3117d(%rip)        # 34ab8 <_ZN3GTP10s_commandsB5cxx11E+0x68>
    3937:	04 00 00 00 
    393b:	c6 05 82 11 03 00 00 	movb   $0x0,0x31182(%rip)        # 34ac4 <_ZN3GTP10s_commandsB5cxx11E+0x74>
    3942:	48 8d 05 97 11 03 00 	lea    0x31197(%rip),%rax        # 34ae0 <_ZN3GTP10s_commandsB5cxx11E+0x90>
    3949:	48 89 05 80 11 03 00 	mov    %rax,0x31180(%rip)        # 34ad0 <_ZN3GTP10s_commandsB5cxx11E+0x80>
    3950:	48 b8 6b 6e 6f 77 6e 	movabs $0x6f635f6e776f6e6b,%rax
    3957:	5f 63 6f 
    395a:	48 89 05 7f 11 03 00 	mov    %rax,0x3117f(%rip)        # 34ae0 <_ZN3GTP10s_commandsB5cxx11E+0x90>
    3961:	48 b8 5f 63 6f 6d 6d 	movabs $0x646e616d6d6f635f,%rax
    3968:	61 6e 64 
    396b:	48 89 05 73 11 03 00 	mov    %rax,0x31173(%rip)        # 34ae5 <_ZN3GTP10s_commandsB5cxx11E+0x95>
    3972:	48 c7 05 5b 11 03 00 	movq   $0xd,0x3115b(%rip)        # 34ad8 <_ZN3GTP10s_commandsB5cxx11E+0x88>
    3979:	0d 00 00 00 
    397d:	c6 05 69 11 03 00 00 	movb   $0x0,0x31169(%rip)        # 34aed <_ZN3GTP10s_commandsB5cxx11E+0x9d>
    3984:	48 8d 05 75 11 03 00 	lea    0x31175(%rip),%rax        # 34b00 <_ZN3GTP10s_commandsB5cxx11E+0xb0>
    398b:	48 89 05 5e 11 03 00 	mov    %rax,0x3115e(%rip)        # 34af0 <_ZN3GTP10s_commandsB5cxx11E+0xa0>
    3992:	48 b8 63 6f 6d 6d 61 	movabs $0x73646e616d6d6f63,%rax
    3999:	6e 64 73 
    399c:	48 89 05 62 11 03 00 	mov    %rax,0x31162(%rip)        # 34b05 <_ZN3GTP10s_commandsB5cxx11E+0xb5>
    39a3:	48 b8 6c 69 73 74 5f 	movabs $0x6d6f635f7473696c,%rax
    39aa:	63 6f 6d 
    39ad:	48 89 05 4c 11 03 00 	mov    %rax,0x3114c(%rip)        # 34b00 <_ZN3GTP10s_commandsB5cxx11E+0xb0>
    39b4:	48 c7 05 39 11 03 00 	movq   $0xd,0x31139(%rip)        # 34af8 <_ZN3GTP10s_commandsB5cxx11E+0xa8>
    39bb:	0d 00 00 00 
    39bf:	c6 05 47 11 03 00 00 	movb   $0x0,0x31147(%rip)        # 34b0d <_ZN3GTP10s_commandsB5cxx11E+0xbd>
    39c6:	48 8d 05 53 11 03 00 	lea    0x31153(%rip),%rax        # 34b20 <_ZN3GTP10s_commandsB5cxx11E+0xd0>
    39cd:	48 89 05 3c 11 03 00 	mov    %rax,0x3113c(%rip)        # 34b10 <_ZN3GTP10s_commandsB5cxx11E+0xc0>
    39d4:	c7 05 42 11 03 00 71 	movl   $0x74697571,0x31142(%rip)        # 34b20 <_ZN3GTP10s_commandsB5cxx11E+0xd0>
    39db:	75 69 74 
    39de:	48 c7 05 2f 11 03 00 	movq   $0x4,0x3112f(%rip)        # 34b18 <_ZN3GTP10s_commandsB5cxx11E+0xc8>
    39e5:	04 00 00 00 
    39e9:	c6 05 34 11 03 00 00 	movb   $0x0,0x31134(%rip)        # 34b24 <_ZN3GTP10s_commandsB5cxx11E+0xd4>
    39f0:	48 8d 05 49 11 03 00 	lea    0x31149(%rip),%rax        # 34b40 <_ZN3GTP10s_commandsB5cxx11E+0xf0>
    39f7:	48 89 05 32 11 03 00 	mov    %rax,0x31132(%rip)        # 34b30 <_ZN3GTP10s_commandsB5cxx11E+0xe0>
    39fe:	48 b8 62 6f 61 72 64 	movabs $0x7a69736472616f62,%rax
    3a05:	73 69 7a 
    3a08:	48 89 05 31 11 03 00 	mov    %rax,0x31131(%rip)        # 34b40 <_ZN3GTP10s_commandsB5cxx11E+0xf0>
    3a0f:	66 c7 05 30 11 03 00 	movw   $0x65,0x31130(%rip)        # 34b48 <_ZN3GTP10s_commandsB5cxx11E+0xf8>
    3a16:	65 00 
    3a18:	48 c7 05 15 11 03 00 	movq   $0x9,0x31115(%rip)        # 34b38 <_ZN3GTP10s_commandsB5cxx11E+0xe8>
    3a1f:	09 00 00 00 
    3a23:	48 8d 05 36 11 03 00 	lea    0x31136(%rip),%rax        # 34b60 <_ZN3GTP10s_commandsB5cxx11E+0x110>
    3a2a:	48 89 05 1f 11 03 00 	mov    %rax,0x3111f(%rip)        # 34b50 <_ZN3GTP10s_commandsB5cxx11E+0x100>
    3a31:	48 b8 63 6c 65 61 72 	movabs $0x6f625f7261656c63,%rax
    3a38:	5f 62 6f 
    3a3b:	48 89 05 1e 11 03 00 	mov    %rax,0x3111e(%rip)        # 34b60 <_ZN3GTP10s_commandsB5cxx11E+0x110>
    3a42:	c7 05 1b 11 03 00 6f 	movl   $0x6472616f,0x3111b(%rip)        # 34b67 <_ZN3GTP10s_commandsB5cxx11E+0x117>
    3a49:	61 72 64 
    3a4c:	48 c7 05 01 11 03 00 	movq   $0xb,0x31101(%rip)        # 34b58 <_ZN3GTP10s_commandsB5cxx11E+0x108>
    3a53:	0b 00 00 00 
    3a57:	c6 05 0d 11 03 00 00 	movb   $0x0,0x3110d(%rip)        # 34b6b <_ZN3GTP10s_commandsB5cxx11E+0x11b>
    3a5e:	48 8d 05 1b 11 03 00 	lea    0x3111b(%rip),%rax        # 34b80 <_ZN3GTP10s_commandsB5cxx11E+0x130>
    3a65:	48 89 05 04 11 03 00 	mov    %rax,0x31104(%rip)        # 34b70 <_ZN3GTP10s_commandsB5cxx11E+0x120>
    3a6c:	c7 05 0a 11 03 00 6b 	movl   $0x696d6f6b,0x3110a(%rip)        # 34b80 <_ZN3GTP10s_commandsB5cxx11E+0x130>
    3a73:	6f 6d 69 
    3a76:	48 c7 05 f7 10 03 00 	movq   $0x4,0x310f7(%rip)        # 34b78 <_ZN3GTP10s_commandsB5cxx11E+0x128>
    3a7d:	04 00 00 00 
    3a81:	c6 05 fc 10 03 00 00 	movb   $0x0,0x310fc(%rip)        # 34b84 <_ZN3GTP10s_commandsB5cxx11E+0x134>
    3a88:	48 8d 05 11 11 03 00 	lea    0x31111(%rip),%rax        # 34ba0 <_ZN3GTP10s_commandsB5cxx11E+0x150>
    3a8f:	48 89 05 fa 10 03 00 	mov    %rax,0x310fa(%rip)        # 34b90 <_ZN3GTP10s_commandsB5cxx11E+0x140>
    3a96:	c7 05 00 11 03 00 70 	movl   $0x79616c70,0x31100(%rip)        # 34ba0 <_ZN3GTP10s_commandsB5cxx11E+0x150>
    3a9d:	6c 61 79 
    3aa0:	48 c7 05 ed 10 03 00 	movq   $0x4,0x310ed(%rip)        # 34b98 <_ZN3GTP10s_commandsB5cxx11E+0x148>
    3aa7:	04 00 00 00 
    3aab:	c6 05 f2 10 03 00 00 	movb   $0x0,0x310f2(%rip)        # 34ba4 <_ZN3GTP10s_commandsB5cxx11E+0x154>
    3ab2:	48 8d 05 07 11 03 00 	lea    0x31107(%rip),%rax        # 34bc0 <_ZN3GTP10s_commandsB5cxx11E+0x170>
    3ab9:	48 89 05 f0 10 03 00 	mov    %rax,0x310f0(%rip)        # 34bb0 <_ZN3GTP10s_commandsB5cxx11E+0x160>
    3ac0:	c7 05 f9 10 03 00 6d 	movl   $0x65766f6d,0x310f9(%rip)        # 34bc3 <_ZN3GTP10s_commandsB5cxx11E+0x173>
    3ac7:	6f 76 65 
    3aca:	c7 05 ec 10 03 00 67 	movl   $0x6d6e6567,0x310ec(%rip)        # 34bc0 <_ZN3GTP10s_commandsB5cxx11E+0x170>
    3ad1:	65 6e 6d 
    3ad4:	48 c7 05 d9 10 03 00 	movq   $0x7,0x310d9(%rip)        # 34bb8 <_ZN3GTP10s_commandsB5cxx11E+0x168>
    3adb:	07 00 00 00 
    3adf:	c6 05 e1 10 03 00 00 	movb   $0x0,0x310e1(%rip)        # 34bc7 <_ZN3GTP10s_commandsB5cxx11E+0x177>
    3ae6:	48 8d 05 f3 10 03 00 	lea    0x310f3(%rip),%rax        # 34be0 <_ZN3GTP10s_commandsB5cxx11E+0x190>
    3aed:	48 89 05 dc 10 03 00 	mov    %rax,0x310dc(%rip)        # 34bd0 <_ZN3GTP10s_commandsB5cxx11E+0x180>
    3af4:	48 b8 73 68 6f 77 62 	movabs $0x72616f62776f6873,%rax
    3afb:	6f 61 72 
    3afe:	48 89 05 db 10 03 00 	mov    %rax,0x310db(%rip)        # 34be0 <_ZN3GTP10s_commandsB5cxx11E+0x190>
    3b05:	c6 05 dc 10 03 00 64 	movb   $0x64,0x310dc(%rip)        # 34be8 <_ZN3GTP10s_commandsB5cxx11E+0x198>
    3b0c:	48 c7 05 c1 10 03 00 	movq   $0x9,0x310c1(%rip)        # 34bd8 <_ZN3GTP10s_commandsB5cxx11E+0x188>
    3b13:	09 00 00 00 
    3b17:	c6 05 cb 10 03 00 00 	movb   $0x0,0x310cb(%rip)        # 34be9 <_ZN3GTP10s_commandsB5cxx11E+0x199>
    3b1e:	48 8d 05 db 10 03 00 	lea    0x310db(%rip),%rax        # 34c00 <_ZN3GTP10s_commandsB5cxx11E+0x1b0>
    3b25:	48 89 05 c4 10 03 00 	mov    %rax,0x310c4(%rip)        # 34bf0 <_ZN3GTP10s_commandsB5cxx11E+0x1a0>
    3b2c:	c7 05 ca 10 03 00 75 	movl   $0x6f646e75,0x310ca(%rip)        # 34c00 <_ZN3GTP10s_commandsB5cxx11E+0x1b0>
    3b33:	6e 64 6f 
    3b36:	48 c7 05 b7 10 03 00 	movq   $0x4,0x310b7(%rip)        # 34bf8 <_ZN3GTP10s_commandsB5cxx11E+0x1a8>
    3b3d:	04 00 00 00 
    3b41:	c6 05 bc 10 03 00 00 	movb   $0x0,0x310bc(%rip)        # 34c04 <_ZN3GTP10s_commandsB5cxx11E+0x1b4>
    3b48:	48 8d 05 d1 10 03 00 	lea    0x310d1(%rip),%rax        # 34c20 <_ZN3GTP10s_commandsB5cxx11E+0x1d0>
    3b4f:	48 89 05 ba 10 03 00 	mov    %rax,0x310ba(%rip)        # 34c10 <_ZN3GTP10s_commandsB5cxx11E+0x1c0>
    3b56:	48 b8 66 69 6e 61 6c 	movabs $0x63735f6c616e6966,%rax
    3b5d:	5f 73 63 
    3b60:	48 89 05 b9 10 03 00 	mov    %rax,0x310b9(%rip)        # 34c20 <_ZN3GTP10s_commandsB5cxx11E+0x1d0>
    3b67:	c7 05 b6 10 03 00 63 	movl   $0x65726f63,0x310b6(%rip)        # 34c27 <_ZN3GTP10s_commandsB5cxx11E+0x1d7>
    3b6e:	6f 72 65 
    3b71:	48 c7 05 9c 10 03 00 	movq   $0xb,0x3109c(%rip)        # 34c18 <_ZN3GTP10s_commandsB5cxx11E+0x1c8>
    3b78:	0b 00 00 00 
    3b7c:	c6 05 a8 10 03 00 00 	movb   $0x0,0x310a8(%rip)        # 34c2b <_ZN3GTP10s_commandsB5cxx11E+0x1db>
    3b83:	48 8d 05 b6 10 03 00 	lea    0x310b6(%rip),%rax        # 34c40 <_ZN3GTP10s_commandsB5cxx11E+0x1f0>
    3b8a:	48 89 05 9f 10 03 00 	mov    %rax,0x3109f(%rip)        # 34c30 <_ZN3GTP10s_commandsB5cxx11E+0x1e0>
    3b91:	4c 8d 35 98 10 03 00 	lea    0x31098(%rip),%r14        # 34c30 <_ZN3GTP10s_commandsB5cxx11E+0x1e0>
    3b98:	48 c7 44 24 08 11 00 	movq   $0x11,0x8(%rsp)
    3b9f:	00 00 
    3ba1:	48 8d 74 24 08       	lea    0x8(%rsp),%rsi
    3ba6:	4c 89 f7             	mov    %r14,%rdi
    3ba9:	31 d2                	xor    %edx,%edx
    3bab:	e8 80 f8 ff ff       	call   3430 <_ZNSt7__cxx1112basic_stringIcSt11char_traitsIcESaIcEE9_M_createERmm@plt>
    3bb0:	48 89 05 79 10 03 00 	mov    %rax,0x31079(%rip)        # 34c30 <_ZN3GTP10s_commandsB5cxx11E+0x1e0>
    3bb7:	48 8b 4c 24 08       	mov    0x8(%rsp),%rcx
    3bbc:	48 89 0d 7d 10 03 00 	mov    %rcx,0x3107d(%rip)        # 34c40 <_ZN3GTP10s_commandsB5cxx11E+0x1f0>
    3bc3:	0f 10 05 4b 0a 02 00 	movups 0x20a4b(%rip),%xmm0        # 24615 <_ZZN9FastState16play_random_moveEiE10crit_enemy+0x141>
    3bca:	0f 11 00             	movups %xmm0,(%rax)
    3bcd:	c6 40 10 74          	movb   $0x74,0x10(%rax)
    3bd1:	48 89 0d 60 10 03 00 	mov    %rcx,0x31060(%rip)        # 34c38 <_ZN3GTP10s_commandsB5cxx11E+0x1e8>
    3bd8:	48 8b 05 51 10 03 00 	mov    0x31051(%rip),%rax        # 34c30 <_ZN3GTP10s_commandsB5cxx11E+0x1e0>
    3bdf:	c6 04 08 00          	movb   $0x0,(%rax,%rcx,1)
    3be3:	48 8d 05 76 10 03 00 	lea    0x31076(%rip),%rax        # 34c60 <_ZN3GTP10s_commandsB5cxx11E+0x210>
    3bea:	48 89 05 5f 10 03 00 	mov    %rax,0x3105f(%rip)        # 34c50 <_ZN3GTP10s_commandsB5cxx11E+0x200>
    3bf1:	48 b8 74 69 6d 65 5f 	movabs $0x7465735f656d6974,%rax
    3bf8:	73 65 74 
    3bfb:	48 89 05 5e 10 03 00 	mov    %rax,0x3105e(%rip)        # 34c60 <_ZN3GTP10s_commandsB5cxx11E+0x210>
    3c02:	48 b8 73 65 74 74 69 	movabs $0x73676e6974746573,%rax
    3c09:	6e 67 73 
    3c0c:	48 89 05 52 10 03 00 	mov    %rax,0x31052(%rip)        # 34c65 <_ZN3GTP10s_commandsB5cxx11E+0x215>
    3c13:	48 c7 05 3a 10 03 00 	movq   $0xd,0x3103a(%rip)        # 34c58 <_ZN3GTP10s_commandsB5cxx11E+0x208>
    3c1a:	0d 00 00 00 
    3c1e:	c6 05 48 10 03 00 00 	movb   $0x0,0x31048(%rip)        # 34c6d <_ZN3GTP10s_commandsB5cxx11E+0x21d>
    3c25:	48 8d 05 54 10 03 00 	lea    0x31054(%rip),%rax        # 34c80 <_ZN3GTP10s_commandsB5cxx11E+0x230>
    3c2c:	48 89 05 3d 10 03 00 	mov    %rax,0x3103d(%rip)        # 34c70 <_ZN3GTP10s_commandsB5cxx11E+0x220>
    3c33:	48 b8 74 69 6d 65 5f 	movabs $0x66656c5f656d6974,%rax
    3c3a:	6c 65 66 
    3c3d:	48 89 05 3c 10 03 00 	mov    %rax,0x3103c(%rip)        # 34c80 <_ZN3GTP10s_commandsB5cxx11E+0x230>
    3c44:	66 c7 05 3b 10 03 00 	movw   $0x74,0x3103b(%rip)        # 34c88 <_ZN3GTP10s_commandsB5cxx11E+0x238>
    3c4b:	74 00 
    3c4d:	48 c7 05 20 10 03 00 	movq   $0x9,0x31020(%rip)        # 34c78 <_ZN3GTP10s_commandsB5cxx11E+0x228>
    3c54:	09 00 00 00 
    3c58:	48 8d 05 41 10 03 00 	lea    0x31041(%rip),%rax        # 34ca0 <_ZN3GTP10s_commandsB5cxx11E+0x250>
    3c5f:	48 89 05 2a 10 03 00 	mov    %rax,0x3102a(%rip)        # 34c90 <_ZN3GTP10s_commandsB5cxx11E+0x240>
    3c66:	48 b8 69 6e 66 6c 75 	movabs $0x636e65756c666e69,%rax
    3c6d:	65 6e 63 
    3c70:	48 89 05 29 10 03 00 	mov    %rax,0x31029(%rip)        # 34ca0 <_ZN3GTP10s_commandsB5cxx11E+0x250>
    3c77:	66 c7 05 28 10 03 00 	movw   $0x65,0x31028(%rip)        # 34ca8 <_ZN3GTP10s_commandsB5cxx11E+0x258>
    3c7e:	65 00 
    3c80:	48 c7 05 0d 10 03 00 	movq   $0x9,0x3100d(%rip)        # 34c98 <_ZN3GTP10s_commandsB5cxx11E+0x248>
    3c87:	09 00 00 00 
    3c8b:	48 8d 05 2e 10 03 00 	lea    0x3102e(%rip),%rax        # 34cc0 <_ZN3GTP10s_commandsB5cxx11E+0x270>
    3c92:	48 89 05 17 10 03 00 	mov    %rax,0x31017(%rip)        # 34cb0 <_ZN3GTP10s_commandsB5cxx11E+0x260>
    3c99:	48 b8 6d 63 5f 73 63 	movabs $0x65726f63735f636d,%rax
    3ca0:	6f 72 65 
    3ca3:	48 89 05 16 10 03 00 	mov    %rax,0x31016(%rip)        # 34cc0 <_ZN3GTP10s_commandsB5cxx11E+0x270>
    3caa:	48 c7 05 03 10 03 00 	movq   $0x8,0x31003(%rip)        # 34cb8 <_ZN3GTP10s_commandsB5cxx11E+0x268>
    3cb1:	08 00 00 00 
    3cb5:	c6 05 0c 10 03 00 00 	movb   $0x0,0x3100c(%rip)        # 34cc8 <_ZN3GTP10s_commandsB5cxx11E+0x278>
    3cbc:	48 8d 05 1d 10 03 00 	lea    0x3101d(%rip),%rax        # 34ce0 <_ZN3GTP10s_commandsB5cxx11E+0x290>
    3cc3:	48 89 05 06 10 03 00 	mov    %rax,0x31006(%rip)        # 34cd0 <_ZN3GTP10s_commandsB5cxx11E+0x280>
    3cca:	4c 8d 35 ff 0f 03 00 	lea    0x30fff(%rip),%r14        # 34cd0 <_ZN3GTP10s_commandsB5cxx11E+0x280>
    3cd1:	48 c7 44 24 08 13 00 	movq   $0x13,0x8(%rsp)
    3cd8:	00 00 
    3cda:	48 8d 74 24 08       	lea    0x8(%rsp),%rsi
    3cdf:	4c 89 f7             	mov    %r14,%rdi
    3ce2:	31 d2                	xor    %edx,%edx
    3ce4:	e8 47 f7 ff ff       	call   3430 <_ZNSt7__cxx1112basic_stringIcSt11char_traitsIcESaIcEE9_M_createERmm@plt>
    3ce9:	48 89 05 e0 0f 03 00 	mov    %rax,0x30fe0(%rip)        # 34cd0 <_ZN3GTP10s_commandsB5cxx11E+0x280>
    3cf0:	48 8b 4c 24 08       	mov    0x8(%rsp),%rcx
    3cf5:	48 89 0d e4 0f 03 00 	mov    %rcx,0x30fe4(%rip)        # 34ce0 <_ZN3GTP10s_commandsB5cxx11E+0x290>
    3cfc:	0f 10 05 4f 09 02 00 	movups 0x2094f(%rip),%xmm0        # 24652 <_ZZN9FastState16play_random_moveEiE10crit_enemy+0x17e>
    3d03:	0f 11 00             	movups %xmm0,(%rax)
    3d06:	c7 40 0f 61 6e 75 70 	movl   $0x70756e61,0xf(%rax)
    3d0d:	48 89 0d c4 0f 03 00 	mov    %rcx,0x30fc4(%rip)        # 34cd8 <_ZN3GTP10s_commandsB5cxx11E+0x288>
    3d14:	48 8b 05 b5 0f 03 00 	mov    0x30fb5(%rip),%rax        # 34cd0 <_ZN3GTP10s_commandsB5cxx11E+0x280>
    3d1b:	c6 04 08 00          	movb   $0x0,(%rax,%rcx,1)
    3d1f:	48 8d 05 da 0f 03 00 	lea    0x30fda(%rip),%rax        # 34d00 <_ZN3GTP10s_commandsB5cxx11E+0x2b0>
    3d26:	48 89 05 c3 0f 03 00 	mov    %rax,0x30fc3(%rip)        # 34cf0 <_ZN3GTP10s_commandsB5cxx11E+0x2a0>
    3d2d:	48 b8 66 69 78 65 64 	movabs $0x61685f6465786966,%rax
    3d34:	5f 68 61 
    3d37:	48 89 05 c2 0f 03 00 	mov    %rax,0x30fc2(%rip)        # 34d00 <_ZN3GTP10s_commandsB5cxx11E+0x2b0>
    3d3e:	48 b8 68 61 6e 64 69 	movabs $0x70616369646e6168,%rax
    3d45:	63 61 70 
    3d48:	48 89 05 b7 0f 03 00 	mov    %rax,0x30fb7(%rip)        # 34d06 <_ZN3GTP10s_commandsB5cxx11E+0x2b6>
    3d4f:	48 c7 05 9e 0f 03 00 	movq   $0xe,0x30f9e(%rip)        # 34cf8 <_ZN3GTP10s_commandsB5cxx11E+0x2a8>
    3d56:	0e 00 00 00 
    3d5a:	c6 05 ad 0f 03 00 00 	movb   $0x0,0x30fad(%rip)        # 34d0e <_ZN3GTP10s_commandsB5cxx11E+0x2be>
    3d61:	48 8d 05 b8 0f 03 00 	lea    0x30fb8(%rip),%rax        # 34d20 <_ZN3GTP10s_commandsB5cxx11E+0x2d0>
    3d68:	48 89 05 a1 0f 03 00 	mov    %rax,0x30fa1(%rip)        # 34d10 <_ZN3GTP10s_commandsB5cxx11E+0x2c0>
    3d6f:	4c 8d 35 9a 0f 03 00 	lea    0x30f9a(%rip),%r14        # 34d10 <_ZN3GTP10s_commandsB5cxx11E+0x2c0>
    3d76:	48 c7 44 24 08 13 00 	movq   $0x13,0x8(%rsp)
    3d7d:	00 00 
    3d7f:	48 8d 74 24 08       	lea    0x8(%rsp),%rsi
    3d84:	4c 89 f7             	mov    %r14,%rdi
    3d87:	31 d2                	xor    %edx,%edx
    3d89:	e8 a2 f6 ff ff       	call   3430 <_ZNSt7__cxx1112basic_stringIcSt11char_traitsIcESaIcEE9_M_createERmm@plt>
    3d8e:	48 89 05 7b 0f 03 00 	mov    %rax,0x30f7b(%rip)        # 34d10 <_ZN3GTP10s_commandsB5cxx11E+0x2c0>
    3d95:	48 8b 4c 24 08       	mov    0x8(%rsp),%rcx
    3d9a:	48 89 0d 7f 0f 03 00 	mov    %rcx,0x30f7f(%rip)        # 34d20 <_ZN3GTP10s_commandsB5cxx11E+0x2d0>
    3da1:	0f 10 05 cd 08 02 00 	movups 0x208cd(%rip),%xmm0        # 24675 <_ZZN9FastState16play_random_moveEiE10crit_enemy+0x1a1>
    3da8:	0f 11 00             	movups %xmm0,(%rax)
    3dab:	c7 40 0f 69 63 61 70 	movl   $0x70616369,0xf(%rax)
    3db2:	48 89 0d 5f 0f 03 00 	mov    %rcx,0x30f5f(%rip)        # 34d18 <_ZN3GTP10s_commandsB5cxx11E+0x2c8>
    3db9:	48 8b 05 50 0f 03 00 	mov    0x30f50(%rip),%rax        # 34d10 <_ZN3GTP10s_commandsB5cxx11E+0x2c0>
    3dc0:	c6 04 08 00          	movb   $0x0,(%rax,%rcx,1)
    3dc4:	48 8d 05 75 0f 03 00 	lea    0x30f75(%rip),%rax        # 34d40 <_ZN3GTP10s_commandsB5cxx11E+0x2f0>
    3dcb:	48 89 05 5e 0f 03 00 	mov    %rax,0x30f5e(%rip)        # 34d30 <_ZN3GTP10s_commandsB5cxx11E+0x2e0>
    3dd2:	4c 8d 35 57 0f 03 00 	lea    0x30f57(%rip),%r14        # 34d30 <_ZN3GTP10s_commandsB5cxx11E+0x2e0>
    3dd9:	48 c7 44 24 08 11 00 	movq   $0x11,0x8(%rsp)
    3de0:	00 00 
    3de2:	48 8d 74 24 08       	lea    0x8(%rsp),%rsi
    3de7:	4c 89 f7             	mov    %r14,%rdi
    3dea:	31 d2                	xor    %edx,%edx
    3dec:	e8 3f f6 ff ff       	call   3430 <_ZNSt7__cxx1112basic_stringIcSt11char_traitsIcESaIcEE9_M_createERmm@plt>
    3df1:	48 89 05 38 0f 03 00 	mov    %rax,0x30f38(%rip)        # 34d30 <_ZN3GTP10s_commandsB5cxx11E+0x2e0>
    3df8:	48 8b 4c 24 08       	mov    0x8(%rsp),%rcx
    3dfd:	48 89 0d 3c 0f 03 00 	mov    %rcx,0x30f3c(%rip)        # 34d40 <_ZN3GTP10s_commandsB5cxx11E+0x2f0>
    3e04:	0f 10 05 7e 08 02 00 	movups 0x2087e(%rip),%xmm0        # 24689 <_ZZN9FastState16play_random_moveEiE10crit_enemy+0x1b5>
    3e0b:	0f 11 00             	movups %xmm0,(%rax)
    3e0e:	c6 40 10 70          	movb   $0x70,0x10(%rax)
    3e12:	48 89 0d 1f 0f 03 00 	mov    %rcx,0x30f1f(%rip)        # 34d38 <_ZN3GTP10s_commandsB5cxx11E+0x2e8>
    3e19:	48 8b 05 10 0f 03 00 	mov    0x30f10(%rip),%rax        # 34d30 <_ZN3GTP10s_commandsB5cxx11E+0x2e0>
    3e20:	c6 04 08 00          	movb   $0x0,(%rax,%rcx,1)
    3e24:	48 8d 05 35 0f 03 00 	lea    0x30f35(%rip),%rax        # 34d60 <_ZN3GTP10s_commandsB5cxx11E+0x310>
    3e2b:	48 89 05 1e 0f 03 00 	mov    %rax,0x30f1e(%rip)        # 34d50 <_ZN3GTP10s_commandsB5cxx11E+0x300>
    3e32:	c7 05 24 0f 03 00 6c 	movl   $0x64616f6c,0x30f24(%rip)        # 34d60 <_ZN3GTP10s_commandsB5cxx11E+0x310>
    3e39:	6f 61 64 
    3e3c:	c7 05 1d 0f 03 00 64 	movl   $0x66677364,0x30f1d(%rip)        # 34d63 <_ZN3GTP10s_commandsB5cxx11E+0x313>
    3e43:	73 67 66 
    3e46:	48 c7 05 07 0f 03 00 	movq   $0x7,0x30f07(%rip)        # 34d58 <_ZN3GTP10s_commandsB5cxx11E+0x308>
    3e4d:	07 00 00 00 
    3e51:	c6 05 0f 0f 03 00 00 	movb   $0x0,0x30f0f(%rip)        # 34d67 <_ZN3GTP10s_commandsB5cxx11E+0x317>
    3e58:	48 8d 05 21 0f 03 00 	lea    0x30f21(%rip),%rax        # 34d80 <_ZN3GTP10s_commandsB5cxx11E+0x330>
    3e5f:	48 89 05 0a 0f 03 00 	mov    %rax,0x30f0a(%rip)        # 34d70 <_ZN3GTP10s_commandsB5cxx11E+0x320>
    3e66:	48 c7 05 07 0f 03 00 	movq   $0x0,0x30f07(%rip)        # 34d78 <_ZN3GTP10s_commandsB5cxx11E+0x328>
    3e6d:	00 00 00 00 
    3e71:	c6 05 08 0f 03 00 00 	movb   $0x0,0x30f08(%rip)        # 34d80 <_ZN3GTP10s_commandsB5cxx11E+0x330>
    3e78:	48 8d 3d 31 f7 ff ff 	lea    -0x8cf(%rip),%rdi        # 35b0 <__cxx_global_array_dtor>
    3e7f:	48 8d 15 da 83 02 00 	lea    0x283da(%rip),%rdx        # 2c260 <__dso_handle>
    3e86:	31 f6                	xor    %esi,%esi
    3e88:	e8 83 f3 ff ff       	call   3210 <__cxa_atexit@plt>
    3e8d:	48 83 c4 10          	add    $0x10,%rsp
    3e91:	5b                   	pop    %rbx
    3e92:	41 5e                	pop    %r14
    3e94:	41 5f                	pop    %r15
    3e96:	c3                   	ret    
    3e97:	eb 04                	jmp    3e9d <_GLOBAL__sub_I_GTP.cpp+0x66d>
    3e99:	eb 02                	jmp    3e9d <_GLOBAL__sub_I_GTP.cpp+0x66d>
    3e9b:	eb 00                	jmp    3e9d <_GLOBAL__sub_I_GTP.cpp+0x66d>
    3e9d:	49 89 c7             	mov    %rax,%r15
    3ea0:	49 83 c6 f0          	add    $0xfffffffffffffff0,%r14
    3ea4:	eb 1a                	jmp    3ec0 <_GLOBAL__sub_I_GTP.cpp+0x690>
    3ea6:	66 2e 0f 1f 84 00 00 	cs nopw 0x0(%rax,%rax,1)
    3ead:	00 00 00 
    3eb0:	49 8d 46 e0          	lea    -0x20(%r14),%rax
    3eb4:	49 83 c6 f0          	add    $0xfffffffffffffff0,%r14
    3eb8:	49 39 de             	cmp    %rbx,%r14
    3ebb:	49 89 c6             	mov    %rax,%r14
    3ebe:	74 10                	je     3ed0 <_GLOBAL__sub_I_GTP.cpp+0x6a0>
    3ec0:	49 8b 7e f0          	mov    -0x10(%r14),%rdi
    3ec4:	49 39 fe             	cmp    %rdi,%r14
    3ec7:	74 e7                	je     3eb0 <_GLOBAL__sub_I_GTP.cpp+0x680>
    3ec9:	e8 52 f3 ff ff       	call   3220 <_ZdlPv@plt>
    3ece:	eb e0                	jmp    3eb0 <_GLOBAL__sub_I_GTP.cpp+0x680>
    3ed0:	4c 89 ff             	mov    %r15,%rdi
    3ed3:	e8 48 f5 ff ff       	call   3420 <_Unwind_Resume@plt>
    3ed8:	0f 1f 84 00 00 00 00 	nopl   0x0(%rax,%rax,1)
    3edf:	00 

0000000000003ee0 <_start>:
    3ee0:	f3 0f 1e fa          	endbr64 
    3ee4:	31 ed                	xor    %ebp,%ebp
    3ee6:	49 89 d1             	mov    %rdx,%r9
    3ee9:	5e                   	pop    %rsi
    3eea:	48 89 e2             	mov    %rsp,%rdx
    3eed:	48 83 e4 f0          	and    $0xfffffffffffffff0,%rsp
    3ef1:	50                   	push   %rax
    3ef2:	54                   	push   %rsp
    3ef3:	45 31 c0             	xor    %r8d,%r8d
    3ef6:	31 c9                	xor    %ecx,%ecx
    3ef8:	48 8d 3d f1 59 00 00 	lea    0x59f1(%rip),%rdi        # 98f0 <main>
    3eff:	ff 15 73 80 02 00    	call   *0x28073(%rip)        # 2bf78 <__libc_start_main@GLIBC_2.34>
    3f05:	f4                   	hlt    
    3f06:	66 2e 0f 1f 84 00 00 	cs nopw 0x0(%rax,%rax,1)
    3f0d:	00 00 00 

0000000000003f10 <deregister_tm_clones>:
    3f10:	48 8d 3d 91 9c 02 00 	lea    0x29c91(%rip),%rdi        # 2dba8 <__TMC_END__>
    3f17:	48 8d 05 8a 9c 02 00 	lea    0x29c8a(%rip),%rax        # 2dba8 <__TMC_END__>
    3f1e:	48 39 f8             	cmp    %rdi,%rax
    3f21:	74 15                	je     3f38 <deregister_tm_clones+0x28>
    3f23:	48 8b 05 86 80 02 00 	mov    0x28086(%rip),%rax        # 2bfb0 <_ITM_deregisterTMCloneTable@Base>
    3f2a:	48 85 c0             	test   %rax,%rax
    3f2d:	74 09                	je     3f38 <deregister_tm_clones+0x28>
    3f2f:	ff e0                	jmp    *%rax
    3f31:	0f 1f 80 00 00 00 00 	nopl   0x0(%rax)
    3f38:	c3                   	ret    
    3f39:	0f 1f 80 00 00 00 00 	nopl   0x0(%rax)

0000000000003f40 <register_tm_clones>:
    3f40:	48 8d 3d 61 9c 02 00 	lea    0x29c61(%rip),%rdi        # 2dba8 <__TMC_END__>
    3f47:	48 8d 35 5a 9c 02 00 	lea    0x29c5a(%rip),%rsi        # 2dba8 <__TMC_END__>
    3f4e:	48 29 fe             	sub    %rdi,%rsi
    3f51:	48 89 f0             	mov    %rsi,%rax
    3f54:	48 c1 ee 3f          	shr    $0x3f,%rsi
    3f58:	48 c1 f8 03          	sar    $0x3,%rax
    3f5c:	48 01 c6             	add    %rax,%rsi
    3f5f:	48 d1 fe             	sar    %rsi
    3f62:	74 14                	je     3f78 <register_tm_clones+0x38>
    3f64:	48 8b 05 65 80 02 00 	mov    0x28065(%rip),%rax        # 2bfd0 <_ITM_registerTMCloneTable@Base>
    3f6b:	48 85 c0             	test   %rax,%rax
    3f6e:	74 08                	je     3f78 <register_tm_clones+0x38>
    3f70:	ff e0                	jmp    *%rax
    3f72:	66 0f 1f 44 00 00    	nopw   0x0(%rax,%rax,1)
    3f78:	c3                   	ret    
    3f79:	0f 1f 80 00 00 00 00 	nopl   0x0(%rax)

0000000000003f80 <__do_global_dtors_aux>:
    3f80:	f3 0f 1e fa          	endbr64 
    3f84:	80 3d 25 9c 02 00 00 	cmpb   $0x0,0x29c25(%rip)        # 2dbb0 <completed.0>
    3f8b:	75 2b                	jne    3fb8 <__do_global_dtors_aux+0x38>
    3f8d:	55                   	push   %rbp
    3f8e:	48 83 3d d2 7f 02 00 	cmpq   $0x0,0x27fd2(%rip)        # 2bf68 <__cxa_finalize@GLIBC_2.2.5>
    3f95:	00 
    3f96:	48 89 e5             	mov    %rsp,%rbp
    3f99:	74 0c                	je     3fa7 <__do_global_dtors_aux+0x27>
    3f9b:	48 8b 3d be 82 02 00 	mov    0x282be(%rip),%rdi        # 2c260 <__dso_handle>
    3fa2:	e8 09 f5 ff ff       	call   34b0 <__cxa_finalize@plt>
    3fa7:	e8 64 ff ff ff       	call   3f10 <deregister_tm_clones>
    3fac:	c6 05 fd 9b 02 00 01 	movb   $0x1,0x29bfd(%rip)        # 2dbb0 <completed.0>
    3fb3:	5d                   	pop    %rbp
    3fb4:	c3                   	ret    
    3fb5:	0f 1f 00             	nopl   (%rax)
    3fb8:	c3                   	ret    
    3fb9:	0f 1f 80 00 00 00 00 	nopl   0x0(%rax)

0000000000003fc0 <frame_dummy>:
    3fc0:	f3 0f 1e fa          	endbr64 
    3fc4:	e9 77 ff ff ff       	jmp    3f40 <register_tm_clones>
    3fc9:	0f 1f 80 00 00 00 00 	nopl   0x0(%rax)

0000000000003fd0 <_ZN9FullBoard13remove_stringEi>:
    3fd0:	55                   	push   %rbp
    3fd1:	41 57                	push   %r15
    3fd3:	41 56                	push   %r14
    3fd5:	41 55                	push   %r13
    3fd7:	41 54                	push   %r12
    3fd9:	53                   	push   %rbx
    3fda:	50                   	push   %rax
    3fdb:	89 f3                	mov    %esi,%ebx
    3fdd:	49 89 fe             	mov    %rdi,%r14
    3fe0:	48 63 c6             	movslq %esi,%rax
    3fe3:	4c 63 bc 87 f0 06 00 	movslq 0x6f0(%rdi,%rax,4),%r15
    3fea:	00 
    3feb:	48 8b 87 78 1f 00 00 	mov    0x1f78(%rdi),%rax
    3ff2:	48 8b 8f 80 1f 00 00 	mov    0x1f80(%rdi),%rcx
    3ff9:	31 ed                	xor    %ebp,%ebp
    3ffb:	4c 8d 2d ce 9b 02 00 	lea    0x29bce(%rip),%r13        # 2dbd0 <_ZN7Zobrist7zobristE>
    4002:	89 f2                	mov    %esi,%edx
    4004:	66 66 66 2e 0f 1f 84 	data16 data16 cs nopw 0x0(%rax,%rax,1)
    400b:	00 00 00 00 00 
    4010:	4c 63 e2             	movslq %edx,%r12
    4013:	43 8b 94 a6 f0 06 00 	mov    0x6f0(%r14,%r12,4),%edx
    401a:	00 
    401b:	48 69 d2 c8 0d 00 00 	imul   $0xdc8,%rdx,%rdx
    4022:	4c 01 ea             	add    %r13,%rdx
    4025:	4a 33 04 e2          	xor    (%rdx,%r12,8),%rax
    4029:	49 89 86 78 1f 00 00 	mov    %rax,0x1f78(%r14)
    4030:	4a 33 0c e2          	xor    (%rdx,%r12,8),%rcx
    4034:	49 89 8e 80 1f 00 00 	mov    %rcx,0x1f80(%r14)
    403b:	43 c7 84 a6 f0 06 00 	movl   $0x2,0x6f0(%r14,%r12,4)
    4042:	00 02 00 00 00 
    4047:	66 43 c7 84 66 48 11 	movw   $0x1b9,0x1148(%r14,%r12,2)
    404e:	00 00 b9 01 
    4052:	43 ff 8c be 50 1f 00 	decl   0x1f50(%r14,%r15,4)
    4059:	00 
    405a:	4c 89 f7             	mov    %r14,%rdi
    405d:	44 89 e6             	mov    %r12d,%esi
    4060:	44 89 fa             	mov    %r15d,%edx
    4063:	e8 18 84 00 00       	call   c480 <_ZN9FastBoard16remove_neighbourEii>
    4068:	49 63 86 e4 06 00 00 	movslq 0x6e4(%r14),%rax
    406f:	66 43 89 84 66 72 03 	mov    %ax,0x372(%r14,%r12,2)
    4076:	00 00 
    4078:	66 45 89 24 46       	mov    %r12w,(%r14,%rax,2)
    407d:	ff c0                	inc    %eax
    407f:	41 89 86 e4 06 00 00 	mov    %eax,0x6e4(%r14)
    4086:	43 8b 84 a6 f0 06 00 	mov    0x6f0(%r14,%r12,4),%eax
    408d:	00 
    408e:	48 69 d0 c8 0d 00 00 	imul   $0xdc8,%rax,%rdx
    4095:	4c 01 ea             	add    %r13,%rdx
    4098:	49 8b 86 78 1f 00 00 	mov    0x1f78(%r14),%rax
    409f:	4a 33 04 e2          	xor    (%rdx,%r12,8),%rax
    40a3:	49 8b 8e 80 1f 00 00 	mov    0x1f80(%r14),%rcx
    40aa:	49 89 86 78 1f 00 00 	mov    %rax,0x1f78(%r14)
    40b1:	4a 33 0c e2          	xor    (%rdx,%r12,8),%rcx
    40b5:	49 89 8e 80 1f 00 00 	mov    %rcx,0x1f80(%r14)
    40bc:	ff c5                	inc    %ebp
    40be:	43 0f b7 94 66 d4 0d 	movzwl 0xdd4(%r14,%r12,2),%edx
    40c5:	00 00 
    40c7:	39 da                	cmp    %ebx,%edx
    40c9:	0f 85 41 ff ff ff    	jne    4010 <_ZN9FullBoard13remove_stringEi+0x40>
    40cf:	89 e8                	mov    %ebp,%eax
    40d1:	48 83 c4 08          	add    $0x8,%rsp
    40d5:	5b                   	pop    %rbx
    40d6:	41 5c                	pop    %r12
    40d8:	41 5d                	pop    %r13
    40da:	41 5e                	pop    %r14
    40dc:	41 5f                	pop    %r15
    40de:	5d                   	pop    %rbp
    40df:	c3                   	ret    

00000000000040e0 <_ZN9FullBoard12calc_ko_hashEv>:
    40e0:	48 b8 21 43 65 87 78 	movabs $0x1234567887654321,%rax
    40e7:	56 34 12 
    40ea:	8b 8f ec 06 00 00    	mov    0x6ec(%rdi),%ecx
    40f0:	85 c9                	test   %ecx,%ecx
    40f2:	7e 2b                	jle    411f <_ZN9FullBoard12calc_ko_hashEv+0x3f>
    40f4:	83 f9 01             	cmp    $0x1,%ecx
    40f7:	75 2e                	jne    4127 <_ZN9FullBoard12calc_ko_hashEv+0x47>
    40f9:	31 d2                	xor    %edx,%edx
    40fb:	f6 c1 01             	test   $0x1,%cl
    40fe:	74 1f                	je     411f <_ZN9FullBoard12calc_ko_hashEv+0x3f>
    4100:	8b 8c 97 f0 06 00 00 	mov    0x6f0(%rdi,%rdx,4),%ecx
    4107:	48 83 f9 03          	cmp    $0x3,%rcx
    410b:	74 12                	je     411f <_ZN9FullBoard12calc_ko_hashEv+0x3f>
    410d:	48 69 c9 c8 0d 00 00 	imul   $0xdc8,%rcx,%rcx
    4114:	48 03 0d 65 7e 02 00 	add    0x27e65(%rip),%rcx        # 2bf80 <_DYNAMIC+0x238>
    411b:	48 33 04 d1          	xor    (%rcx,%rdx,8),%rax
    411f:	48 89 87 80 1f 00 00 	mov    %rax,0x1f80(%rdi)
    4126:	c3                   	ret    
    4127:	89 ce                	mov    %ecx,%esi
    4129:	81 e6 fe ff ff 7f    	and    $0x7ffffffe,%esi
    412f:	31 d2                	xor    %edx,%edx
    4131:	4c 8d 05 98 9a 02 00 	lea    0x29a98(%rip),%r8        # 2dbd0 <_ZN7Zobrist7zobristE>
    4138:	eb 0f                	jmp    4149 <_ZN9FullBoard12calc_ko_hashEv+0x69>
    413a:	66 0f 1f 44 00 00    	nopw   0x0(%rax,%rax,1)
    4140:	48 83 c2 02          	add    $0x2,%rdx
    4144:	48 39 d6             	cmp    %rdx,%rsi
    4147:	74 b2                	je     40fb <_ZN9FullBoard12calc_ko_hashEv+0x1b>
    4149:	44 8b 8c 97 f0 06 00 	mov    0x6f0(%rdi,%rdx,4),%r9d
    4150:	00 
    4151:	49 83 f9 03          	cmp    $0x3,%r9
    4155:	75 19                	jne    4170 <_ZN9FullBoard12calc_ko_hashEv+0x90>
    4157:	44 8b 8c 97 f4 06 00 	mov    0x6f4(%rdi,%rdx,4),%r9d
    415e:	00 
    415f:	49 83 f9 03          	cmp    $0x3,%r9
    4163:	74 db                	je     4140 <_ZN9FullBoard12calc_ko_hashEv+0x60>
    4165:	eb 25                	jmp    418c <_ZN9FullBoard12calc_ko_hashEv+0xac>
    4167:	66 0f 1f 84 00 00 00 	nopw   0x0(%rax,%rax,1)
    416e:	00 00 
    4170:	4d 69 c9 c8 0d 00 00 	imul   $0xdc8,%r9,%r9
    4177:	4d 01 c1             	add    %r8,%r9
    417a:	49 33 04 d1          	xor    (%r9,%rdx,8),%rax
    417e:	44 8b 8c 97 f4 06 00 	mov    0x6f4(%rdi,%rdx,4),%r9d
    4185:	00 
    4186:	49 83 f9 03          	cmp    $0x3,%r9
    418a:	74 b4                	je     4140 <_ZN9FullBoard12calc_ko_hashEv+0x60>
    418c:	4d 69 c9 c8 0d 00 00 	imul   $0xdc8,%r9,%r9
    4193:	4d 01 c1             	add    %r8,%r9
    4196:	49 33 44 d1 08       	xor    0x8(%r9,%rdx,8),%rax
    419b:	eb a3                	jmp    4140 <_ZN9FullBoard12calc_ko_hashEv+0x60>
    419d:	0f 1f 00             	nopl   (%rax)

00000000000041a0 <_ZN9FullBoard9calc_hashEv>:
    41a0:	48 b9 21 43 65 87 78 	movabs $0x1234567887654321,%rcx
    41a7:	56 34 12 
    41aa:	8b 87 ec 06 00 00    	mov    0x6ec(%rdi),%eax
    41b0:	85 c0                	test   %eax,%eax
    41b2:	7e 2a                	jle    41de <_ZN9FullBoard9calc_hashEv+0x3e>
    41b4:	83 f8 01             	cmp    $0x1,%eax
    41b7:	75 66                	jne    421f <_ZN9FullBoard9calc_hashEv+0x7f>
    41b9:	31 d2                	xor    %edx,%edx
    41bb:	a8 01                	test   $0x1,%al
    41bd:	74 1f                	je     41de <_ZN9FullBoard9calc_hashEv+0x3e>
    41bf:	8b 84 97 f0 06 00 00 	mov    0x6f0(%rdi,%rdx,4),%eax
    41c6:	48 83 f8 03          	cmp    $0x3,%rax
    41ca:	74 12                	je     41de <_ZN9FullBoard9calc_hashEv+0x3e>
    41cc:	48 69 c0 c8 0d 00 00 	imul   $0xdc8,%rax,%rax
    41d3:	48 03 05 a6 7d 02 00 	add    0x27da6(%rip),%rax        # 2bf80 <_DYNAMIC+0x238>
    41da:	48 33 0c d0          	xor    (%rax,%rdx,8),%rcx
    41de:	48 63 87 48 1f 00 00 	movslq 0x1f48(%rdi),%rax
    41e5:	48 8d 15 04 d1 02 00 	lea    0x2d104(%rip),%rdx        # 312f0 <_ZN7Zobrist12zobrist_prisE>
    41ec:	48 63 b7 4c 1f 00 00 	movslq 0x1f4c(%rdi),%rsi
    41f3:	48 33 0c c2          	xor    (%rdx,%rax,8),%rcx
    41f7:	48 33 8c f2 90 1b 00 	xor    0x1b90(%rdx,%rsi,8),%rcx
    41fe:	00 
    41ff:	48 b8 cd ab cd ab cd 	movabs $0xabcdabcdabcdabcd,%rax
    4206:	ab cd ab 
    4209:	48 31 c8             	xor    %rcx,%rax
    420c:	83 bf e8 06 00 00 00 	cmpl   $0x0,0x6e8(%rdi)
    4213:	48 0f 45 c1          	cmovne %rcx,%rax
    4217:	48 89 87 78 1f 00 00 	mov    %rax,0x1f78(%rdi)
    421e:	c3                   	ret    
    421f:	89 c6                	mov    %eax,%esi
    4221:	81 e6 fe ff ff 7f    	and    $0x7ffffffe,%esi
    4227:	31 d2                	xor    %edx,%edx
    4229:	4c 8d 05 a0 99 02 00 	lea    0x299a0(%rip),%r8        # 2dbd0 <_ZN7Zobrist7zobristE>
    4230:	eb 1b                	jmp    424d <_ZN9FullBoard9calc_hashEv+0xad>
    4232:	66 66 66 66 66 2e 0f 	data16 data16 data16 data16 cs nopw 0x0(%rax,%rax,1)
    4239:	1f 84 00 00 00 00 00 
    4240:	48 83 c2 02          	add    $0x2,%rdx
    4244:	48 39 d6             	cmp    %rdx,%rsi
    4247:	0f 84 6e ff ff ff    	je     41bb <_ZN9FullBoard9calc_hashEv+0x1b>
    424d:	44 8b 8c 97 f0 06 00 	mov    0x6f0(%rdi,%rdx,4),%r9d
    4254:	00 
    4255:	49 83 f9 03          	cmp    $0x3,%r9
    4259:	75 15                	jne    4270 <_ZN9FullBoard9calc_hashEv+0xd0>
    425b:	44 8b 8c 97 f4 06 00 	mov    0x6f4(%rdi,%rdx,4),%r9d
    4262:	00 
    4263:	49 83 f9 03          	cmp    $0x3,%r9
    4267:	74 d7                	je     4240 <_ZN9FullBoard9calc_hashEv+0xa0>
    4269:	eb 21                	jmp    428c <_ZN9FullBoard9calc_hashEv+0xec>
    426b:	0f 1f 44 00 00       	nopl   0x0(%rax,%rax,1)
    4270:	4d 69 c9 c8 0d 00 00 	imul   $0xdc8,%r9,%r9
    4277:	4d 01 c1             	add    %r8,%r9
    427a:	49 33 0c d1          	xor    (%r9,%rdx,8),%rcx
    427e:	44 8b 8c 97 f4 06 00 	mov    0x6f4(%rdi,%rdx,4),%r9d
    4285:	00 
    4286:	49 83 f9 03          	cmp    $0x3,%r9
    428a:	74 b4                	je     4240 <_ZN9FullBoard9calc_hashEv+0xa0>
    428c:	4d 69 c9 c8 0d 00 00 	imul   $0xdc8,%r9,%r9
    4293:	4d 01 c1             	add    %r8,%r9
    4296:	49 33 4c d1 08       	xor    0x8(%r9,%rdx,8),%rcx
    429b:	eb a3                	jmp    4240 <_ZN9FullBoard9calc_hashEv+0xa0>
    429d:	0f 1f 00             	nopl   (%rax)

00000000000042a0 <_ZN9FullBoard8get_hashEv>:
    42a0:	48 8b 87 78 1f 00 00 	mov    0x1f78(%rdi),%rax
    42a7:	c3                   	ret    
    42a8:	0f 1f 84 00 00 00 00 	nopl   0x0(%rax,%rax,1)
    42af:	00 

00000000000042b0 <_ZN9FullBoard11get_ko_hashEv>:
    42b0:	48 8b 87 80 1f 00 00 	mov    0x1f80(%rdi),%rax
    42b7:	c3                   	ret    
    42b8:	0f 1f 84 00 00 00 00 	nopl   0x0(%rax,%rax,1)
    42bf:	00 

00000000000042c0 <_ZN9FullBoard12update_boardEii>:
    42c0:	55                   	push   %rbp
    42c1:	41 57                	push   %r15
    42c3:	41 56                	push   %r14
    42c5:	41 55                	push   %r13
    42c7:	41 54                	push   %r12
    42c9:	53                   	push   %rbx
    42ca:	48 83 ec 28          	sub    $0x28,%rsp
    42ce:	49 89 fe             	mov    %rdi,%r14
    42d1:	89 54 24 10          	mov    %edx,0x10(%rsp)
    42d5:	48 63 da             	movslq %edx,%rbx
    42d8:	8b 84 9f f0 06 00 00 	mov    0x6f0(%rdi,%rbx,4),%eax
    42df:	48 69 c0 c8 0d 00 00 	imul   $0xdc8,%rax,%rax
    42e6:	4c 8d 3d e3 98 02 00 	lea    0x298e3(%rip),%r15        # 2dbd0 <_ZN7Zobrist7zobristE>
    42ed:	4c 01 f8             	add    %r15,%rax
    42f0:	48 8b 0c d8          	mov    (%rax,%rbx,8),%rcx
    42f4:	48 31 8f 78 1f 00 00 	xor    %rcx,0x1f78(%rdi)
    42fb:	48 8b 04 d8          	mov    (%rax,%rbx,8),%rax
    42ff:	48 31 87 80 1f 00 00 	xor    %rax,0x1f80(%rdi)
    4306:	89 f5                	mov    %esi,%ebp
    4308:	89 b4 9f f0 06 00 00 	mov    %esi,0x6f0(%rdi,%rbx,4)
    430f:	66 89 9c 5f d4 0d 00 	mov    %bx,0xdd4(%rdi,%rbx,2)
    4316:	00 
    4317:	66 89 9c 5f 48 11 00 	mov    %bx,0x1148(%rdi,%rbx,2)
    431e:	00 
    431f:	89 de                	mov    %ebx,%esi
    4321:	e8 2a 80 00 00       	call   c350 <_ZN9FastBoard16count_plibertiesEi>
    4326:	66 41 89 84 5e bc 14 	mov    %ax,0x14bc(%r14,%rbx,2)
    432d:	00 00 
    432f:	66 41 c7 84 5e 30 18 	movw   $0x1,0x1830(%r14,%rbx,2)
    4336:	00 00 01 00 
    433a:	89 6c 24 1c          	mov    %ebp,0x1c(%rsp)
    433e:	4c 63 e5             	movslq %ebp,%r12
    4341:	43 ff 84 a6 50 1f 00 	incl   0x1f50(%r14,%r12,4)
    4348:	00 
    4349:	41 8b 84 9e f0 06 00 	mov    0x6f0(%r14,%rbx,4),%eax
    4350:	00 
    4351:	48 69 c0 c8 0d 00 00 	imul   $0xdc8,%rax,%rax
    4358:	4c 01 f8             	add    %r15,%rax
    435b:	48 8b 0c d8          	mov    (%rax,%rbx,8),%rcx
    435f:	49 31 8e 78 1f 00 00 	xor    %rcx,0x1f78(%r14)
    4366:	48 8b 04 d8          	mov    (%rax,%rbx,8),%rax
    436a:	49 31 86 80 1f 00 00 	xor    %rax,0x1f80(%r14)
    4371:	4c 89 f7             	mov    %r14,%rdi
    4374:	89 de                	mov    %ebx,%esi
    4376:	44 89 e2             	mov    %r12d,%edx
    4379:	e8 e2 7f 00 00       	call   c360 <_ZN9FastBoard13add_neighbourEii>
    437e:	4c 89 fe             	mov    %r15,%rsi
    4381:	48 89 df             	mov    %rbx,%rdi
    4384:	41 0f b7 84 5e a4 1b 	movzwl 0x1ba4(%r14,%rbx,2),%eax
    438b:	00 00 
    438d:	89 44 24 18          	mov    %eax,0x18(%rsp)
    4391:	45 31 ed             	xor    %r13d,%r13d
    4394:	4c 89 64 24 20       	mov    %r12,0x20(%rsp)
    4399:	45 85 e4             	test   %r12d,%r12d
    439c:	41 0f 94 c5          	sete   %r13b
    43a0:	48 8d 05 45 00 02 00 	lea    0x20045(%rip),%rax        # 243ec <_ZN9FastBoard9s_eyemaskE>
    43a7:	42 8b 04 a8          	mov    (%rax,%r13,4),%eax
    43ab:	89 44 24 14          	mov    %eax,0x14(%rsp)
    43af:	45 31 ff             	xor    %r15d,%r15d
    43b2:	31 ed                	xor    %ebp,%ebp
    43b4:	48 89 7c 24 08       	mov    %rdi,0x8(%rsp)
    43b9:	eb 27                	jmp    43e2 <_ZN9FullBoard12update_boardEii+0x122>
    43bb:	0f 1f 44 00 00       	nopl   0x0(%rax,%rax,1)
    43c0:	43 0f b7 84 66 48 11 	movzwl 0x1148(%r14,%r12,2),%eax
    43c7:	00 00 
    43c9:	66 41 83 bc 46 bc 14 	cmpw   $0x0,0x14bc(%r14,%rax,2)
    43d0:	00 00 00 
    43d3:	74 68                	je     443d <_ZN9FullBoard12update_boardEii+0x17d>
    43d5:	49 ff c7             	inc    %r15
    43d8:	49 83 ff 04          	cmp    $0x4,%r15
    43dc:	0f 84 5e 01 00 00    	je     4540 <_ZN9FullBoard12update_boardEii+0x280>
    43e2:	4f 63 a4 be 18 1f 00 	movslq 0x1f18(%r14,%r15,4),%r12
    43e9:	00 
    43ea:	49 01 fc             	add    %rdi,%r12
    43ed:	43 8b 84 a6 f0 06 00 	mov    0x6f0(%r14,%r12,4),%eax
    43f4:	00 
    43f5:	44 39 e8             	cmp    %r13d,%eax
    43f8:	74 c6                	je     43c0 <_ZN9FullBoard12update_boardEii+0x100>
    43fa:	3b 44 24 1c          	cmp    0x1c(%rsp),%eax
    43fe:	75 d5                	jne    43d5 <_ZN9FullBoard12update_boardEii+0x115>
    4400:	41 0f b7 94 7e 48 11 	movzwl 0x1148(%r14,%rdi,2),%edx
    4407:	00 00 
    4409:	43 0f b7 84 66 48 11 	movzwl 0x1148(%r14,%r12,2),%eax
    4410:	00 00 
    4412:	66 39 c2             	cmp    %ax,%dx
    4415:	74 be                	je     43d5 <_ZN9FullBoard12update_boardEii+0x115>
    4417:	89 d1                	mov    %edx,%ecx
    4419:	41 0f b7 8c 4e 30 18 	movzwl 0x1830(%r14,%rcx,2),%ecx
    4420:	00 00 
    4422:	89 c6                	mov    %eax,%esi
    4424:	66 41 3b 8c 76 30 18 	cmp    0x1830(%r14,%rsi,2),%cx
    442b:	00 00 
    442d:	0f 83 f0 00 00 00    	jae    4523 <_ZN9FullBoard12update_boardEii+0x263>
    4433:	4c 89 f7             	mov    %r14,%rdi
    4436:	89 c6                	mov    %eax,%esi
    4438:	e9 ed 00 00 00       	jmp    452a <_ZN9FullBoard12update_boardEii+0x26a>
    443d:	49 8b 86 78 1f 00 00 	mov    0x1f78(%r14),%rax
    4444:	49 8b 8e 80 1f 00 00 	mov    0x1f80(%r14),%rcx
    444b:	44 89 e2             	mov    %r12d,%edx
    444e:	66 90                	xchg   %ax,%ax
    4450:	48 63 da             	movslq %edx,%rbx
    4453:	41 8b 94 9e f0 06 00 	mov    0x6f0(%r14,%rbx,4),%edx
    445a:	00 
    445b:	48 69 d2 c8 0d 00 00 	imul   $0xdc8,%rdx,%rdx
    4462:	48 01 f2             	add    %rsi,%rdx
    4465:	48 33 04 da          	xor    (%rdx,%rbx,8),%rax
    4469:	49 89 86 78 1f 00 00 	mov    %rax,0x1f78(%r14)
    4470:	48 33 0c da          	xor    (%rdx,%rbx,8),%rcx
    4474:	49 89 8e 80 1f 00 00 	mov    %rcx,0x1f80(%r14)
    447b:	41 c7 84 9e f0 06 00 	movl   $0x2,0x6f0(%r14,%rbx,4)
    4482:	00 02 00 00 00 
    4487:	66 41 c7 84 5e 48 11 	movw   $0x1b9,0x1148(%r14,%rbx,2)
    448e:	00 00 b9 01 
    4492:	43 ff 8c ae 50 1f 00 	decl   0x1f50(%r14,%r13,4)
    4499:	00 
    449a:	4c 89 f7             	mov    %r14,%rdi
    449d:	89 de                	mov    %ebx,%esi
    449f:	44 89 ea             	mov    %r13d,%edx
    44a2:	e8 d9 7f 00 00       	call   c480 <_ZN9FastBoard16remove_neighbourEii>
    44a7:	48 8d 35 22 97 02 00 	lea    0x29722(%rip),%rsi        # 2dbd0 <_ZN7Zobrist7zobristE>
    44ae:	49 63 86 e4 06 00 00 	movslq 0x6e4(%r14),%rax
    44b5:	66 41 89 84 5e 72 03 	mov    %ax,0x372(%r14,%rbx,2)
    44bc:	00 00 
    44be:	66 41 89 1c 46       	mov    %bx,(%r14,%rax,2)
    44c3:	ff c0                	inc    %eax
    44c5:	41 89 86 e4 06 00 00 	mov    %eax,0x6e4(%r14)
    44cc:	41 8b 84 9e f0 06 00 	mov    0x6f0(%r14,%rbx,4),%eax
    44d3:	00 
    44d4:	48 69 d0 c8 0d 00 00 	imul   $0xdc8,%rax,%rdx
    44db:	48 01 f2             	add    %rsi,%rdx
    44de:	49 8b 86 78 1f 00 00 	mov    0x1f78(%r14),%rax
    44e5:	48 33 04 da          	xor    (%rdx,%rbx,8),%rax
    44e9:	49 8b 8e 80 1f 00 00 	mov    0x1f80(%r14),%rcx
    44f0:	49 89 86 78 1f 00 00 	mov    %rax,0x1f78(%r14)
    44f7:	48 33 0c da          	xor    (%rdx,%rbx,8),%rcx
    44fb:	49 89 8e 80 1f 00 00 	mov    %rcx,0x1f80(%r14)
    4502:	41 0f b7 94 5e d4 0d 	movzwl 0xdd4(%r14,%rbx,2),%edx
    4509:	00 00 
    450b:	ff c5                	inc    %ebp
    450d:	41 39 d4             	cmp    %edx,%r12d
    4510:	0f 85 3a ff ff ff    	jne    4450 <_ZN9FullBoard12update_boardEii+0x190>
    4516:	44 89 e3             	mov    %r12d,%ebx
    4519:	48 8b 7c 24 08       	mov    0x8(%rsp),%rdi
    451e:	e9 b2 fe ff ff       	jmp    43d5 <_ZN9FullBoard12update_boardEii+0x115>
    4523:	4c 89 f7             	mov    %r14,%rdi
    4526:	89 d6                	mov    %edx,%esi
    4528:	89 c2                	mov    %eax,%edx
    452a:	e8 e1 a2 00 00       	call   e810 <_ZN9FastBoard13merge_stringsEii>
    452f:	48 8b 7c 24 08       	mov    0x8(%rsp),%rdi
    4534:	48 8d 35 95 96 02 00 	lea    0x29695(%rip),%rsi        # 2dbd0 <_ZN7Zobrist7zobristE>
    453b:	e9 95 fe ff ff       	jmp    43d5 <_ZN9FullBoard12update_boardEii+0x115>
    4540:	4c 8b 44 24 20       	mov    0x20(%rsp),%r8
    4545:	49 69 c0 90 1b 00 00 	imul   $0x1b90,%r8,%rax
    454c:	48 03 05 35 7a 02 00 	add    0x27a35(%rip),%rax        # 2bf88 <_DYNAMIC+0x240>
    4553:	4b 63 8c 86 48 1f 00 	movslq 0x1f48(%r14,%r8,4),%rcx
    455a:	00 
    455b:	49 8b 96 78 1f 00 00 	mov    0x1f78(%r14),%rdx
    4562:	48 33 14 c8          	xor    (%rax,%rcx,8),%rdx
    4566:	49 89 96 78 1f 00 00 	mov    %rdx,0x1f78(%r14)
    456d:	48 63 f5             	movslq %ebp,%rsi
    4570:	48 01 ce             	add    %rcx,%rsi
    4573:	43 89 b4 86 48 1f 00 	mov    %esi,0x1f48(%r14,%r8,4)
    457a:	00 
    457b:	48 33 14 f0          	xor    (%rax,%rsi,8),%rdx
    457f:	49 89 96 78 1f 00 00 	mov    %rdx,0x1f78(%r14)
    4586:	49 63 86 e4 06 00 00 	movslq 0x6e4(%r14),%rax
    458d:	48 8d 48 ff          	lea    -0x1(%rax),%rcx
    4591:	41 89 8e e4 06 00 00 	mov    %ecx,0x6e4(%r14)
    4598:	41 0f b7 44 46 fe    	movzwl -0x2(%r14,%rax,2),%eax
    459e:	41 0f b7 8c 7e 72 03 	movzwl 0x372(%r14,%rdi,2),%ecx
    45a5:	00 00 
    45a7:	66 41 89 8c 46 72 03 	mov    %cx,0x372(%r14,%rax,2)
    45ae:	00 00 
    45b0:	66 41 89 04 4e       	mov    %ax,(%r14,%rcx,2)
    45b5:	41 0f b7 84 7e 48 11 	movzwl 0x1148(%r14,%rdi,2),%eax
    45bc:	00 00 
    45be:	66 41 83 bc 46 bc 14 	cmpw   $0x0,0x14bc(%r14,%rax,2)
    45c5:	00 00 00 
    45c8:	75 0c                	jne    45d6 <_ZN9FullBoard12update_boardEii+0x316>
    45ca:	4c 89 f7             	mov    %r14,%rdi
    45cd:	8b 74 24 10          	mov    0x10(%rsp),%esi
    45d1:	e8 7a 80 00 00       	call   c650 <_ZN9FastBoard18remove_string_fastEi>
    45d6:	8b 44 24 14          	mov    0x14(%rsp),%eax
    45da:	23 44 24 18          	and    0x18(%rsp),%eax
    45de:	31 c9                	xor    %ecx,%ecx
    45e0:	83 f8 01             	cmp    $0x1,%eax
    45e3:	19 c9                	sbb    %ecx,%ecx
    45e5:	09 d9                	or     %ebx,%ecx
    45e7:	83 fd 01             	cmp    $0x1,%ebp
    45ea:	b8 ff ff ff ff       	mov    $0xffffffff,%eax
    45ef:	0f 44 c1             	cmove  %ecx,%eax
    45f2:	48 83 c4 28          	add    $0x28,%rsp
    45f6:	5b                   	pop    %rbx
    45f7:	41 5c                	pop    %r12
    45f9:	41 5d                	pop    %r13
    45fb:	41 5e                	pop    %r14
    45fd:	41 5f                	pop    %r15
    45ff:	5d                   	pop    %rbp
    4600:	c3                   	ret    
    4601:	66 66 66 66 66 66 2e 	data16 data16 data16 data16 data16 cs nopw 0x0(%rax,%rax,1)
    4608:	0f 1f 84 00 00 00 00 
    460f:	00 

0000000000004610 <_ZN9FullBoard13display_boardEi>:
    4610:	53                   	push   %rbx
    4611:	48 89 fb             	mov    %rdi,%rbx
    4614:	e8 d7 96 00 00       	call   dcf0 <_ZN9FastBoard13display_boardEi>
    4619:	48 8b b3 78 1f 00 00 	mov    0x1f78(%rbx),%rsi
    4620:	48 8b 93 80 1f 00 00 	mov    0x1f80(%rbx),%rdx
    4627:	48 8d 3d d6 f9 01 00 	lea    0x1f9d6(%rip),%rdi        # 24004 <_IO_stdin_used+0x4>
    462e:	31 c0                	xor    %eax,%eax
    4630:	5b                   	pop    %rbx
    4631:	e9 2a 74 00 00       	jmp    ba60 <_ZN5Utils8myprintfEPKcz>
    4636:	66 2e 0f 1f 84 00 00 	cs nopw 0x0(%rax,%rax,1)
    463d:	00 00 00 

0000000000004640 <_ZN9FullBoard11reset_boardEi>:
    4640:	41 56                	push   %r14
    4642:	53                   	push   %rbx
    4643:	50                   	push   %rax
    4644:	48 89 fb             	mov    %rdi,%rbx
    4647:	49 be 21 43 65 87 78 	movabs $0x1234567887654321,%r14
    464e:	56 34 12 
    4651:	e8 1a 77 00 00       	call   bd70 <_ZN9FastBoard11reset_boardEi>
    4656:	8b 83 ec 06 00 00    	mov    0x6ec(%rbx),%eax
    465c:	4c 89 f1             	mov    %r14,%rcx
    465f:	85 c0                	test   %eax,%eax
    4661:	7e 31                	jle    4694 <_ZN9FullBoard11reset_boardEi+0x54>
    4663:	83 f8 01             	cmp    $0x1,%eax
    4666:	0f 85 a9 00 00 00    	jne    4715 <_ZN9FullBoard11reset_boardEi+0xd5>
    466c:	31 d2                	xor    %edx,%edx
    466e:	4c 89 f1             	mov    %r14,%rcx
    4671:	a8 01                	test   $0x1,%al
    4673:	74 1f                	je     4694 <_ZN9FullBoard11reset_boardEi+0x54>
    4675:	8b b4 93 f0 06 00 00 	mov    0x6f0(%rbx,%rdx,4),%esi
    467c:	48 83 fe 03          	cmp    $0x3,%rsi
    4680:	74 12                	je     4694 <_ZN9FullBoard11reset_boardEi+0x54>
    4682:	48 69 f6 c8 0d 00 00 	imul   $0xdc8,%rsi,%rsi
    4689:	48 03 35 f0 78 02 00 	add    0x278f0(%rip),%rsi        # 2bf80 <_DYNAMIC+0x238>
    4690:	48 33 0c d6          	xor    (%rsi,%rdx,8),%rcx
    4694:	48 63 93 48 1f 00 00 	movslq 0x1f48(%rbx),%rdx
    469b:	48 8d 35 4e cc 02 00 	lea    0x2cc4e(%rip),%rsi        # 312f0 <_ZN7Zobrist12zobrist_prisE>
    46a2:	48 63 bb 4c 1f 00 00 	movslq 0x1f4c(%rbx),%rdi
    46a9:	48 33 0c d6          	xor    (%rsi,%rdx,8),%rcx
    46ad:	48 33 8c fe 90 1b 00 	xor    0x1b90(%rsi,%rdi,8),%rcx
    46b4:	00 
    46b5:	48 ba cd ab cd ab cd 	movabs $0xabcdabcdabcdabcd,%rdx
    46bc:	ab cd ab 
    46bf:	48 31 ca             	xor    %rcx,%rdx
    46c2:	83 bb e8 06 00 00 00 	cmpl   $0x0,0x6e8(%rbx)
    46c9:	48 0f 45 d1          	cmovne %rcx,%rdx
    46cd:	48 89 93 78 1f 00 00 	mov    %rdx,0x1f78(%rbx)
    46d4:	85 c0                	test   %eax,%eax
    46d6:	7e 2e                	jle    4706 <_ZN9FullBoard11reset_boardEi+0xc6>
    46d8:	83 f8 01             	cmp    $0x1,%eax
    46db:	0f 85 ac 00 00 00    	jne    478d <_ZN9FullBoard11reset_boardEi+0x14d>
    46e1:	31 c9                	xor    %ecx,%ecx
    46e3:	a8 01                	test   $0x1,%al
    46e5:	74 1f                	je     4706 <_ZN9FullBoard11reset_boardEi+0xc6>
    46e7:	8b 84 8b f0 06 00 00 	mov    0x6f0(%rbx,%rcx,4),%eax
    46ee:	48 83 f8 03          	cmp    $0x3,%rax
    46f2:	74 12                	je     4706 <_ZN9FullBoard11reset_boardEi+0xc6>
    46f4:	48 69 c0 c8 0d 00 00 	imul   $0xdc8,%rax,%rax
    46fb:	48 03 05 7e 78 02 00 	add    0x2787e(%rip),%rax        # 2bf80 <_DYNAMIC+0x238>
    4702:	4c 33 34 c8          	xor    (%rax,%rcx,8),%r14
    4706:	4c 89 b3 80 1f 00 00 	mov    %r14,0x1f80(%rbx)
    470d:	48 83 c4 08          	add    $0x8,%rsp
    4711:	5b                   	pop    %rbx
    4712:	41 5e                	pop    %r14
    4714:	c3                   	ret    
    4715:	89 c6                	mov    %eax,%esi
    4717:	81 e6 fe ff ff 7f    	and    $0x7ffffffe,%esi
    471d:	31 d2                	xor    %edx,%edx
    471f:	48 8d 3d aa 94 02 00 	lea    0x294aa(%rip),%rdi        # 2dbd0 <_ZN7Zobrist7zobristE>
    4726:	4c 89 f1             	mov    %r14,%rcx
    4729:	eb 12                	jmp    473d <_ZN9FullBoard11reset_boardEi+0xfd>
    472b:	0f 1f 44 00 00       	nopl   0x0(%rax,%rax,1)
    4730:	48 83 c2 02          	add    $0x2,%rdx
    4734:	48 39 d6             	cmp    %rdx,%rsi
    4737:	0f 84 34 ff ff ff    	je     4671 <_ZN9FullBoard11reset_boardEi+0x31>
    473d:	44 8b 84 93 f0 06 00 	mov    0x6f0(%rbx,%rdx,4),%r8d
    4744:	00 
    4745:	49 83 f8 03          	cmp    $0x3,%r8
    4749:	75 15                	jne    4760 <_ZN9FullBoard11reset_boardEi+0x120>
    474b:	44 8b 84 93 f4 06 00 	mov    0x6f4(%rbx,%rdx,4),%r8d
    4752:	00 
    4753:	49 83 f8 03          	cmp    $0x3,%r8
    4757:	74 d7                	je     4730 <_ZN9FullBoard11reset_boardEi+0xf0>
    4759:	eb 21                	jmp    477c <_ZN9FullBoard11reset_boardEi+0x13c>
    475b:	0f 1f 44 00 00       	nopl   0x0(%rax,%rax,1)
    4760:	4d 69 c0 c8 0d 00 00 	imul   $0xdc8,%r8,%r8
    4767:	49 01 f8             	add    %rdi,%r8
    476a:	49 33 0c d0          	xor    (%r8,%rdx,8),%rcx
    476e:	44 8b 84 93 f4 06 00 	mov    0x6f4(%rbx,%rdx,4),%r8d
    4775:	00 
    4776:	49 83 f8 03          	cmp    $0x3,%r8
    477a:	74 b4                	je     4730 <_ZN9FullBoard11reset_boardEi+0xf0>
    477c:	4d 69 c0 c8 0d 00 00 	imul   $0xdc8,%r8,%r8
    4783:	49 01 f8             	add    %rdi,%r8
    4786:	49 33 4c d0 08       	xor    0x8(%r8,%rdx,8),%rcx
    478b:	eb a3                	jmp    4730 <_ZN9FullBoard11reset_boardEi+0xf0>
    478d:	89 c2                	mov    %eax,%edx
    478f:	81 e2 fe ff ff 7f    	and    $0x7ffffffe,%edx
    4795:	31 c9                	xor    %ecx,%ecx
    4797:	48 8d 35 32 94 02 00 	lea    0x29432(%rip),%rsi        # 2dbd0 <_ZN7Zobrist7zobristE>
    479e:	eb 0d                	jmp    47ad <_ZN9FullBoard11reset_boardEi+0x16d>
    47a0:	48 83 c1 02          	add    $0x2,%rcx
    47a4:	48 39 ca             	cmp    %rcx,%rdx
    47a7:	0f 84 36 ff ff ff    	je     46e3 <_ZN9FullBoard11reset_boardEi+0xa3>
    47ad:	8b bc 8b f0 06 00 00 	mov    0x6f0(%rbx,%rcx,4),%edi
    47b4:	48 83 ff 03          	cmp    $0x3,%rdi
    47b8:	75 16                	jne    47d0 <_ZN9FullBoard11reset_boardEi+0x190>
    47ba:	8b bc 8b f4 06 00 00 	mov    0x6f4(%rbx,%rcx,4),%edi
    47c1:	48 83 ff 03          	cmp    $0x3,%rdi
    47c5:	74 d9                	je     47a0 <_ZN9FullBoard11reset_boardEi+0x160>
    47c7:	eb 22                	jmp    47eb <_ZN9FullBoard11reset_boardEi+0x1ab>
    47c9:	0f 1f 80 00 00 00 00 	nopl   0x0(%rax)
    47d0:	48 69 ff c8 0d 00 00 	imul   $0xdc8,%rdi,%rdi
    47d7:	48 01 f7             	add    %rsi,%rdi
    47da:	4c 33 34 cf          	xor    (%rdi,%rcx,8),%r14
    47de:	8b bc 8b f4 06 00 00 	mov    0x6f4(%rbx,%rcx,4),%edi
    47e5:	48 83 ff 03          	cmp    $0x3,%rdi
    47e9:	74 b5                	je     47a0 <_ZN9FullBoard11reset_boardEi+0x160>
    47eb:	48 69 ff c8 0d 00 00 	imul   $0xdc8,%rdi,%rdi
    47f2:	48 01 f7             	add    %rsi,%rdi
    47f5:	4c 33 74 cf 08       	xor    0x8(%rdi,%rcx,8),%r14
    47fa:	eb a4                	jmp    47a0 <_ZN9FullBoard11reset_boardEi+0x160>
    47fc:	0f 1f 40 00          	nopl   0x0(%rax)

0000000000004800 <_ZN9FullBoard15predict_ko_hashEii>:
    4800:	55                   	push   %rbp
    4801:	41 57                	push   %r15
    4803:	41 56                	push   %r14
    4805:	41 55                	push   %r13
    4807:	41 54                	push   %r12
    4809:	53                   	push   %rbx
    480a:	48 83 ec 18          	sub    $0x18,%rsp
    480e:	4c 8b bf 80 1f 00 00 	mov    0x1f80(%rdi),%r15
    4815:	83 fa ff             	cmp    $0xffffffff,%edx
    4818:	0f 84 f5 04 00 00    	je     4d13 <_ZN9FullBoard15predict_ko_hashEii+0x513>
    481e:	89 f5                	mov    %esi,%ebp
    4820:	48 89 fb             	mov    %rdi,%rbx
    4823:	4c 63 ea             	movslq %edx,%r13
    4826:	42 8b 84 af f0 06 00 	mov    0x6f0(%rdi,%r13,4),%eax
    482d:	00 
    482e:	48 69 c0 c8 0d 00 00 	imul   $0xdc8,%rax,%rax
    4835:	48 8d 15 94 93 02 00 	lea    0x29394(%rip),%rdx        # 2dbd0 <_ZN7Zobrist7zobristE>
    483c:	48 01 d0             	add    %rdx,%rax
    483f:	4a 8b 0c e8          	mov    (%rax,%r13,8),%rcx
    4843:	48 63 c6             	movslq %esi,%rax
    4846:	48 69 c0 c8 0d 00 00 	imul   $0xdc8,%rax,%rax
    484d:	48 01 d0             	add    %rdx,%rax
    4850:	4a 8b 04 e8          	mov    (%rax,%r13,8),%rax
    4854:	4c 63 a7 ec 06 00 00 	movslq 0x6ec(%rdi),%r12
    485b:	4d 85 e4             	test   %r12,%r12
    485e:	74 43                	je     48a3 <_ZN9FullBoard15predict_ko_hashEii+0xa3>
    4860:	49 83 c4 3f          	add    $0x3f,%r12
    4864:	49 c1 ec 06          	shr    $0x6,%r12
    4868:	49 c1 e4 03          	shl    $0x3,%r12
    486c:	4c 89 e7             	mov    %r12,%rdi
    486f:	48 89 4c 24 08       	mov    %rcx,0x8(%rsp)
    4874:	48 89 44 24 10       	mov    %rax,0x10(%rsp)
    4879:	e8 b2 e9 ff ff       	call   3230 <_Znwm@plt>
    487e:	4d 89 ee             	mov    %r13,%r14
    4881:	49 89 c5             	mov    %rax,%r13
    4884:	48 89 c7             	mov    %rax,%rdi
    4887:	31 f6                	xor    %esi,%esi
    4889:	4c 89 e2             	mov    %r12,%rdx
    488c:	e8 ef e8 ff ff       	call   3180 <memset@plt>
    4891:	48 8b 44 24 10       	mov    0x10(%rsp),%rax
    4896:	48 8b 4c 24 08       	mov    0x8(%rsp),%rcx
    489b:	4c 89 ef             	mov    %r13,%rdi
    489e:	4d 89 f5             	mov    %r14,%r13
    48a1:	eb 02                	jmp    48a5 <_ZN9FullBoard15predict_ko_hashEii+0xa5>
    48a3:	31 ff                	xor    %edi,%edi
    48a5:	48 31 c1             	xor    %rax,%rcx
    48a8:	4c 31 f9             	xor    %r15,%rcx
    48ab:	48 89 4c 24 08       	mov    %rcx,0x8(%rsp)
    48b0:	31 c0                	xor    %eax,%eax
    48b2:	85 ed                	test   %ebp,%ebp
    48b4:	0f 94 c0             	sete   %al
    48b7:	4c 63 b3 18 1f 00 00 	movslq 0x1f18(%rbx),%r14
    48be:	4d 01 ee             	add    %r13,%r14
    48c1:	41 8d 4e 3f          	lea    0x3f(%r14),%ecx
    48c5:	45 85 f6             	test   %r14d,%r14d
    48c8:	41 0f 49 ce          	cmovns %r14d,%ecx
    48cc:	89 ca                	mov    %ecx,%edx
    48ce:	c1 fa 06             	sar    $0x6,%edx
    48d1:	48 63 d2             	movslq %edx,%rdx
    48d4:	48 8d 34 d7          	lea    (%rdi,%rdx,8),%rsi
    48d8:	83 e1 c0             	and    $0xffffffc0,%ecx
    48db:	44 89 f2             	mov    %r14d,%edx
    48de:	29 ca                	sub    %ecx,%edx
    48e0:	48 63 ca             	movslq %edx,%rcx
    48e3:	49 89 c8             	mov    %rcx,%r8
    48e6:	41 b9 01 00 00 00    	mov    $0x1,%r9d
    48ec:	49 d3 e1             	shl    %cl,%r9
    48ef:	49 c1 f8 3f          	sar    $0x3f,%r8
    48f3:	ba 01 00 00 00       	mov    $0x1,%edx
    48f8:	4e 8b 14 c6          	mov    (%rsi,%r8,8),%r10
    48fc:	49 0f a3 ca          	bt     %rcx,%r10
    4900:	0f 82 d0 00 00 00    	jb     49d6 <_ZN9FullBoard15predict_ko_hashEii+0x1d6>
    4906:	42 39 84 b3 f0 06 00 	cmp    %eax,0x6f0(%rbx,%r14,4)
    490d:	00 
    490e:	0f 85 bb 00 00 00    	jne    49cf <_ZN9FullBoard15predict_ko_hashEii+0x1cf>
    4914:	42 0f b7 8c 73 48 11 	movzwl 0x1148(%rbx,%r14,2),%ecx
    491b:	00 00 
    491d:	66 83 bc 4b bc 14 00 	cmpw   $0x1,0x14bc(%rbx,%rcx,2)
    4924:	00 01 
    4926:	0f 87 a3 00 00 00    	ja     49cf <_ZN9FullBoard15predict_ko_hashEii+0x1cf>
    492c:	4c 89 6c 24 10       	mov    %r13,0x10(%rsp)
    4931:	44 89 f1             	mov    %r14d,%ecx
    4934:	eb 18                	jmp    494e <_ZN9FullBoard15predict_ko_hashEii+0x14e>
    4936:	66 2e 0f 1f 84 00 00 	cs nopw 0x0(%rax,%rax,1)
    493d:	00 00 00 
    4940:	42 0f b7 8c 53 d4 0d 	movzwl 0xdd4(%rbx,%r10,2),%ecx
    4947:	00 00 
    4949:	41 39 ce             	cmp    %ecx,%r14d
    494c:	74 78                	je     49c6 <_ZN9FullBoard15predict_ko_hashEii+0x1c6>
    494e:	4c 63 d1             	movslq %ecx,%r10
    4951:	41 8d 4a 3f          	lea    0x3f(%r10),%ecx
    4955:	45 85 d2             	test   %r10d,%r10d
    4958:	41 0f 49 ca          	cmovns %r10d,%ecx
    495c:	41 89 cb             	mov    %ecx,%r11d
    495f:	41 c1 fb 06          	sar    $0x6,%r11d
    4963:	4d 63 db             	movslq %r11d,%r11
    4966:	4e 8d 1c df          	lea    (%rdi,%r11,8),%r11
    496a:	83 e1 c0             	and    $0xffffffc0,%ecx
    496d:	44 89 d5             	mov    %r10d,%ebp
    4970:	29 cd                	sub    %ecx,%ebp
    4972:	48 63 cd             	movslq %ebp,%rcx
    4975:	41 bf 01 00 00 00    	mov    $0x1,%r15d
    497b:	49 d3 e7             	shl    %cl,%r15
    497e:	49 89 cc             	mov    %rcx,%r12
    4981:	49 c1 fc 3f          	sar    $0x3f,%r12
    4985:	4f 8b 2c e3          	mov    (%r11,%r12,8),%r13
    4989:	49 0f a3 cd          	bt     %rcx,%r13
    498d:	72 b1                	jb     4940 <_ZN9FullBoard15predict_ko_hashEii+0x140>
    498f:	4d 09 ef             	or     %r13,%r15
    4992:	4f 89 3c e3          	mov    %r15,(%r11,%r12,8)
    4996:	42 8b 8c 93 f0 06 00 	mov    0x6f0(%rbx,%r10,4),%ecx
    499d:	00 
    499e:	48 69 c9 c8 0d 00 00 	imul   $0xdc8,%rcx,%rcx
    49a5:	4c 8d 3d 24 92 02 00 	lea    0x29224(%rip),%r15        # 2dbd0 <_ZN7Zobrist7zobristE>
    49ac:	4f 8d 1c d7          	lea    (%r15,%r10,8),%r11
    49b0:	4a 8b 0c 19          	mov    (%rcx,%r11,1),%rcx
    49b4:	4b 33 8c d7 90 1b 00 	xor    0x1b90(%r15,%r10,8),%rcx
    49bb:	00 
    49bc:	48 31 4c 24 08       	xor    %rcx,0x8(%rsp)
    49c1:	e9 7a ff ff ff       	jmp    4940 <_ZN9FullBoard15predict_ko_hashEii+0x140>
    49c6:	4e 8b 14 c6          	mov    (%rsi,%r8,8),%r10
    49ca:	4c 8b 6c 24 10       	mov    0x10(%rsp),%r13
    49cf:	4d 09 ca             	or     %r9,%r10
    49d2:	4e 89 14 c6          	mov    %r10,(%rsi,%r8,8)
    49d6:	4c 63 b3 1c 1f 00 00 	movslq 0x1f1c(%rbx),%r14
    49dd:	4d 01 ee             	add    %r13,%r14
    49e0:	41 8d 4e 3f          	lea    0x3f(%r14),%ecx
    49e4:	45 85 f6             	test   %r14d,%r14d
    49e7:	41 0f 49 ce          	cmovns %r14d,%ecx
    49eb:	89 ce                	mov    %ecx,%esi
    49ed:	c1 fe 06             	sar    $0x6,%esi
    49f0:	48 63 f6             	movslq %esi,%rsi
    49f3:	48 8d 34 f7          	lea    (%rdi,%rsi,8),%rsi
    49f7:	83 e1 c0             	and    $0xffffffc0,%ecx
    49fa:	45 89 f0             	mov    %r14d,%r8d
    49fd:	41 29 c8             	sub    %ecx,%r8d
    4a00:	49 63 c8             	movslq %r8d,%rcx
    4a03:	48 d3 e2             	shl    %cl,%rdx
    4a06:	49 89 c8             	mov    %rcx,%r8
    4a09:	49 c1 f8 3f          	sar    $0x3f,%r8
    4a0d:	4e 8b 0c c6          	mov    (%rsi,%r8,8),%r9
    4a11:	49 0f a3 c9          	bt     %rcx,%r9
    4a15:	0f 82 c7 00 00 00    	jb     4ae2 <_ZN9FullBoard15predict_ko_hashEii+0x2e2>
    4a1b:	42 39 84 b3 f0 06 00 	cmp    %eax,0x6f0(%rbx,%r14,4)
    4a22:	00 
    4a23:	0f 85 b2 00 00 00    	jne    4adb <_ZN9FullBoard15predict_ko_hashEii+0x2db>
    4a29:	42 0f b7 8c 73 48 11 	movzwl 0x1148(%rbx,%r14,2),%ecx
    4a30:	00 00 
    4a32:	66 83 bc 4b bc 14 00 	cmpw   $0x1,0x14bc(%rbx,%rcx,2)
    4a39:	00 01 
    4a3b:	0f 87 9a 00 00 00    	ja     4adb <_ZN9FullBoard15predict_ko_hashEii+0x2db>
    4a41:	44 89 f1             	mov    %r14d,%ecx
    4a44:	eb 18                	jmp    4a5e <_ZN9FullBoard15predict_ko_hashEii+0x25e>
    4a46:	66 2e 0f 1f 84 00 00 	cs nopw 0x0(%rax,%rax,1)
    4a4d:	00 00 00 
    4a50:	42 0f b7 8c 4b d4 0d 	movzwl 0xdd4(%rbx,%r9,2),%ecx
    4a57:	00 00 
    4a59:	41 39 ce             	cmp    %ecx,%r14d
    4a5c:	74 79                	je     4ad7 <_ZN9FullBoard15predict_ko_hashEii+0x2d7>
    4a5e:	4c 63 c9             	movslq %ecx,%r9
    4a61:	41 8d 49 3f          	lea    0x3f(%r9),%ecx
    4a65:	45 85 c9             	test   %r9d,%r9d
    4a68:	41 0f 49 c9          	cmovns %r9d,%ecx
    4a6c:	41 89 ca             	mov    %ecx,%r10d
    4a6f:	41 c1 fa 06          	sar    $0x6,%r10d
    4a73:	4d 63 d2             	movslq %r10d,%r10
    4a76:	4e 8d 14 d7          	lea    (%rdi,%r10,8),%r10
    4a7a:	83 e1 c0             	and    $0xffffffc0,%ecx
    4a7d:	45 89 cb             	mov    %r9d,%r11d
    4a80:	41 29 cb             	sub    %ecx,%r11d
    4a83:	49 63 cb             	movslq %r11d,%rcx
    4a86:	41 bb 01 00 00 00    	mov    $0x1,%r11d
    4a8c:	49 d3 e3             	shl    %cl,%r11
    4a8f:	49 89 cf             	mov    %rcx,%r15
    4a92:	49 c1 ff 3f          	sar    $0x3f,%r15
    4a96:	4f 8b 24 fa          	mov    (%r10,%r15,8),%r12
    4a9a:	49 0f a3 cc          	bt     %rcx,%r12
    4a9e:	72 b0                	jb     4a50 <_ZN9FullBoard15predict_ko_hashEii+0x250>
    4aa0:	4d 09 e3             	or     %r12,%r11
    4aa3:	4f 89 1c fa          	mov    %r11,(%r10,%r15,8)
    4aa7:	42 8b 8c 8b f0 06 00 	mov    0x6f0(%rbx,%r9,4),%ecx
    4aae:	00 
    4aaf:	48 69 c9 c8 0d 00 00 	imul   $0xdc8,%rcx,%rcx
    4ab6:	4c 8d 1d 13 91 02 00 	lea    0x29113(%rip),%r11        # 2dbd0 <_ZN7Zobrist7zobristE>
    4abd:	4f 8d 14 cb          	lea    (%r11,%r9,8),%r10
    4ac1:	4a 8b 0c 11          	mov    (%rcx,%r10,1),%rcx
    4ac5:	4b 33 8c cb 90 1b 00 	xor    0x1b90(%r11,%r9,8),%rcx
    4acc:	00 
    4acd:	48 31 4c 24 08       	xor    %rcx,0x8(%rsp)
    4ad2:	e9 79 ff ff ff       	jmp    4a50 <_ZN9FullBoard15predict_ko_hashEii+0x250>
    4ad7:	4e 8b 0c c6          	mov    (%rsi,%r8,8),%r9
    4adb:	49 09 d1             	or     %rdx,%r9
    4ade:	4e 89 0c c6          	mov    %r9,(%rsi,%r8,8)
    4ae2:	4c 63 b3 20 1f 00 00 	movslq 0x1f20(%rbx),%r14
    4ae9:	4d 01 ee             	add    %r13,%r14
    4aec:	41 8d 4e 3f          	lea    0x3f(%r14),%ecx
    4af0:	45 85 f6             	test   %r14d,%r14d
    4af3:	41 0f 49 ce          	cmovns %r14d,%ecx
    4af7:	89 ca                	mov    %ecx,%edx
    4af9:	c1 fa 06             	sar    $0x6,%edx
    4afc:	48 63 d2             	movslq %edx,%rdx
    4aff:	48 8d 34 d7          	lea    (%rdi,%rdx,8),%rsi
    4b03:	83 e1 c0             	and    $0xffffffc0,%ecx
    4b06:	44 89 f2             	mov    %r14d,%edx
    4b09:	29 ca                	sub    %ecx,%edx
    4b0b:	48 63 ca             	movslq %edx,%rcx
    4b0e:	49 89 c8             	mov    %rcx,%r8
    4b11:	41 b9 01 00 00 00    	mov    $0x1,%r9d
    4b17:	49 d3 e1             	shl    %cl,%r9
    4b1a:	49 c1 f8 3f          	sar    $0x3f,%r8
    4b1e:	ba 01 00 00 00       	mov    $0x1,%edx
    4b23:	4e 8b 14 c6          	mov    (%rsi,%r8,8),%r10
    4b27:	49 0f a3 ca          	bt     %rcx,%r10
    4b2b:	0f 82 d5 00 00 00    	jb     4c06 <_ZN9FullBoard15predict_ko_hashEii+0x406>
    4b31:	42 39 84 b3 f0 06 00 	cmp    %eax,0x6f0(%rbx,%r14,4)
    4b38:	00 
    4b39:	0f 85 c0 00 00 00    	jne    4bff <_ZN9FullBoard15predict_ko_hashEii+0x3ff>
    4b3f:	42 0f b7 8c 73 48 11 	movzwl 0x1148(%rbx,%r14,2),%ecx
    4b46:	00 00 
    4b48:	66 83 bc 4b bc 14 00 	cmpw   $0x1,0x14bc(%rbx,%rcx,2)
    4b4f:	00 01 
    4b51:	0f 87 a8 00 00 00    	ja     4bff <_ZN9FullBoard15predict_ko_hashEii+0x3ff>
    4b57:	4c 89 6c 24 10       	mov    %r13,0x10(%rsp)
    4b5c:	44 89 f1             	mov    %r14d,%ecx
    4b5f:	eb 1d                	jmp    4b7e <_ZN9FullBoard15predict_ko_hashEii+0x37e>
    4b61:	66 66 66 66 66 66 2e 	data16 data16 data16 data16 data16 cs nopw 0x0(%rax,%rax,1)
    4b68:	0f 1f 84 00 00 00 00 
    4b6f:	00 
    4b70:	42 0f b7 8c 53 d4 0d 	movzwl 0xdd4(%rbx,%r10,2),%ecx
    4b77:	00 00 
    4b79:	41 39 ce             	cmp    %ecx,%r14d
    4b7c:	74 78                	je     4bf6 <_ZN9FullBoard15predict_ko_hashEii+0x3f6>
    4b7e:	4c 63 d1             	movslq %ecx,%r10
    4b81:	41 8d 4a 3f          	lea    0x3f(%r10),%ecx
    4b85:	45 85 d2             	test   %r10d,%r10d
    4b88:	41 0f 49 ca          	cmovns %r10d,%ecx
    4b8c:	41 89 cb             	mov    %ecx,%r11d
    4b8f:	41 c1 fb 06          	sar    $0x6,%r11d
    4b93:	4d 63 db             	movslq %r11d,%r11
    4b96:	4e 8d 1c df          	lea    (%rdi,%r11,8),%r11
    4b9a:	83 e1 c0             	and    $0xffffffc0,%ecx
    4b9d:	44 89 d5             	mov    %r10d,%ebp
    4ba0:	29 cd                	sub    %ecx,%ebp
    4ba2:	48 63 cd             	movslq %ebp,%rcx
    4ba5:	41 bf 01 00 00 00    	mov    $0x1,%r15d
    4bab:	49 d3 e7             	shl    %cl,%r15
    4bae:	49 89 cc             	mov    %rcx,%r12
    4bb1:	49 c1 fc 3f          	sar    $0x3f,%r12
    4bb5:	4f 8b 2c e3          	mov    (%r11,%r12,8),%r13
    4bb9:	49 0f a3 cd          	bt     %rcx,%r13
    4bbd:	72 b1                	jb     4b70 <_ZN9FullBoard15predict_ko_hashEii+0x370>
    4bbf:	4d 09 ef             	or     %r13,%r15
    4bc2:	4f 89 3c e3          	mov    %r15,(%r11,%r12,8)
    4bc6:	42 8b 8c 93 f0 06 00 	mov    0x6f0(%rbx,%r10,4),%ecx
    4bcd:	00 
    4bce:	48 69 c9 c8 0d 00 00 	imul   $0xdc8,%rcx,%rcx
    4bd5:	4c 8d 3d f4 8f 02 00 	lea    0x28ff4(%rip),%r15        # 2dbd0 <_ZN7Zobrist7zobristE>
    4bdc:	4f 8d 1c d7          	lea    (%r15,%r10,8),%r11
    4be0:	4a 8b 0c 19          	mov    (%rcx,%r11,1),%rcx
    4be4:	4b 33 8c d7 90 1b 00 	xor    0x1b90(%r15,%r10,8),%rcx
    4beb:	00 
    4bec:	48 31 4c 24 08       	xor    %rcx,0x8(%rsp)
    4bf1:	e9 7a ff ff ff       	jmp    4b70 <_ZN9FullBoard15predict_ko_hashEii+0x370>
    4bf6:	4e 8b 14 c6          	mov    (%rsi,%r8,8),%r10
    4bfa:	4c 8b 6c 24 10       	mov    0x10(%rsp),%r13
    4bff:	4d 09 ca             	or     %r9,%r10
    4c02:	4e 89 14 c6          	mov    %r10,(%rsi,%r8,8)
    4c06:	4c 63 b3 24 1f 00 00 	movslq 0x1f24(%rbx),%r14
    4c0d:	4d 01 ee             	add    %r13,%r14
    4c10:	41 8d 4e 3f          	lea    0x3f(%r14),%ecx
    4c14:	45 85 f6             	test   %r14d,%r14d
    4c17:	41 0f 49 ce          	cmovns %r14d,%ecx
    4c1b:	89 ce                	mov    %ecx,%esi
    4c1d:	c1 fe 06             	sar    $0x6,%esi
    4c20:	48 63 f6             	movslq %esi,%rsi
    4c23:	48 8d 34 f7          	lea    (%rdi,%rsi,8),%rsi
    4c27:	83 e1 c0             	and    $0xffffffc0,%ecx
    4c2a:	45 89 f0             	mov    %r14d,%r8d
    4c2d:	41 29 c8             	sub    %ecx,%r8d
    4c30:	49 63 c8             	movslq %r8d,%rcx
    4c33:	48 d3 e2             	shl    %cl,%rdx
    4c36:	49 89 c8             	mov    %rcx,%r8
    4c39:	49 c1 f8 3f          	sar    $0x3f,%r8
    4c3d:	4e 8b 0c c6          	mov    (%rsi,%r8,8),%r9
    4c41:	49 0f a3 c9          	bt     %rcx,%r9
    4c45:	0f 82 be 00 00 00    	jb     4d09 <_ZN9FullBoard15predict_ko_hashEii+0x509>
    4c4b:	42 39 84 b3 f0 06 00 	cmp    %eax,0x6f0(%rbx,%r14,4)
    4c52:	00 
    4c53:	0f 85 a9 00 00 00    	jne    4d02 <_ZN9FullBoard15predict_ko_hashEii+0x502>
    4c59:	42 0f b7 84 73 48 11 	movzwl 0x1148(%rbx,%r14,2),%eax
    4c60:	00 00 
    4c62:	66 83 bc 43 bc 14 00 	cmpw   $0x1,0x14bc(%rbx,%rax,2)
    4c69:	00 01 
    4c6b:	0f 87 91 00 00 00    	ja     4d02 <_ZN9FullBoard15predict_ko_hashEii+0x502>
    4c71:	44 89 f0             	mov    %r14d,%eax
    4c74:	eb 17                	jmp    4c8d <_ZN9FullBoard15predict_ko_hashEii+0x48d>
    4c76:	66 2e 0f 1f 84 00 00 	cs nopw 0x0(%rax,%rax,1)
    4c7d:	00 00 00 
    4c80:	0f b7 84 43 d4 0d 00 	movzwl 0xdd4(%rbx,%rax,2),%eax
    4c87:	00 
    4c88:	41 39 c6             	cmp    %eax,%r14d
    4c8b:	74 71                	je     4cfe <_ZN9FullBoard15predict_ko_hashEii+0x4fe>
    4c8d:	48 98                	cltq   
    4c8f:	8d 48 3f             	lea    0x3f(%rax),%ecx
    4c92:	85 c0                	test   %eax,%eax
    4c94:	0f 49 c8             	cmovns %eax,%ecx
    4c97:	41 89 c9             	mov    %ecx,%r9d
    4c9a:	41 c1 f9 06          	sar    $0x6,%r9d
    4c9e:	4d 63 c9             	movslq %r9d,%r9
    4ca1:	4e 8d 0c cf          	lea    (%rdi,%r9,8),%r9
    4ca5:	83 e1 c0             	and    $0xffffffc0,%ecx
    4ca8:	41 89 c2             	mov    %eax,%r10d
    4cab:	41 29 ca             	sub    %ecx,%r10d
    4cae:	49 63 ca             	movslq %r10d,%rcx
    4cb1:	41 ba 01 00 00 00    	mov    $0x1,%r10d
    4cb7:	49 d3 e2             	shl    %cl,%r10
    4cba:	49 89 cb             	mov    %rcx,%r11
    4cbd:	49 c1 fb 3f          	sar    $0x3f,%r11
    4cc1:	4f 8b 3c d9          	mov    (%r9,%r11,8),%r15
    4cc5:	49 0f a3 cf          	bt     %rcx,%r15
    4cc9:	72 b5                	jb     4c80 <_ZN9FullBoard15predict_ko_hashEii+0x480>
    4ccb:	4d 09 fa             	or     %r15,%r10
    4cce:	4f 89 14 d9          	mov    %r10,(%r9,%r11,8)
    4cd2:	8b 8c 83 f0 06 00 00 	mov    0x6f0(%rbx,%rax,4),%ecx
    4cd9:	48 69 c9 c8 0d 00 00 	imul   $0xdc8,%rcx,%rcx
    4ce0:	4c 8d 15 e9 8e 02 00 	lea    0x28ee9(%rip),%r10        # 2dbd0 <_ZN7Zobrist7zobristE>
    4ce7:	4d 8d 0c c2          	lea    (%r10,%rax,8),%r9
    4ceb:	4a 8b 0c 09          	mov    (%rcx,%r9,1),%rcx
    4cef:	49 33 8c c2 90 1b 00 	xor    0x1b90(%r10,%rax,8),%rcx
    4cf6:	00 
    4cf7:	48 31 4c 24 08       	xor    %rcx,0x8(%rsp)
    4cfc:	eb 82                	jmp    4c80 <_ZN9FullBoard15predict_ko_hashEii+0x480>
    4cfe:	4e 8b 0c c6          	mov    (%rsi,%r8,8),%r9
    4d02:	49 09 d1             	or     %rdx,%r9
    4d05:	4e 89 0c c6          	mov    %r9,(%rsi,%r8,8)
    4d09:	e8 12 e5 ff ff       	call   3220 <_ZdlPv@plt>
    4d0e:	4c 8b 7c 24 08       	mov    0x8(%rsp),%r15
    4d13:	4c 89 f8             	mov    %r15,%rax
    4d16:	48 83 c4 18          	add    $0x18,%rsp
    4d1a:	5b                   	pop    %rbx
    4d1b:	41 5c                	pop    %r12
    4d1d:	41 5d                	pop    %r13
    4d1f:	41 5e                	pop    %r14
    4d21:	41 5f                	pop    %r15
    4d23:	5d                   	pop    %rbp
    4d24:	c3                   	ret    
    4d25:	66 2e 0f 1f 84 00 00 	cs nopw 0x0(%rax,%rax,1)
    4d2c:	00 00 00 
    4d2f:	90                   	nop

0000000000004d30 <_ZN7KoState9init_gameEif>:
    4d30:	55                   	push   %rbp
    4d31:	41 57                	push   %r15
    4d33:	41 56                	push   %r14
    4d35:	41 55                	push   %r13
    4d37:	41 54                	push   %r12
    4d39:	53                   	push   %rbx
    4d3a:	48 83 ec 18          	sub    $0x18,%rsp
    4d3e:	48 89 fb             	mov    %rdi,%rbx
    4d41:	e8 ea 59 01 00       	call   1a730 <_ZN9FastState9init_gameEif>
    4d46:	48 8b 83 c8 20 00 00 	mov    0x20c8(%rbx),%rax
    4d4d:	48 39 83 d0 20 00 00 	cmp    %rax,0x20d0(%rbx)
    4d54:	74 07                	je     4d5d <_ZN7KoState9init_gameEif+0x2d>
    4d56:	48 89 83 d0 20 00 00 	mov    %rax,0x20d0(%rbx)
    4d5d:	48 8b 83 e0 20 00 00 	mov    0x20e0(%rbx),%rax
    4d64:	48 39 83 e8 20 00 00 	cmp    %rax,0x20e8(%rbx)
    4d6b:	74 07                	je     4d74 <_ZN7KoState9init_gameEif+0x44>
    4d6d:	48 89 83 e8 20 00 00 	mov    %rax,0x20e8(%rbx)
    4d74:	48 89 df             	mov    %rbx,%rdi
    4d77:	e8 64 f3 ff ff       	call   40e0 <_ZN9FullBoard12calc_ko_hashEv>
    4d7c:	48 8b ab d0 20 00 00 	mov    0x20d0(%rbx),%rbp
    4d83:	48 3b ab d8 20 00 00 	cmp    0x20d8(%rbx),%rbp
    4d8a:	74 14                	je     4da0 <_ZN7KoState9init_gameEif+0x70>
    4d8c:	48 89 45 00          	mov    %rax,0x0(%rbp)
    4d90:	48 83 c5 08          	add    $0x8,%rbp
    4d94:	48 89 ab d0 20 00 00 	mov    %rbp,0x20d0(%rbx)
    4d9b:	e9 bf 00 00 00       	jmp    4e5f <_ZN7KoState9init_gameEif+0x12f>
    4da0:	48 8b 8b c8 20 00 00 	mov    0x20c8(%rbx),%rcx
    4da7:	49 89 ee             	mov    %rbp,%r14
    4daa:	48 89 4c 24 10       	mov    %rcx,0x10(%rsp)
    4daf:	49 29 ce             	sub    %rcx,%r14
    4db2:	48 b9 f8 ff ff ff ff 	movabs $0x7ffffffffffffff8,%rcx
    4db9:	ff ff 7f 
    4dbc:	49 39 ce             	cmp    %rcx,%r14
    4dbf:	0f 84 c1 01 00 00    	je     4f86 <_ZN7KoState9init_gameEif+0x256>
    4dc5:	4d 89 f7             	mov    %r14,%r15
    4dc8:	49 c1 ff 03          	sar    $0x3,%r15
    4dcc:	49 83 ff 01          	cmp    $0x1,%r15
    4dd0:	4c 89 f9             	mov    %r15,%rcx
    4dd3:	48 83 d1 00          	adc    $0x0,%rcx
    4dd7:	4e 8d 2c 39          	lea    (%rcx,%r15,1),%r13
    4ddb:	48 ba ff ff ff ff ff 	movabs $0xfffffffffffffff,%rdx
    4de2:	ff ff 0f 
    4de5:	49 39 d5             	cmp    %rdx,%r13
    4de8:	4c 0f 43 ea          	cmovae %rdx,%r13
    4dec:	4c 01 f9             	add    %r15,%rcx
    4def:	4c 0f 42 ea          	cmovb  %rdx,%r13
    4df3:	4d 85 ed             	test   %r13,%r13
    4df6:	0f 84 5d 01 00 00    	je     4f59 <_ZN7KoState9init_gameEif+0x229>
    4dfc:	4a 8d 3c ed 00 00 00 	lea    0x0(,%r13,8),%rdi
    4e03:	00 
    4e04:	48 89 44 24 08       	mov    %rax,0x8(%rsp)
    4e09:	e8 22 e4 ff ff       	call   3230 <_Znwm@plt>
    4e0e:	49 89 c4             	mov    %rax,%r12
    4e11:	48 8b 44 24 08       	mov    0x8(%rsp),%rax
    4e16:	4b 89 04 fc          	mov    %rax,(%r12,%r15,8)
    4e1a:	4c 8b 7c 24 10       	mov    0x10(%rsp),%r15
    4e1f:	49 39 ef             	cmp    %rbp,%r15
    4e22:	74 0e                	je     4e32 <_ZN7KoState9init_gameEif+0x102>
    4e24:	4c 89 e7             	mov    %r12,%rdi
    4e27:	4c 89 fe             	mov    %r15,%rsi
    4e2a:	4c 89 f2             	mov    %r14,%rdx
    4e2d:	e8 7e e5 ff ff       	call   33b0 <memmove@plt>
    4e32:	4d 01 e6             	add    %r12,%r14
    4e35:	49 83 c6 08          	add    $0x8,%r14
    4e39:	4d 85 ff             	test   %r15,%r15
    4e3c:	74 08                	je     4e46 <_ZN7KoState9init_gameEif+0x116>
    4e3e:	4c 89 ff             	mov    %r15,%rdi
    4e41:	e8 da e3 ff ff       	call   3220 <_ZdlPv@plt>
    4e46:	4c 89 a3 c8 20 00 00 	mov    %r12,0x20c8(%rbx)
    4e4d:	4c 89 b3 d0 20 00 00 	mov    %r14,0x20d0(%rbx)
    4e54:	4b 8d 04 ec          	lea    (%r12,%r13,8),%rax
    4e58:	48 89 83 d8 20 00 00 	mov    %rax,0x20d8(%rbx)
    4e5f:	48 89 df             	mov    %rbx,%rdi
    4e62:	e8 39 f3 ff ff       	call   41a0 <_ZN9FullBoard9calc_hashEv>
    4e67:	48 8b ab e8 20 00 00 	mov    0x20e8(%rbx),%rbp
    4e6e:	48 3b ab f0 20 00 00 	cmp    0x20f0(%rbx),%rbp
    4e75:	74 14                	je     4e8b <_ZN7KoState9init_gameEif+0x15b>
    4e77:	48 89 45 00          	mov    %rax,0x0(%rbp)
    4e7b:	48 83 c5 08          	add    $0x8,%rbp
    4e7f:	48 89 ab e8 20 00 00 	mov    %rbp,0x20e8(%rbx)
    4e86:	e9 bf 00 00 00       	jmp    4f4a <_ZN7KoState9init_gameEif+0x21a>
    4e8b:	48 8b 8b e0 20 00 00 	mov    0x20e0(%rbx),%rcx
    4e92:	49 89 ee             	mov    %rbp,%r14
    4e95:	48 89 4c 24 10       	mov    %rcx,0x10(%rsp)
    4e9a:	49 29 ce             	sub    %rcx,%r14
    4e9d:	48 b9 f8 ff ff ff ff 	movabs $0x7ffffffffffffff8,%rcx
    4ea4:	ff ff 7f 
    4ea7:	49 39 ce             	cmp    %rcx,%r14
    4eaa:	0f 84 d6 00 00 00    	je     4f86 <_ZN7KoState9init_gameEif+0x256>
    4eb0:	4d 89 f7             	mov    %r14,%r15
    4eb3:	49 c1 ff 03          	sar    $0x3,%r15
    4eb7:	49 83 ff 01          	cmp    $0x1,%r15
    4ebb:	4c 89 f9             	mov    %r15,%rcx
    4ebe:	48 83 d1 00          	adc    $0x0,%rcx
    4ec2:	4e 8d 2c 39          	lea    (%rcx,%r15,1),%r13
    4ec6:	48 ba ff ff ff ff ff 	movabs $0xfffffffffffffff,%rdx
    4ecd:	ff ff 0f 
    4ed0:	49 39 d5             	cmp    %rdx,%r13
    4ed3:	4c 0f 43 ea          	cmovae %rdx,%r13
    4ed7:	4c 01 f9             	add    %r15,%rcx
    4eda:	4c 0f 42 ea          	cmovb  %rdx,%r13
    4ede:	4d 85 ed             	test   %r13,%r13
    4ee1:	0f 84 8c 00 00 00    	je     4f73 <_ZN7KoState9init_gameEif+0x243>
    4ee7:	4a 8d 3c ed 00 00 00 	lea    0x0(,%r13,8),%rdi
    4eee:	00 
    4eef:	48 89 44 24 08       	mov    %rax,0x8(%rsp)
    4ef4:	e8 37 e3 ff ff       	call   3230 <_Znwm@plt>
    4ef9:	49 89 c4             	mov    %rax,%r12
    4efc:	48 8b 44 24 08       	mov    0x8(%rsp),%rax
    4f01:	4b 89 04 fc          	mov    %rax,(%r12,%r15,8)
    4f05:	4c 8b 7c 24 10       	mov    0x10(%rsp),%r15
    4f0a:	49 39 ef             	cmp    %rbp,%r15
    4f0d:	74 0e                	je     4f1d <_ZN7KoState9init_gameEif+0x1ed>
    4f0f:	4c 89 e7             	mov    %r12,%rdi
    4f12:	4c 89 fe             	mov    %r15,%rsi
    4f15:	4c 89 f2             	mov    %r14,%rdx
    4f18:	e8 93 e4 ff ff       	call   33b0 <memmove@plt>
    4f1d:	4d 01 e6             	add    %r12,%r14
    4f20:	49 83 c6 08          	add    $0x8,%r14
    4f24:	4d 85 ff             	test   %r15,%r15
    4f27:	74 08                	je     4f31 <_ZN7KoState9init_gameEif+0x201>
    4f29:	4c 89 ff             	mov    %r15,%rdi
    4f2c:	e8 ef e2 ff ff       	call   3220 <_ZdlPv@plt>
    4f31:	4c 89 a3 e0 20 00 00 	mov    %r12,0x20e0(%rbx)
    4f38:	4c 89 b3 e8 20 00 00 	mov    %r14,0x20e8(%rbx)
    4f3f:	4b 8d 04 ec          	lea    (%r12,%r13,8),%rax
    4f43:	48 89 83 f0 20 00 00 	mov    %rax,0x20f0(%rbx)
    4f4a:	48 83 c4 18          	add    $0x18,%rsp
    4f4e:	5b                   	pop    %rbx
    4f4f:	41 5c                	pop    %r12
    4f51:	41 5d                	pop    %r13
    4f53:	41 5e                	pop    %r14
    4f55:	41 5f                	pop    %r15
    4f57:	5d                   	pop    %rbp
    4f58:	c3                   	ret    
    4f59:	45 31 e4             	xor    %r12d,%r12d
    4f5c:	4b 89 04 fc          	mov    %rax,(%r12,%r15,8)
    4f60:	4c 8b 7c 24 10       	mov    0x10(%rsp),%r15
    4f65:	49 39 ef             	cmp    %rbp,%r15
    4f68:	0f 85 b6 fe ff ff    	jne    4e24 <_ZN7KoState9init_gameEif+0xf4>
    4f6e:	e9 bf fe ff ff       	jmp    4e32 <_ZN7KoState9init_gameEif+0x102>
    4f73:	45 31 e4             	xor    %r12d,%r12d
    4f76:	4b 89 04 fc          	mov    %rax,(%r12,%r15,8)
    4f7a:	4c 8b 7c 24 10       	mov    0x10(%rsp),%r15
    4f7f:	49 39 ef             	cmp    %rbp,%r15
    4f82:	75 8b                	jne    4f0f <_ZN7KoState9init_gameEif+0x1df>
    4f84:	eb 97                	jmp    4f1d <_ZN7KoState9init_gameEif+0x1ed>
    4f86:	48 8d 3d 92 f0 01 00 	lea    0x1f092(%rip),%rdi        # 2401f <_IO_stdin_used+0x1f>
    4f8d:	e8 ce e1 ff ff       	call   3160 <_ZSt20__throw_length_errorPKc@plt>
    4f92:	66 66 66 66 66 2e 0f 	data16 data16 data16 data16 cs nopw 0x0(%rax,%rax,1)
    4f99:	1f 84 00 00 00 00 00 

0000000000004fa0 <_ZN7KoState10legal_moveEi>:
    4fa0:	41 57                	push   %r15
    4fa2:	41 56                	push   %r14
    4fa4:	53                   	push   %rbx
    4fa5:	48 81 ec 00 21 00 00 	sub    $0x2100,%rsp
    4fac:	89 f3                	mov    %esi,%ebx
    4fae:	49 89 fe             	mov    %rdi,%r14
    4fb1:	e8 5a 6d 00 00       	call   bd10 <_ZN9FastBoard10get_squareEi>
    4fb6:	83 f8 02             	cmp    $0x2,%eax
    4fb9:	75 18                	jne    4fd3 <_ZN7KoState10legal_moveEi+0x33>
    4fbb:	4c 89 f7             	mov    %r14,%rdi
    4fbe:	e8 bd aa 00 00       	call   fa80 <_ZN9FastBoard11get_to_moveEv>
    4fc3:	4c 89 f7             	mov    %r14,%rdi
    4fc6:	89 de                	mov    %ebx,%esi
    4fc8:	89 c2                	mov    %eax,%edx
    4fca:	e8 e1 70 00 00       	call   c0b0 <_ZN9FastBoard10is_suicideEii>
    4fcf:	84 c0                	test   %al,%al
    4fd1:	74 11                	je     4fe4 <_ZN7KoState10legal_moveEi+0x44>
    4fd3:	31 db                	xor    %ebx,%ebx
    4fd5:	89 d8                	mov    %ebx,%eax
    4fd7:	48 81 c4 00 21 00 00 	add    $0x2100,%rsp
    4fde:	5b                   	pop    %rbx
    4fdf:	41 5e                	pop    %r14
    4fe1:	41 5f                	pop    %r15
    4fe3:	c3                   	ret    
    4fe4:	4c 8d 7c 24 08       	lea    0x8(%rsp),%r15
    4fe9:	4c 89 ff             	mov    %r15,%rdi
    4fec:	4c 89 f6             	mov    %r14,%rsi
    4fef:	e8 ac 0a 00 00       	call   5aa0 <_ZN7KoStateC2ERKS_>
    4ff4:	8b b4 24 f0 06 00 00 	mov    0x6f0(%rsp),%esi
    4ffb:	4c 89 ff             	mov    %r15,%rdi
    4ffe:	89 da                	mov    %ebx,%edx
    5000:	e8 6b 08 00 00       	call   5870 <_ZN7KoState9play_moveEii>
    5005:	48 8b bc 24 d0 20 00 	mov    0x20d0(%rsp),%rdi
    500c:	00 
    500d:	48 8b b4 24 d8 20 00 	mov    0x20d8(%rsp),%rsi
    5014:	00 
    5015:	48 8d 4e f8          	lea    -0x8(%rsi),%rcx
    5019:	49 89 cb             	mov    %rcx,%r11
    501c:	49 29 fb             	sub    %rdi,%r11
    501f:	4d 89 d8             	mov    %r11,%r8
    5022:	49 c1 f8 05          	sar    $0x5,%r8
    5026:	4d 85 c0             	test   %r8,%r8
    5029:	7e 6c                	jle    5097 <_ZN7KoState10legal_moveEi+0xf7>
    502b:	4c 8b 94 24 88 1f 00 	mov    0x1f88(%rsp),%r10
    5032:	00 
    5033:	49 83 e3 e0          	and    $0xffffffffffffffe0,%r11
    5037:	49 89 c9             	mov    %rcx,%r9
    503a:	4d 29 d9             	sub    %r11,%r9
    503d:	4c 89 c2             	mov    %r8,%rdx
    5040:	48 c1 e2 05          	shl    $0x5,%rdx
    5044:	48 89 c8             	mov    %rcx,%rax
    5047:	48 29 d0             	sub    %rdx,%rax
    504a:	48 8d 56 e0          	lea    -0x20(%rsi),%rdx
    504e:	48 83 c6 e8          	add    $0xffffffffffffffe8,%rsi
    5052:	49 ff c0             	inc    %r8
    5055:	66 66 2e 0f 1f 84 00 	data16 cs nopw 0x0(%rax,%rax,1)
    505c:	00 00 00 00 
    5060:	4c 39 52 10          	cmp    %r10,0x10(%rdx)
    5064:	74 57                	je     50bd <_ZN7KoState10legal_moveEi+0x11d>
    5066:	4c 39 16             	cmp    %r10,(%rsi)
    5069:	74 58                	je     50c3 <_ZN7KoState10legal_moveEi+0x123>
    506b:	4c 39 56 f8          	cmp    %r10,-0x8(%rsi)
    506f:	74 58                	je     50c9 <_ZN7KoState10legal_moveEi+0x129>
    5071:	4c 39 56 f0          	cmp    %r10,-0x10(%rsi)
    5075:	0f 84 9a 00 00 00    	je     5115 <_ZN7KoState10legal_moveEi+0x175>
    507b:	48 83 c2 e0          	add    $0xffffffffffffffe0,%rdx
    507f:	48 83 c6 e0          	add    $0xffffffffffffffe0,%rsi
    5083:	49 ff c8             	dec    %r8
    5086:	49 83 f8 01          	cmp    $0x1,%r8
    508a:	7f d4                	jg     5060 <_ZN7KoState10legal_moveEi+0xc0>
    508c:	4d 89 cb             	mov    %r9,%r11
    508f:	49 29 fb             	sub    %rdi,%r11
    5092:	4c 89 c9             	mov    %r9,%rcx
    5095:	eb 03                	jmp    509a <_ZN7KoState10legal_moveEi+0xfa>
    5097:	48 89 c8             	mov    %rcx,%rax
    509a:	49 c1 fb 03          	sar    $0x3,%r11
    509e:	49 83 fb 03          	cmp    $0x3,%r11
    50a2:	74 3e                	je     50e2 <_ZN7KoState10legal_moveEi+0x142>
    50a4:	49 83 fb 02          	cmp    $0x2,%r11
    50a8:	74 25                	je     50cf <_ZN7KoState10legal_moveEi+0x12f>
    50aa:	48 89 fa             	mov    %rdi,%rdx
    50ad:	49 83 fb 01          	cmp    $0x1,%r11
    50b1:	75 62                	jne    5115 <_ZN7KoState10legal_moveEi+0x175>
    50b3:	48 8b b4 24 88 1f 00 	mov    0x1f88(%rsp),%rsi
    50ba:	00 
    50bb:	eb 4d                	jmp    510a <_ZN7KoState10legal_moveEi+0x16a>
    50bd:	48 83 c2 18          	add    $0x18,%rdx
    50c1:	eb 52                	jmp    5115 <_ZN7KoState10legal_moveEi+0x175>
    50c3:	48 83 c2 10          	add    $0x10,%rdx
    50c7:	eb 4c                	jmp    5115 <_ZN7KoState10legal_moveEi+0x175>
    50c9:	48 83 c2 08          	add    $0x8,%rdx
    50cd:	eb 46                	jmp    5115 <_ZN7KoState10legal_moveEi+0x175>
    50cf:	48 8b b4 24 88 1f 00 	mov    0x1f88(%rsp),%rsi
    50d6:	00 
    50d7:	48 89 ca             	mov    %rcx,%rdx
    50da:	48 39 71 f8          	cmp    %rsi,-0x8(%rcx)
    50de:	75 23                	jne    5103 <_ZN7KoState10legal_moveEi+0x163>
    50e0:	eb 33                	jmp    5115 <_ZN7KoState10legal_moveEi+0x175>
    50e2:	48 8b b4 24 88 1f 00 	mov    0x1f88(%rsp),%rsi
    50e9:	00 
    50ea:	48 89 ca             	mov    %rcx,%rdx
    50ed:	48 39 71 f8          	cmp    %rsi,-0x8(%rcx)
    50f1:	74 22                	je     5115 <_ZN7KoState10legal_moveEi+0x175>
    50f3:	48 83 c0 f8          	add    $0xfffffffffffffff8,%rax
    50f7:	48 89 c1             	mov    %rax,%rcx
    50fa:	48 89 ca             	mov    %rcx,%rdx
    50fd:	48 39 71 f8          	cmp    %rsi,-0x8(%rcx)
    5101:	74 12                	je     5115 <_ZN7KoState10legal_moveEi+0x175>
    5103:	48 83 c0 f8          	add    $0xfffffffffffffff8,%rax
    5107:	48 89 c1             	mov    %rax,%rcx
    510a:	48 39 71 f8          	cmp    %rsi,-0x8(%rcx)
    510e:	48 0f 45 cf          	cmovne %rdi,%rcx
    5112:	48 89 ca             	mov    %rcx,%rdx
    5115:	48 39 d7             	cmp    %rdx,%rdi
    5118:	0f 94 c3             	sete   %bl
    511b:	48 8b 84 24 e8 20 00 	mov    0x20e8(%rsp),%rax
    5122:	00 
    5123:	48 85 c0             	test   %rax,%rax
    5126:	74 10                	je     5138 <_ZN7KoState10legal_moveEi+0x198>
    5128:	48 89 c7             	mov    %rax,%rdi
    512b:	e8 f0 e0 ff ff       	call   3220 <_ZdlPv@plt>
    5130:	48 8b bc 24 d0 20 00 	mov    0x20d0(%rsp),%rdi
    5137:	00 
    5138:	48 85 ff             	test   %rdi,%rdi
    513b:	74 05                	je     5142 <_ZN7KoState10legal_moveEi+0x1a2>
    513d:	e8 de e0 ff ff       	call   3220 <_ZdlPv@plt>
    5142:	48 8b bc 24 60 1f 00 	mov    0x1f60(%rsp),%rdi
    5149:	00 
    514a:	48 85 ff             	test   %rdi,%rdi
    514d:	0f 84 82 fe ff ff    	je     4fd5 <_ZN7KoState10legal_moveEi+0x35>
    5153:	e8 c8 e0 ff ff       	call   3220 <_ZdlPv@plt>
    5158:	e9 78 fe ff ff       	jmp    4fd5 <_ZN7KoState10legal_moveEi+0x35>
    515d:	48 89 c3             	mov    %rax,%rbx
    5160:	48 8d 7c 24 08       	lea    0x8(%rsp),%rdi
    5165:	e8 b6 0b 00 00       	call   5d20 <_ZN7KoStateD2Ev>
    516a:	48 89 df             	mov    %rbx,%rdi
    516d:	e8 ae e2 ff ff       	call   3420 <_Unwind_Resume@plt>
    5172:	48 89 c7             	mov    %rax,%rdi
    5175:	e8 e6 0b 00 00       	call   5d60 <__clang_call_terminate>
    517a:	66 0f 1f 44 00 00    	nopw   0x0(%rax,%rax,1)

0000000000005180 <_ZN7KoState9play_moveEi>:
    5180:	89 f2                	mov    %esi,%edx
    5182:	8b b7 e8 06 00 00    	mov    0x6e8(%rdi),%esi
    5188:	e9 e3 06 00 00       	jmp    5870 <_ZN7KoState9play_moveEii>
    518d:	0f 1f 00             	nopl   (%rax)

0000000000005190 <_ZN7KoState7superkoEv>:
    5190:	53                   	push   %rbx
    5191:	48 8b 87 c8 20 00 00 	mov    0x20c8(%rdi),%rax
    5198:	4c 8b 87 d0 20 00 00 	mov    0x20d0(%rdi),%r8
    519f:	49 8d 50 f8          	lea    -0x8(%r8),%rdx
    51a3:	48 89 d3             	mov    %rdx,%rbx
    51a6:	48 29 c3             	sub    %rax,%rbx
    51a9:	49 89 d9             	mov    %rbx,%r9
    51ac:	49 c1 f9 05          	sar    $0x5,%r9
    51b0:	4d 85 c9             	test   %r9,%r9
    51b3:	0f 8e a6 00 00 00    	jle    525f <_ZN7KoState7superkoEv+0xcf>
    51b9:	4c 8b 9f 80 1f 00 00 	mov    0x1f80(%rdi),%r11
    51c0:	48 83 e3 e0          	and    $0xffffffffffffffe0,%rbx
    51c4:	49 89 d2             	mov    %rdx,%r10
    51c7:	49 29 da             	sub    %rbx,%r10
    51ca:	4c 89 ce             	mov    %r9,%rsi
    51cd:	48 c1 e6 05          	shl    $0x5,%rsi
    51d1:	48 89 d1             	mov    %rdx,%rcx
    51d4:	48 29 f1             	sub    %rsi,%rcx
    51d7:	49 8d 70 e0          	lea    -0x20(%r8),%rsi
    51db:	49 83 c0 e8          	add    $0xffffffffffffffe8,%r8
    51df:	49 ff c1             	inc    %r9
    51e2:	66 66 66 66 66 2e 0f 	data16 data16 data16 data16 cs nopw 0x0(%rax,%rax,1)
    51e9:	1f 84 00 00 00 00 00 
    51f0:	4c 39 5e 10          	cmp    %r11,0x10(%rsi)
    51f4:	0f 84 8a 00 00 00    	je     5284 <_ZN7KoState7superkoEv+0xf4>
    51fa:	4d 39 18             	cmp    %r11,(%r8)
    51fd:	0f 84 8d 00 00 00    	je     5290 <_ZN7KoState7superkoEv+0x100>
    5203:	4d 39 58 f8          	cmp    %r11,-0x8(%r8)
    5207:	0f 84 8f 00 00 00    	je     529c <_ZN7KoState7superkoEv+0x10c>
    520d:	4d 39 58 f0          	cmp    %r11,-0x10(%r8)
    5211:	74 44                	je     5257 <_ZN7KoState7superkoEv+0xc7>
    5213:	48 83 c6 e0          	add    $0xffffffffffffffe0,%rsi
    5217:	49 83 c0 e0          	add    $0xffffffffffffffe0,%r8
    521b:	49 ff c9             	dec    %r9
    521e:	49 83 f9 01          	cmp    $0x1,%r9
    5222:	7f cc                	jg     51f0 <_ZN7KoState7superkoEv+0x60>
    5224:	4c 89 d3             	mov    %r10,%rbx
    5227:	48 29 c3             	sub    %rax,%rbx
    522a:	4c 89 d2             	mov    %r10,%rdx
    522d:	48 c1 fb 03          	sar    $0x3,%rbx
    5231:	48 83 fb 03          	cmp    $0x3,%rbx
    5235:	75 35                	jne    526c <_ZN7KoState7superkoEv+0xdc>
    5237:	48 8b bf 80 1f 00 00 	mov    0x1f80(%rdi),%rdi
    523e:	48 89 d6             	mov    %rdx,%rsi
    5241:	48 39 7a f8          	cmp    %rdi,-0x8(%rdx)
    5245:	74 10                	je     5257 <_ZN7KoState7superkoEv+0xc7>
    5247:	48 83 c1 f8          	add    $0xfffffffffffffff8,%rcx
    524b:	48 89 ca             	mov    %rcx,%rdx
    524e:	48 89 d6             	mov    %rdx,%rsi
    5251:	48 39 7a f8          	cmp    %rdi,-0x8(%rdx)
    5255:	75 61                	jne    52b8 <_ZN7KoState7superkoEv+0x128>
    5257:	48 39 f0             	cmp    %rsi,%rax
    525a:	0f 95 c0             	setne  %al
    525d:	5b                   	pop    %rbx
    525e:	c3                   	ret    
    525f:	48 89 d1             	mov    %rdx,%rcx
    5262:	48 c1 fb 03          	sar    $0x3,%rbx
    5266:	48 83 fb 03          	cmp    $0x3,%rbx
    526a:	74 cb                	je     5237 <_ZN7KoState7superkoEv+0xa7>
    526c:	48 83 fb 02          	cmp    $0x2,%rbx
    5270:	74 36                	je     52a8 <_ZN7KoState7superkoEv+0x118>
    5272:	48 89 c6             	mov    %rax,%rsi
    5275:	48 83 fb 01          	cmp    $0x1,%rbx
    5279:	75 dc                	jne    5257 <_ZN7KoState7superkoEv+0xc7>
    527b:	48 8b bf 80 1f 00 00 	mov    0x1f80(%rdi),%rdi
    5282:	eb 3b                	jmp    52bf <_ZN7KoState7superkoEv+0x12f>
    5284:	48 83 c6 18          	add    $0x18,%rsi
    5288:	48 39 f0             	cmp    %rsi,%rax
    528b:	0f 95 c0             	setne  %al
    528e:	5b                   	pop    %rbx
    528f:	c3                   	ret    
    5290:	48 83 c6 10          	add    $0x10,%rsi
    5294:	48 39 f0             	cmp    %rsi,%rax
    5297:	0f 95 c0             	setne  %al
    529a:	5b                   	pop    %rbx
    529b:	c3                   	ret    
    529c:	48 83 c6 08          	add    $0x8,%rsi
    52a0:	48 39 f0             	cmp    %rsi,%rax
    52a3:	0f 95 c0             	setne  %al
    52a6:	5b                   	pop    %rbx
    52a7:	c3                   	ret    
    52a8:	48 8b bf 80 1f 00 00 	mov    0x1f80(%rdi),%rdi
    52af:	48 89 d6             	mov    %rdx,%rsi
    52b2:	48 39 7a f8          	cmp    %rdi,-0x8(%rdx)
    52b6:	74 9f                	je     5257 <_ZN7KoState7superkoEv+0xc7>
    52b8:	48 83 c1 f8          	add    $0xfffffffffffffff8,%rcx
    52bc:	48 89 ca             	mov    %rcx,%rdx
    52bf:	48 39 7a f8          	cmp    %rdi,-0x8(%rdx)
    52c3:	48 0f 45 d0          	cmovne %rax,%rdx
    52c7:	48 89 d6             	mov    %rdx,%rsi
    52ca:	48 39 f0             	cmp    %rsi,%rax
    52cd:	0f 95 c0             	setne  %al
    52d0:	5b                   	pop    %rbx
    52d1:	c3                   	ret    
    52d2:	66 66 66 66 66 2e 0f 	data16 data16 data16 data16 cs nopw 0x0(%rax,%rax,1)
    52d9:	1f 84 00 00 00 00 00 

00000000000052e0 <_ZN7KoState7superkoEy>:
    52e0:	48 8b 87 c8 20 00 00 	mov    0x20c8(%rdi),%rax
    52e7:	48 8b bf d0 20 00 00 	mov    0x20d0(%rdi),%rdi
    52ee:	49 89 f9             	mov    %rdi,%r9
    52f1:	49 29 c1             	sub    %rax,%r9
    52f4:	4d 89 c8             	mov    %r9,%r8
    52f7:	49 c1 f8 05          	sar    $0x5,%r8
    52fb:	4d 85 c0             	test   %r8,%r8
    52fe:	7e 7a                	jle    537a <_ZN7KoState7superkoEy+0x9a>
    5300:	49 83 e1 e0          	and    $0xffffffffffffffe0,%r9
    5304:	48 89 f9             	mov    %rdi,%rcx
    5307:	4c 29 c9             	sub    %r9,%rcx
    530a:	4d 89 c1             	mov    %r8,%r9
    530d:	49 c1 e1 05          	shl    $0x5,%r9
    5311:	48 89 fa             	mov    %rdi,%rdx
    5314:	4c 29 ca             	sub    %r9,%rdx
    5317:	49 89 f9             	mov    %rdi,%r9
    531a:	49 83 c1 f0          	add    $0xfffffffffffffff0,%r9
    531e:	49 ff c0             	inc    %r8
    5321:	66 66 66 66 66 66 2e 	data16 data16 data16 data16 data16 cs nopw 0x0(%rax,%rax,1)
    5328:	0f 1f 84 00 00 00 00 
    532f:	00 
    5330:	48 39 77 f8          	cmp    %rsi,-0x8(%rdi)
    5334:	0f 84 8a 00 00 00    	je     53c4 <_ZN7KoState7superkoEy+0xe4>
    533a:	49 39 31             	cmp    %rsi,(%r9)
    533d:	0f 84 88 00 00 00    	je     53cb <_ZN7KoState7superkoEy+0xeb>
    5343:	49 39 71 f8          	cmp    %rsi,-0x8(%r9)
    5347:	0f 84 89 00 00 00    	je     53d6 <_ZN7KoState7superkoEy+0xf6>
    534d:	49 39 71 f0          	cmp    %rsi,-0x10(%r9)
    5351:	0f 84 8a 00 00 00    	je     53e1 <_ZN7KoState7superkoEy+0x101>
    5357:	48 83 c7 e0          	add    $0xffffffffffffffe0,%rdi
    535b:	49 83 c1 e0          	add    $0xffffffffffffffe0,%r9
    535f:	49 ff c8             	dec    %r8
    5362:	49 83 f8 01          	cmp    $0x1,%r8
    5366:	7f c8                	jg     5330 <_ZN7KoState7superkoEy+0x50>
    5368:	49 89 c9             	mov    %rcx,%r9
    536b:	49 29 c1             	sub    %rax,%r9
    536e:	49 c1 f9 03          	sar    $0x3,%r9
    5372:	49 83 f9 01          	cmp    $0x1,%r9
    5376:	75 12                	jne    538a <_ZN7KoState7superkoEy+0xaa>
    5378:	eb 3f                	jmp    53b9 <_ZN7KoState7superkoEy+0xd9>
    537a:	48 89 f9             	mov    %rdi,%rcx
    537d:	48 89 fa             	mov    %rdi,%rdx
    5380:	49 c1 f9 03          	sar    $0x3,%r9
    5384:	49 83 f9 01          	cmp    $0x1,%r9
    5388:	74 2f                	je     53b9 <_ZN7KoState7superkoEy+0xd9>
    538a:	49 83 f9 02          	cmp    $0x2,%r9
    538e:	74 19                	je     53a9 <_ZN7KoState7superkoEy+0xc9>
    5390:	48 89 c7             	mov    %rax,%rdi
    5393:	49 83 f9 03          	cmp    $0x3,%r9
    5397:	75 2b                	jne    53c4 <_ZN7KoState7superkoEy+0xe4>
    5399:	48 89 cf             	mov    %rcx,%rdi
    539c:	48 39 71 f8          	cmp    %rsi,-0x8(%rcx)
    53a0:	74 22                	je     53c4 <_ZN7KoState7superkoEy+0xe4>
    53a2:	48 83 c2 f8          	add    $0xfffffffffffffff8,%rdx
    53a6:	48 89 d1             	mov    %rdx,%rcx
    53a9:	48 89 cf             	mov    %rcx,%rdi
    53ac:	48 39 71 f8          	cmp    %rsi,-0x8(%rcx)
    53b0:	74 12                	je     53c4 <_ZN7KoState7superkoEy+0xe4>
    53b2:	48 83 c2 f8          	add    $0xfffffffffffffff8,%rdx
    53b6:	48 89 d1             	mov    %rdx,%rcx
    53b9:	48 39 71 f8          	cmp    %rsi,-0x8(%rcx)
    53bd:	48 0f 45 c8          	cmovne %rax,%rcx
    53c1:	48 89 cf             	mov    %rcx,%rdi
    53c4:	48 39 f8             	cmp    %rdi,%rax
    53c7:	0f 95 c0             	setne  %al
    53ca:	c3                   	ret    
    53cb:	48 83 c7 f8          	add    $0xfffffffffffffff8,%rdi
    53cf:	48 39 f8             	cmp    %rdi,%rax
    53d2:	0f 95 c0             	setne  %al
    53d5:	c3                   	ret    
    53d6:	48 83 c7 f0          	add    $0xfffffffffffffff0,%rdi
    53da:	48 39 f8             	cmp    %rdi,%rax
    53dd:	0f 95 c0             	setne  %al
    53e0:	c3                   	ret    
    53e1:	48 83 c7 e8          	add    $0xffffffffffffffe8,%rdi
    53e5:	48 39 f8             	cmp    %rdi,%rax
    53e8:	0f 95 c0             	setne  %al
    53eb:	c3                   	ret    
    53ec:	0f 1f 40 00          	nopl   0x0(%rax)

00000000000053f0 <_ZN7KoState10reset_gameEv>:
    53f0:	55                   	push   %rbp
    53f1:	41 57                	push   %r15
    53f3:	41 56                	push   %r14
    53f5:	41 55                	push   %r13
    53f7:	41 54                	push   %r12
    53f9:	53                   	push   %rbx
    53fa:	48 83 ec 18          	sub    $0x18,%rsp
    53fe:	48 89 fb             	mov    %rdi,%rbx
    5401:	e8 7a 53 01 00       	call   1a780 <_ZN9FastState10reset_gameEv>
    5406:	48 8b 83 c8 20 00 00 	mov    0x20c8(%rbx),%rax
    540d:	48 39 83 d0 20 00 00 	cmp    %rax,0x20d0(%rbx)
    5414:	74 07                	je     541d <_ZN7KoState10reset_gameEv+0x2d>
    5416:	48 89 83 d0 20 00 00 	mov    %rax,0x20d0(%rbx)
    541d:	48 8b 83 e0 20 00 00 	mov    0x20e0(%rbx),%rax
    5424:	48 39 83 e8 20 00 00 	cmp    %rax,0x20e8(%rbx)
    542b:	74 07                	je     5434 <_ZN7KoState10reset_gameEv+0x44>
    542d:	48 89 83 e8 20 00 00 	mov    %rax,0x20e8(%rbx)
    5434:	48 89 df             	mov    %rbx,%rdi
    5437:	e8 a4 ec ff ff       	call   40e0 <_ZN9FullBoard12calc_ko_hashEv>
    543c:	48 8b ab d0 20 00 00 	mov    0x20d0(%rbx),%rbp
    5443:	48 3b ab d8 20 00 00 	cmp    0x20d8(%rbx),%rbp
    544a:	74 14                	je     5460 <_ZN7KoState10reset_gameEv+0x70>
    544c:	48 89 45 00          	mov    %rax,0x0(%rbp)
    5450:	48 83 c5 08          	add    $0x8,%rbp
    5454:	48 89 ab d0 20 00 00 	mov    %rbp,0x20d0(%rbx)
    545b:	e9 bf 00 00 00       	jmp    551f <_ZN7KoState10reset_gameEv+0x12f>
    5460:	48 8b 8b c8 20 00 00 	mov    0x20c8(%rbx),%rcx
    5467:	49 89 ee             	mov    %rbp,%r14
    546a:	48 89 4c 24 10       	mov    %rcx,0x10(%rsp)
    546f:	49 29 ce             	sub    %rcx,%r14
    5472:	48 b9 f8 ff ff ff ff 	movabs $0x7ffffffffffffff8,%rcx
    5479:	ff ff 7f 
    547c:	49 39 ce             	cmp    %rcx,%r14
    547f:	0f 84 c1 01 00 00    	je     5646 <_ZN7KoState10reset_gameEv+0x256>
    5485:	4d 89 f7             	mov    %r14,%r15
    5488:	49 c1 ff 03          	sar    $0x3,%r15
    548c:	49 83 ff 01          	cmp    $0x1,%r15
    5490:	4c 89 f9             	mov    %r15,%rcx
    5493:	48 83 d1 00          	adc    $0x0,%rcx
    5497:	4e 8d 2c 39          	lea    (%rcx,%r15,1),%r13
    549b:	48 ba ff ff ff ff ff 	movabs $0xfffffffffffffff,%rdx
    54a2:	ff ff 0f 
    54a5:	49 39 d5             	cmp    %rdx,%r13
    54a8:	4c 0f 43 ea          	cmovae %rdx,%r13
    54ac:	4c 01 f9             	add    %r15,%rcx
    54af:	4c 0f 42 ea          	cmovb  %rdx,%r13
    54b3:	4d 85 ed             	test   %r13,%r13
    54b6:	0f 84 5d 01 00 00    	je     5619 <_ZN7KoState10reset_gameEv+0x229>
    54bc:	4a 8d 3c ed 00 00 00 	lea    0x0(,%r13,8),%rdi
    54c3:	00 
    54c4:	48 89 44 24 08       	mov    %rax,0x8(%rsp)
    54c9:	e8 62 dd ff ff       	call   3230 <_Znwm@plt>
    54ce:	49 89 c4             	mov    %rax,%r12
    54d1:	48 8b 44 24 08       	mov    0x8(%rsp),%rax
    54d6:	4b 89 04 fc          	mov    %rax,(%r12,%r15,8)
    54da:	4c 8b 7c 24 10       	mov    0x10(%rsp),%r15
    54df:	49 39 ef             	cmp    %rbp,%r15
    54e2:	74 0e                	je     54f2 <_ZN7KoState10reset_gameEv+0x102>
    54e4:	4c 89 e7             	mov    %r12,%rdi
    54e7:	4c 89 fe             	mov    %r15,%rsi
    54ea:	4c 89 f2             	mov    %r14,%rdx
    54ed:	e8 be de ff ff       	call   33b0 <memmove@plt>
    54f2:	4d 01 e6             	add    %r12,%r14
    54f5:	49 83 c6 08          	add    $0x8,%r14
    54f9:	4d 85 ff             	test   %r15,%r15
    54fc:	74 08                	je     5506 <_ZN7KoState10reset_gameEv+0x116>
    54fe:	4c 89 ff             	mov    %r15,%rdi
    5501:	e8 1a dd ff ff       	call   3220 <_ZdlPv@plt>
    5506:	4c 89 a3 c8 20 00 00 	mov    %r12,0x20c8(%rbx)
    550d:	4c 89 b3 d0 20 00 00 	mov    %r14,0x20d0(%rbx)
    5514:	4b 8d 04 ec          	lea    (%r12,%r13,8),%rax
    5518:	48 89 83 d8 20 00 00 	mov    %rax,0x20d8(%rbx)
    551f:	48 89 df             	mov    %rbx,%rdi
    5522:	e8 79 ec ff ff       	call   41a0 <_ZN9FullBoard9calc_hashEv>
    5527:	48 8b ab e8 20 00 00 	mov    0x20e8(%rbx),%rbp
    552e:	48 3b ab f0 20 00 00 	cmp    0x20f0(%rbx),%rbp
    5535:	74 14                	je     554b <_ZN7KoState10reset_gameEv+0x15b>
    5537:	48 89 45 00          	mov    %rax,0x0(%rbp)
    553b:	48 83 c5 08          	add    $0x8,%rbp
    553f:	48 89 ab e8 20 00 00 	mov    %rbp,0x20e8(%rbx)
    5546:	e9 bf 00 00 00       	jmp    560a <_ZN7KoState10reset_gameEv+0x21a>
    554b:	48 8b 8b e0 20 00 00 	mov    0x20e0(%rbx),%rcx
    5552:	49 89 ee             	mov    %rbp,%r14
    5555:	48 89 4c 24 10       	mov    %rcx,0x10(%rsp)
    555a:	49 29 ce             	sub    %rcx,%r14
    555d:	48 b9 f8 ff ff ff ff 	movabs $0x7ffffffffffffff8,%rcx
    5564:	ff ff 7f 
    5567:	49 39 ce             	cmp    %rcx,%r14
    556a:	0f 84 d6 00 00 00    	je     5646 <_ZN7KoState10reset_gameEv+0x256>
    5570:	4d 89 f7             	mov    %r14,%r15
    5573:	49 c1 ff 03          	sar    $0x3,%r15
    5577:	49 83 ff 01          	cmp    $0x1,%r15
    557b:	4c 89 f9             	mov    %r15,%rcx
    557e:	48 83 d1 00          	adc    $0x0,%rcx
    5582:	4e 8d 2c 39          	lea    (%rcx,%r15,1),%r13
    5586:	48 ba ff ff ff ff ff 	movabs $0xfffffffffffffff,%rdx
    558d:	ff ff 0f 
    5590:	49 39 d5             	cmp    %rdx,%r13
    5593:	4c 0f 43 ea          	cmovae %rdx,%r13
    5597:	4c 01 f9             	add    %r15,%rcx
    559a:	4c 0f 42 ea          	cmovb  %rdx,%r13
    559e:	4d 85 ed             	test   %r13,%r13
    55a1:	0f 84 8c 00 00 00    	je     5633 <_ZN7KoState10reset_gameEv+0x243>
    55a7:	4a 8d 3c ed 00 00 00 	lea    0x0(,%r13,8),%rdi
    55ae:	00 
    55af:	48 89 44 24 08       	mov    %rax,0x8(%rsp)
    55b4:	e8 77 dc ff ff       	call   3230 <_Znwm@plt>
    55b9:	49 89 c4             	mov    %rax,%r12
    55bc:	48 8b 44 24 08       	mov    0x8(%rsp),%rax
    55c1:	4b 89 04 fc          	mov    %rax,(%r12,%r15,8)
    55c5:	4c 8b 7c 24 10       	mov    0x10(%rsp),%r15
    55ca:	49 39 ef             	cmp    %rbp,%r15
    55cd:	74 0e                	je     55dd <_ZN7KoState10reset_gameEv+0x1ed>
    55cf:	4c 89 e7             	mov    %r12,%rdi
    55d2:	4c 89 fe             	mov    %r15,%rsi
    55d5:	4c 89 f2             	mov    %r14,%rdx
    55d8:	e8 d3 dd ff ff       	call   33b0 <memmove@plt>
    55dd:	4d 01 e6             	add    %r12,%r14
    55e0:	49 83 c6 08          	add    $0x8,%r14
    55e4:	4d 85 ff             	test   %r15,%r15
    55e7:	74 08                	je     55f1 <_ZN7KoState10reset_gameEv+0x201>
    55e9:	4c 89 ff             	mov    %r15,%rdi
    55ec:	e8 2f dc ff ff       	call   3220 <_ZdlPv@plt>
    55f1:	4c 89 a3 e0 20 00 00 	mov    %r12,0x20e0(%rbx)
    55f8:	4c 89 b3 e8 20 00 00 	mov    %r14,0x20e8(%rbx)
    55ff:	4b 8d 04 ec          	lea    (%r12,%r13,8),%rax
    5603:	48 89 83 f0 20 00 00 	mov    %rax,0x20f0(%rbx)
    560a:	48 83 c4 18          	add    $0x18,%rsp
    560e:	5b                   	pop    %rbx
    560f:	41 5c                	pop    %r12
    5611:	41 5d                	pop    %r13
    5613:	41 5e                	pop    %r14
    5615:	41 5f                	pop    %r15
    5617:	5d                   	pop    %rbp
    5618:	c3                   	ret    
    5619:	45 31 e4             	xor    %r12d,%r12d
    561c:	4b 89 04 fc          	mov    %rax,(%r12,%r15,8)
    5620:	4c 8b 7c 24 10       	mov    0x10(%rsp),%r15
    5625:	49 39 ef             	cmp    %rbp,%r15
    5628:	0f 85 b6 fe ff ff    	jne    54e4 <_ZN7KoState10reset_gameEv+0xf4>
    562e:	e9 bf fe ff ff       	jmp    54f2 <_ZN7KoState10reset_gameEv+0x102>
    5633:	45 31 e4             	xor    %r12d,%r12d
    5636:	4b 89 04 fc          	mov    %rax,(%r12,%r15,8)
    563a:	4c 8b 7c 24 10       	mov    0x10(%rsp),%r15
    563f:	49 39 ef             	cmp    %rbp,%r15
    5642:	75 8b                	jne    55cf <_ZN7KoState10reset_gameEv+0x1df>
    5644:	eb 97                	jmp    55dd <_ZN7KoState10reset_gameEv+0x1ed>
    5646:	48 8d 3d d2 e9 01 00 	lea    0x1e9d2(%rip),%rdi        # 2401f <_IO_stdin_used+0x1f>
    564d:	e8 0e db ff ff       	call   3160 <_ZSt20__throw_length_errorPKc@plt>
    5652:	66 66 66 66 66 2e 0f 	data16 data16 data16 data16 cs nopw 0x0(%rax,%rax,1)
    5659:	1f 84 00 00 00 00 00 

0000000000005660 <_ZN7KoState9play_passEv>:
    5660:	55                   	push   %rbp
    5661:	41 57                	push   %r15
    5663:	41 56                	push   %r14
    5665:	41 55                	push   %r13
    5667:	41 54                	push   %r12
    5669:	53                   	push   %rbx
    566a:	50                   	push   %rax
    566b:	48 89 fb             	mov    %rdi,%rbx
    566e:	e8 dd 5e 01 00       	call   1b550 <_ZN9FastState9play_passEv>
    5673:	4c 8b ab d0 20 00 00 	mov    0x20d0(%rbx),%r13
    567a:	4c 3b ab d8 20 00 00 	cmp    0x20d8(%rbx),%r13
    5681:	74 45                	je     56c8 <_ZN7KoState9play_passEv+0x68>
    5683:	48 8b 83 80 1f 00 00 	mov    0x1f80(%rbx),%rax
    568a:	49 89 45 00          	mov    %rax,0x0(%r13)
    568e:	49 83 c5 08          	add    $0x8,%r13
    5692:	4c 89 ab d0 20 00 00 	mov    %r13,0x20d0(%rbx)
    5699:	4c 8b ab e8 20 00 00 	mov    0x20e8(%rbx),%r13
    56a0:	4c 3b ab f0 20 00 00 	cmp    0x20f0(%rbx),%r13
    56a7:	0f 84 ea 00 00 00    	je     5797 <_ZN7KoState9play_passEv+0x137>
    56ad:	48 8b 83 78 1f 00 00 	mov    0x1f78(%rbx),%rax
    56b4:	49 89 45 00          	mov    %rax,0x0(%r13)
    56b8:	49 83 c5 08          	add    $0x8,%r13
    56bc:	4c 89 ab e8 20 00 00 	mov    %r13,0x20e8(%rbx)
    56c3:	e9 8a 01 00 00       	jmp    5852 <_ZN7KoState9play_passEv+0x1f2>
    56c8:	48 8b 83 c8 20 00 00 	mov    0x20c8(%rbx),%rax
    56cf:	4d 89 ee             	mov    %r13,%r14
    56d2:	48 89 04 24          	mov    %rax,(%rsp)
    56d6:	49 29 c6             	sub    %rax,%r14
    56d9:	48 b8 f8 ff ff ff ff 	movabs $0x7ffffffffffffff8,%rax
    56e0:	ff ff 7f 
    56e3:	49 39 c6             	cmp    %rax,%r14
    56e6:	0f 84 75 01 00 00    	je     5861 <_ZN7KoState9play_passEv+0x201>
    56ec:	4d 89 f7             	mov    %r14,%r15
    56ef:	49 c1 ff 03          	sar    $0x3,%r15
    56f3:	49 83 ff 01          	cmp    $0x1,%r15
    56f7:	4c 89 f8             	mov    %r15,%rax
    56fa:	48 83 d0 00          	adc    $0x0,%rax
    56fe:	4a 8d 2c 38          	lea    (%rax,%r15,1),%rbp
    5702:	48 b9 ff ff ff ff ff 	movabs $0xfffffffffffffff,%rcx
    5709:	ff ff 0f 
    570c:	48 39 cd             	cmp    %rcx,%rbp
    570f:	48 0f 43 e9          	cmovae %rcx,%rbp
    5713:	4c 01 f8             	add    %r15,%rax
    5716:	48 0f 42 e9          	cmovb  %rcx,%rbp
    571a:	48 85 ed             	test   %rbp,%rbp
    571d:	74 12                	je     5731 <_ZN7KoState9play_passEv+0xd1>
    571f:	48 8d 3c ed 00 00 00 	lea    0x0(,%rbp,8),%rdi
    5726:	00 
    5727:	e8 04 db ff ff       	call   3230 <_Znwm@plt>
    572c:	49 89 c4             	mov    %rax,%r12
    572f:	eb 03                	jmp    5734 <_ZN7KoState9play_passEv+0xd4>
    5731:	45 31 e4             	xor    %r12d,%r12d
    5734:	48 8b 83 80 1f 00 00 	mov    0x1f80(%rbx),%rax
    573b:	4b 89 04 fc          	mov    %rax,(%r12,%r15,8)
    573f:	4c 8b 3c 24          	mov    (%rsp),%r15
    5743:	4d 39 ef             	cmp    %r13,%r15
    5746:	74 0e                	je     5756 <_ZN7KoState9play_passEv+0xf6>
    5748:	4c 89 e7             	mov    %r12,%rdi
    574b:	4c 89 fe             	mov    %r15,%rsi
    574e:	4c 89 f2             	mov    %r14,%rdx
    5751:	e8 5a dc ff ff       	call   33b0 <memmove@plt>
    5756:	4d 01 e6             	add    %r12,%r14
    5759:	49 83 c6 08          	add    $0x8,%r14
    575d:	4d 85 ff             	test   %r15,%r15
    5760:	74 08                	je     576a <_ZN7KoState9play_passEv+0x10a>
    5762:	4c 89 ff             	mov    %r15,%rdi
    5765:	e8 b6 da ff ff       	call   3220 <_ZdlPv@plt>
    576a:	4c 89 a3 c8 20 00 00 	mov    %r12,0x20c8(%rbx)
    5771:	4c 89 b3 d0 20 00 00 	mov    %r14,0x20d0(%rbx)
    5778:	49 8d 04 ec          	lea    (%r12,%rbp,8),%rax
    577c:	48 89 83 d8 20 00 00 	mov    %rax,0x20d8(%rbx)
    5783:	4c 8b ab e8 20 00 00 	mov    0x20e8(%rbx),%r13
    578a:	4c 3b ab f0 20 00 00 	cmp    0x20f0(%rbx),%r13
    5791:	0f 85 16 ff ff ff    	jne    56ad <_ZN7KoState9play_passEv+0x4d>
    5797:	48 8b 83 e0 20 00 00 	mov    0x20e0(%rbx),%rax
    579e:	4d 89 ee             	mov    %r13,%r14
    57a1:	48 89 04 24          	mov    %rax,(%rsp)
    57a5:	49 29 c6             	sub    %rax,%r14
    57a8:	48 b8 f8 ff ff ff ff 	movabs $0x7ffffffffffffff8,%rax
    57af:	ff ff 7f 
    57b2:	49 39 c6             	cmp    %rax,%r14
    57b5:	0f 84 a6 00 00 00    	je     5861 <_ZN7KoState9play_passEv+0x201>
    57bb:	4d 89 f7             	mov    %r14,%r15
    57be:	49 c1 ff 03          	sar    $0x3,%r15
    57c2:	49 83 ff 01          	cmp    $0x1,%r15
    57c6:	4c 89 f8             	mov    %r15,%rax
    57c9:	48 83 d0 00          	adc    $0x0,%rax
    57cd:	4a 8d 2c 38          	lea    (%rax,%r15,1),%rbp
    57d1:	48 b9 ff ff ff ff ff 	movabs $0xfffffffffffffff,%rcx
    57d8:	ff ff 0f 
    57db:	48 39 cd             	cmp    %rcx,%rbp
    57de:	48 0f 43 e9          	cmovae %rcx,%rbp
    57e2:	4c 01 f8             	add    %r15,%rax
    57e5:	48 0f 42 e9          	cmovb  %rcx,%rbp
    57e9:	48 85 ed             	test   %rbp,%rbp
    57ec:	74 12                	je     5800 <_ZN7KoState9play_passEv+0x1a0>
    57ee:	48 8d 3c ed 00 00 00 	lea    0x0(,%rbp,8),%rdi
    57f5:	00 
    57f6:	e8 35 da ff ff       	call   3230 <_Znwm@plt>
    57fb:	49 89 c4             	mov    %rax,%r12
    57fe:	eb 03                	jmp    5803 <_ZN7KoState9play_passEv+0x1a3>
    5800:	45 31 e4             	xor    %r12d,%r12d
    5803:	48 8b 83 78 1f 00 00 	mov    0x1f78(%rbx),%rax
    580a:	4b 89 04 fc          	mov    %rax,(%r12,%r15,8)
    580e:	4c 8b 3c 24          	mov    (%rsp),%r15
    5812:	4d 39 ef             	cmp    %r13,%r15
    5815:	74 0e                	je     5825 <_ZN7KoState9play_passEv+0x1c5>
    5817:	4c 89 e7             	mov    %r12,%rdi
    581a:	4c 89 fe             	mov    %r15,%rsi
    581d:	4c 89 f2             	mov    %r14,%rdx
    5820:	e8 8b db ff ff       	call   33b0 <memmove@plt>
    5825:	4d 01 e6             	add    %r12,%r14
    5828:	49 83 c6 08          	add    $0x8,%r14
    582c:	4d 85 ff             	test   %r15,%r15
    582f:	74 08                	je     5839 <_ZN7KoState9play_passEv+0x1d9>
    5831:	4c 89 ff             	mov    %r15,%rdi
    5834:	e8 e7 d9 ff ff       	call   3220 <_ZdlPv@plt>
    5839:	4c 89 a3 e0 20 00 00 	mov    %r12,0x20e0(%rbx)
    5840:	4c 89 b3 e8 20 00 00 	mov    %r14,0x20e8(%rbx)
    5847:	49 8d 04 ec          	lea    (%r12,%rbp,8),%rax
    584b:	48 89 83 f0 20 00 00 	mov    %rax,0x20f0(%rbx)
    5852:	48 83 c4 08          	add    $0x8,%rsp
    5856:	5b                   	pop    %rbx
    5857:	41 5c                	pop    %r12
    5859:	41 5d                	pop    %r13
    585b:	41 5e                	pop    %r14
    585d:	41 5f                	pop    %r15
    585f:	5d                   	pop    %rbp
    5860:	c3                   	ret    
    5861:	48 8d 3d b7 e7 01 00 	lea    0x1e7b7(%rip),%rdi        # 2401f <_IO_stdin_used+0x1f>
    5868:	e8 f3 d8 ff ff       	call   3160 <_ZSt20__throw_length_errorPKc@plt>
    586d:	0f 1f 00             	nopl   (%rax)

0000000000005870 <_ZN7KoState9play_moveEii>:
    5870:	55                   	push   %rbp
    5871:	41 57                	push   %r15
    5873:	41 56                	push   %r14
    5875:	41 55                	push   %r13
    5877:	41 54                	push   %r12
    5879:	53                   	push   %rbx
    587a:	50                   	push   %rax
    587b:	48 89 fb             	mov    %rdi,%rbx
    587e:	83 fa fd             	cmp    $0xfffffffd,%edx
    5881:	77 5d                	ja     58e0 <_ZN7KoState9play_moveEii+0x70>
    5883:	48 89 df             	mov    %rbx,%rdi
    5886:	e8 75 5d 01 00       	call   1b600 <_ZN9FastState9play_moveEii>
    588b:	4c 8b ab d0 20 00 00 	mov    0x20d0(%rbx),%r13
    5892:	4c 3b ab d8 20 00 00 	cmp    0x20d8(%rbx),%r13
    5899:	74 5b                	je     58f6 <_ZN7KoState9play_moveEii+0x86>
    589b:	48 8b 83 80 1f 00 00 	mov    0x1f80(%rbx),%rax
    58a2:	49 89 45 00          	mov    %rax,0x0(%r13)
    58a6:	49 83 c5 08          	add    $0x8,%r13
    58aa:	4c 89 ab d0 20 00 00 	mov    %r13,0x20d0(%rbx)
    58b1:	4c 8b ab e8 20 00 00 	mov    0x20e8(%rbx),%r13
    58b8:	4c 3b ab f0 20 00 00 	cmp    0x20f0(%rbx),%r13
    58bf:	0f 84 00 01 00 00    	je     59c5 <_ZN7KoState9play_moveEii+0x155>
    58c5:	48 8b 83 78 1f 00 00 	mov    0x1f78(%rbx),%rax
    58cc:	49 89 45 00          	mov    %rax,0x0(%r13)
    58d0:	49 83 c5 08          	add    $0x8,%r13
    58d4:	4c 89 ab e8 20 00 00 	mov    %r13,0x20e8(%rbx)
    58db:	e9 a0 01 00 00       	jmp    5a80 <_ZN7KoState9play_moveEii+0x210>
    58e0:	48 89 df             	mov    %rbx,%rdi
    58e3:	48 83 c4 08          	add    $0x8,%rsp
    58e7:	5b                   	pop    %rbx
    58e8:	41 5c                	pop    %r12
    58ea:	41 5d                	pop    %r13
    58ec:	41 5e                	pop    %r14
    58ee:	41 5f                	pop    %r15
    58f0:	5d                   	pop    %rbp
    58f1:	e9 6a fd ff ff       	jmp    5660 <_ZN7KoState9play_passEv>
    58f6:	48 8b 83 c8 20 00 00 	mov    0x20c8(%rbx),%rax
    58fd:	4d 89 ee             	mov    %r13,%r14
    5900:	48 89 04 24          	mov    %rax,(%rsp)
    5904:	49 29 c6             	sub    %rax,%r14
    5907:	48 b8 f8 ff ff ff ff 	movabs $0x7ffffffffffffff8,%rax
    590e:	ff ff 7f 
    5911:	49 39 c6             	cmp    %rax,%r14
    5914:	0f 84 75 01 00 00    	je     5a8f <_ZN7KoState9play_moveEii+0x21f>
    591a:	4d 89 f7             	mov    %r14,%r15
    591d:	49 c1 ff 03          	sar    $0x3,%r15
    5921:	49 83 ff 01          	cmp    $0x1,%r15
    5925:	4c 89 f8             	mov    %r15,%rax
    5928:	48 83 d0 00          	adc    $0x0,%rax
    592c:	4a 8d 2c 38          	lea    (%rax,%r15,1),%rbp
    5930:	48 b9 ff ff ff ff ff 	movabs $0xfffffffffffffff,%rcx
    5937:	ff ff 0f 
    593a:	48 39 cd             	cmp    %rcx,%rbp
    593d:	48 0f 43 e9          	cmovae %rcx,%rbp
    5941:	4c 01 f8             	add    %r15,%rax
    5944:	48 0f 42 e9          	cmovb  %rcx,%rbp
    5948:	48 85 ed             	test   %rbp,%rbp
    594b:	74 12                	je     595f <_ZN7KoState9play_moveEii+0xef>
    594d:	48 8d 3c ed 00 00 00 	lea    0x0(,%rbp,8),%rdi
    5954:	00 
    5955:	e8 d6 d8 ff ff       	call   3230 <_Znwm@plt>
    595a:	49 89 c4             	mov    %rax,%r12
    595d:	eb 03                	jmp    5962 <_ZN7KoState9play_moveEii+0xf2>
    595f:	45 31 e4             	xor    %r12d,%r12d
    5962:	48 8b 83 80 1f 00 00 	mov    0x1f80(%rbx),%rax
    5969:	4b 89 04 fc          	mov    %rax,(%r12,%r15,8)
    596d:	4c 8b 3c 24          	mov    (%rsp),%r15
    5971:	4d 39 ef             	cmp    %r13,%r15
    5974:	74 0e                	je     5984 <_ZN7KoState9play_moveEii+0x114>
    5976:	4c 89 e7             	mov    %r12,%rdi
    5979:	4c 89 fe             	mov    %r15,%rsi
    597c:	4c 89 f2             	mov    %r14,%rdx
    597f:	e8 2c da ff ff       	call   33b0 <memmove@plt>
    5984:	4d 01 e6             	add    %r12,%r14
    5987:	49 83 c6 08          	add    $0x8,%r14
    598b:	4d 85 ff             	test   %r15,%r15
    598e:	74 08                	je     5998 <_ZN7KoState9play_moveEii+0x128>
    5990:	4c 89 ff             	mov    %r15,%rdi
    5993:	e8 88 d8 ff ff       	call   3220 <_ZdlPv@plt>
    5998:	4c 89 a3 c8 20 00 00 	mov    %r12,0x20c8(%rbx)
    599f:	4c 89 b3 d0 20 00 00 	mov    %r14,0x20d0(%rbx)
    59a6:	49 8d 04 ec          	lea    (%r12,%rbp,8),%rax
    59aa:	48 89 83 d8 20 00 00 	mov    %rax,0x20d8(%rbx)
    59b1:	4c 8b ab e8 20 00 00 	mov    0x20e8(%rbx),%r13
    59b8:	4c 3b ab f0 20 00 00 	cmp    0x20f0(%rbx),%r13
    59bf:	0f 85 00 ff ff ff    	jne    58c5 <_ZN7KoState9play_moveEii+0x55>
    59c5:	48 8b 83 e0 20 00 00 	mov    0x20e0(%rbx),%rax
    59cc:	4d 89 ee             	mov    %r13,%r14
    59cf:	48 89 04 24          	mov    %rax,(%rsp)
    59d3:	49 29 c6             	sub    %rax,%r14
    59d6:	48 b8 f8 ff ff ff ff 	movabs $0x7ffffffffffffff8,%rax
    59dd:	ff ff 7f 
    59e0:	49 39 c6             	cmp    %rax,%r14
    59e3:	0f 84 a6 00 00 00    	je     5a8f <_ZN7KoState9play_moveEii+0x21f>
    59e9:	4d 89 f7             	mov    %r14,%r15
    59ec:	49 c1 ff 03          	sar    $0x3,%r15
    59f0:	49 83 ff 01          	cmp    $0x1,%r15
    59f4:	4c 89 f8             	mov    %r15,%rax
    59f7:	48 83 d0 00          	adc    $0x0,%rax
    59fb:	4a 8d 2c 38          	lea    (%rax,%r15,1),%rbp
    59ff:	48 b9 ff ff ff ff ff 	movabs $0xfffffffffffffff,%rcx
    5a06:	ff ff 0f 
    5a09:	48 39 cd             	cmp    %rcx,%rbp
    5a0c:	48 0f 43 e9          	cmovae %rcx,%rbp
    5a10:	4c 01 f8             	add    %r15,%rax
    5a13:	48 0f 42 e9          	cmovb  %rcx,%rbp
    5a17:	48 85 ed             	test   %rbp,%rbp
    5a1a:	74 12                	je     5a2e <_ZN7KoState9play_moveEii+0x1be>
    5a1c:	48 8d 3c ed 00 00 00 	lea    0x0(,%rbp,8),%rdi
    5a23:	00 
    5a24:	e8 07 d8 ff ff       	call   3230 <_Znwm@plt>
    5a29:	49 89 c4             	mov    %rax,%r12
    5a2c:	eb 03                	jmp    5a31 <_ZN7KoState9play_moveEii+0x1c1>
    5a2e:	45 31 e4             	xor    %r12d,%r12d
    5a31:	48 8b 83 78 1f 00 00 	mov    0x1f78(%rbx),%rax
    5a38:	4b 89 04 fc          	mov    %rax,(%r12,%r15,8)
    5a3c:	4c 8b 3c 24          	mov    (%rsp),%r15
    5a40:	4d 39 ef             	cmp    %r13,%r15
    5a43:	74 0e                	je     5a53 <_ZN7KoState9play_moveEii+0x1e3>
    5a45:	4c 89 e7             	mov    %r12,%rdi
    5a48:	4c 89 fe             	mov    %r15,%rsi
    5a4b:	4c 89 f2             	mov    %r14,%rdx
    5a4e:	e8 5d d9 ff ff       	call   33b0 <memmove@plt>
    5a53:	4d 01 e6             	add    %r12,%r14
    5a56:	49 83 c6 08          	add    $0x8,%r14
    5a5a:	4d 85 ff             	test   %r15,%r15
    5a5d:	74 08                	je     5a67 <_ZN7KoState9play_moveEii+0x1f7>
    5a5f:	4c 89 ff             	mov    %r15,%rdi
    5a62:	e8 b9 d7 ff ff       	call   3220 <_ZdlPv@plt>
    5a67:	4c 89 a3 e0 20 00 00 	mov    %r12,0x20e0(%rbx)
    5a6e:	4c 89 b3 e8 20 00 00 	mov    %r14,0x20e8(%rbx)
    5a75:	49 8d 04 ec          	lea    (%r12,%rbp,8),%rax
    5a79:	48 89 83 f0 20 00 00 	mov    %rax,0x20f0(%rbx)
    5a80:	48 83 c4 08          	add    $0x8,%rsp
    5a84:	5b                   	pop    %rbx
    5a85:	41 5c                	pop    %r12
    5a87:	41 5d                	pop    %r13
    5a89:	41 5e                	pop    %r14
    5a8b:	41 5f                	pop    %r15
    5a8d:	5d                   	pop    %rbp
    5a8e:	c3                   	ret    
    5a8f:	48 8d 3d 89 e5 01 00 	lea    0x1e589(%rip),%rdi        # 2401f <_IO_stdin_used+0x1f>
    5a96:	e8 c5 d6 ff ff       	call   3160 <_ZSt20__throw_length_errorPKc@plt>
    5a9b:	0f 1f 44 00 00       	nopl   0x0(%rax,%rax,1)

0000000000005aa0 <_ZN7KoStateC2ERKS_>:
    5aa0:	55                   	push   %rbp
    5aa1:	41 57                	push   %r15
    5aa3:	41 56                	push   %r14
    5aa5:	41 55                	push   %r13
    5aa7:	41 54                	push   %r12
    5aa9:	53                   	push   %rbx
    5aaa:	50                   	push   %rax
    5aab:	49 89 f6             	mov    %rsi,%r14
    5aae:	48 89 fb             	mov    %rdi,%rbx
    5ab1:	ba 58 1f 00 00       	mov    $0x1f58,%edx
    5ab6:	e8 35 d7 ff ff       	call   31f0 <memcpy@plt>
    5abb:	49 8b be 60 1f 00 00 	mov    0x1f60(%r14),%rdi
    5ac2:	49 8b 86 58 1f 00 00 	mov    0x1f58(%r14),%rax
    5ac9:	49 89 fc             	mov    %rdi,%r12
    5acc:	49 29 c4             	sub    %rax,%r12
    5acf:	49 c1 fc 02          	sar    $0x2,%r12
    5ad3:	0f 57 c0             	xorps  %xmm0,%xmm0
    5ad6:	0f 11 83 58 1f 00 00 	movups %xmm0,0x1f58(%rbx)
    5add:	48 c7 83 68 1f 00 00 	movq   $0x0,0x1f68(%rbx)
    5ae4:	00 00 00 00 
    5ae8:	48 29 c7             	sub    %rax,%rdi
    5aeb:	74 17                	je     5b04 <_ZN7KoStateC2ERKS_+0x64>
    5aed:	4c 89 e0             	mov    %r12,%rax
    5af0:	48 c1 e8 3d          	shr    $0x3d,%rax
    5af4:	0f 85 b0 01 00 00    	jne    5caa <_ZN7KoStateC2ERKS_+0x20a>
    5afa:	e8 31 d7 ff ff       	call   3230 <_Znwm@plt>
    5aff:	49 89 c7             	mov    %rax,%r15
    5b02:	eb 03                	jmp    5b07 <_ZN7KoStateC2ERKS_+0x67>
    5b04:	45 31 ff             	xor    %r15d,%r15d
    5b07:	4c 89 bb 58 1f 00 00 	mov    %r15,0x1f58(%rbx)
    5b0e:	4c 89 bb 60 1f 00 00 	mov    %r15,0x1f60(%rbx)
    5b15:	4b 8d 04 a7          	lea    (%r15,%r12,4),%rax
    5b19:	48 89 83 68 1f 00 00 	mov    %rax,0x1f68(%rbx)
    5b20:	49 8b b6 58 1f 00 00 	mov    0x1f58(%r14),%rsi
    5b27:	4d 8b a6 60 1f 00 00 	mov    0x1f60(%r14),%r12
    5b2e:	49 29 f4             	sub    %rsi,%r12
    5b31:	74 0b                	je     5b3e <_ZN7KoStateC2ERKS_+0x9e>
    5b33:	4c 89 ff             	mov    %r15,%rdi
    5b36:	4c 89 e2             	mov    %r12,%rdx
    5b39:	e8 72 d8 ff ff       	call   33b0 <memmove@plt>
    5b3e:	4d 01 e7             	add    %r12,%r15
    5b41:	4c 89 bb 60 1f 00 00 	mov    %r15,0x1f60(%rbx)
    5b48:	41 8b 86 70 1f 00 00 	mov    0x1f70(%r14),%eax
    5b4f:	89 83 70 1f 00 00    	mov    %eax,0x1f70(%rbx)
    5b55:	41 0f 10 86 78 1f 00 	movups 0x1f78(%r14),%xmm0
    5b5c:	00 
    5b5d:	0f 11 83 78 1f 00 00 	movups %xmm0,0x1f78(%rbx)
    5b64:	48 8d bb 88 1f 00 00 	lea    0x1f88(%rbx),%rdi
    5b6b:	49 8d b6 88 1f 00 00 	lea    0x1f88(%r14),%rsi
    5b72:	ba 3c 01 00 00       	mov    $0x13c,%edx
    5b77:	e8 74 d6 ff ff       	call   31f0 <memcpy@plt>
    5b7c:	49 8b be d0 20 00 00 	mov    0x20d0(%r14),%rdi
    5b83:	49 8b 86 c8 20 00 00 	mov    0x20c8(%r14),%rax
    5b8a:	49 89 fc             	mov    %rdi,%r12
    5b8d:	49 29 c4             	sub    %rax,%r12
    5b90:	49 c1 fc 03          	sar    $0x3,%r12
    5b94:	49 bd ff ff ff ff ff 	movabs $0xfffffffffffffff,%r13
    5b9b:	ff ff 0f 
    5b9e:	0f 57 c0             	xorps  %xmm0,%xmm0
    5ba1:	0f 11 83 c8 20 00 00 	movups %xmm0,0x20c8(%rbx)
    5ba8:	48 c7 83 d8 20 00 00 	movq   $0x0,0x20d8(%rbx)
    5baf:	00 00 00 00 
    5bb3:	48 29 c7             	sub    %rax,%rdi
    5bb6:	74 13                	je     5bcb <_ZN7KoStateC2ERKS_+0x12b>
    5bb8:	4d 39 ec             	cmp    %r13,%r12
    5bbb:	0f 87 ee 00 00 00    	ja     5caf <_ZN7KoStateC2ERKS_+0x20f>
    5bc1:	e8 6a d6 ff ff       	call   3230 <_Znwm@plt>
    5bc6:	49 89 c7             	mov    %rax,%r15
    5bc9:	eb 03                	jmp    5bce <_ZN7KoStateC2ERKS_+0x12e>
    5bcb:	45 31 ff             	xor    %r15d,%r15d
    5bce:	4c 89 bb c8 20 00 00 	mov    %r15,0x20c8(%rbx)
    5bd5:	4c 89 bb d0 20 00 00 	mov    %r15,0x20d0(%rbx)
    5bdc:	4b 8d 04 e7          	lea    (%r15,%r12,8),%rax
    5be0:	48 89 83 d8 20 00 00 	mov    %rax,0x20d8(%rbx)
    5be7:	49 8b b6 c8 20 00 00 	mov    0x20c8(%r14),%rsi
    5bee:	4d 8b a6 d0 20 00 00 	mov    0x20d0(%r14),%r12
    5bf5:	49 29 f4             	sub    %rsi,%r12
    5bf8:	74 0b                	je     5c05 <_ZN7KoStateC2ERKS_+0x165>
    5bfa:	4c 89 ff             	mov    %r15,%rdi
    5bfd:	4c 89 e2             	mov    %r12,%rdx
    5c00:	e8 ab d7 ff ff       	call   33b0 <memmove@plt>
    5c05:	4d 01 e7             	add    %r12,%r15
    5c08:	4c 89 bb d0 20 00 00 	mov    %r15,0x20d0(%rbx)
    5c0f:	49 8b be e8 20 00 00 	mov    0x20e8(%r14),%rdi
    5c16:	49 8b 86 e0 20 00 00 	mov    0x20e0(%r14),%rax
    5c1d:	49 89 fc             	mov    %rdi,%r12
    5c20:	49 29 c4             	sub    %rax,%r12
    5c23:	49 c1 fc 03          	sar    $0x3,%r12
    5c27:	0f 57 c0             	xorps  %xmm0,%xmm0
    5c2a:	0f 11 83 e0 20 00 00 	movups %xmm0,0x20e0(%rbx)
    5c31:	48 c7 83 f0 20 00 00 	movq   $0x0,0x20f0(%rbx)
    5c38:	00 00 00 00 
    5c3c:	48 29 c7             	sub    %rax,%rdi
    5c3f:	74 16                	je     5c57 <_ZN7KoStateC2ERKS_+0x1b7>
    5c41:	48 8d ab c8 20 00 00 	lea    0x20c8(%rbx),%rbp
    5c48:	4d 39 ec             	cmp    %r13,%r12
    5c4b:	77 67                	ja     5cb4 <_ZN7KoStateC2ERKS_+0x214>
    5c4d:	e8 de d5 ff ff       	call   3230 <_Znwm@plt>
    5c52:	49 89 c7             	mov    %rax,%r15
    5c55:	eb 03                	jmp    5c5a <_ZN7KoStateC2ERKS_+0x1ba>
    5c57:	45 31 ff             	xor    %r15d,%r15d
    5c5a:	4c 89 bb e0 20 00 00 	mov    %r15,0x20e0(%rbx)
    5c61:	4c 89 bb e8 20 00 00 	mov    %r15,0x20e8(%rbx)
    5c68:	4b 8d 04 e7          	lea    (%r15,%r12,8),%rax
    5c6c:	48 89 83 f0 20 00 00 	mov    %rax,0x20f0(%rbx)
    5c73:	49 8b b6 e0 20 00 00 	mov    0x20e0(%r14),%rsi
    5c7a:	4d 8b b6 e8 20 00 00 	mov    0x20e8(%r14),%r14
    5c81:	49 29 f6             	sub    %rsi,%r14
    5c84:	74 0b                	je     5c91 <_ZN7KoStateC2ERKS_+0x1f1>
    5c86:	4c 89 ff             	mov    %r15,%rdi
    5c89:	4c 89 f2             	mov    %r14,%rdx
    5c8c:	e8 1f d7 ff ff       	call   33b0 <memmove@plt>
    5c91:	4d 01 f7             	add    %r14,%r15
    5c94:	4c 89 bb e8 20 00 00 	mov    %r15,0x20e8(%rbx)
    5c9b:	48 83 c4 08          	add    $0x8,%rsp
    5c9f:	5b                   	pop    %rbx
    5ca0:	41 5c                	pop    %r12
    5ca2:	41 5d                	pop    %r13
    5ca4:	41 5e                	pop    %r14
    5ca6:	41 5f                	pop    %r15
    5ca8:	5d                   	pop    %rbp
    5ca9:	c3                   	ret    
    5caa:	e8 31 d5 ff ff       	call   31e0 <_ZSt28__throw_bad_array_new_lengthv@plt>
    5caf:	e8 2c d5 ff ff       	call   31e0 <_ZSt28__throw_bad_array_new_lengthv@plt>
    5cb4:	e8 27 d5 ff ff       	call   31e0 <_ZSt28__throw_bad_array_new_lengthv@plt>
    5cb9:	49 89 c6             	mov    %rax,%r14
    5cbc:	48 8b 7d 00          	mov    0x0(%rbp),%rdi
    5cc0:	48 85 ff             	test   %rdi,%rdi
    5cc3:	75 17                	jne    5cdc <_ZN7KoStateC2ERKS_+0x23c>
    5cc5:	48 81 c3 58 1f 00 00 	add    $0x1f58,%rbx
    5ccc:	48 8b 3b             	mov    (%rbx),%rdi
    5ccf:	48 85 ff             	test   %rdi,%rdi
    5cd2:	75 30                	jne    5d04 <_ZN7KoStateC2ERKS_+0x264>
    5cd4:	4c 89 f7             	mov    %r14,%rdi
    5cd7:	e8 44 d7 ff ff       	call   3420 <_Unwind_Resume@plt>
    5cdc:	e8 3f d5 ff ff       	call   3220 <_ZdlPv@plt>
    5ce1:	48 81 c3 58 1f 00 00 	add    $0x1f58,%rbx
    5ce8:	48 8b 3b             	mov    (%rbx),%rdi
    5ceb:	48 85 ff             	test   %rdi,%rdi
    5cee:	74 e4                	je     5cd4 <_ZN7KoStateC2ERKS_+0x234>
    5cf0:	eb 12                	jmp    5d04 <_ZN7KoStateC2ERKS_+0x264>
    5cf2:	49 89 c6             	mov    %rax,%r14
    5cf5:	48 81 c3 58 1f 00 00 	add    $0x1f58,%rbx
    5cfc:	48 8b 3b             	mov    (%rbx),%rdi
    5cff:	48 85 ff             	test   %rdi,%rdi
    5d02:	74 d0                	je     5cd4 <_ZN7KoStateC2ERKS_+0x234>
    5d04:	e8 17 d5 ff ff       	call   3220 <_ZdlPv@plt>
    5d09:	4c 89 f7             	mov    %r14,%rdi
    5d0c:	e8 0f d7 ff ff       	call   3420 <_Unwind_Resume@plt>
    5d11:	66 2e 0f 1f 84 00 00 	cs nopw 0x0(%rax,%rax,1)
    5d18:	00 00 00 
    5d1b:	0f 1f 44 00 00       	nopl   0x0(%rax,%rax,1)

0000000000005d20 <_ZN7KoStateD2Ev>:
    5d20:	53                   	push   %rbx
    5d21:	48 89 fb             	mov    %rdi,%rbx
    5d24:	48 8b bf e0 20 00 00 	mov    0x20e0(%rdi),%rdi
    5d2b:	48 85 ff             	test   %rdi,%rdi
    5d2e:	74 05                	je     5d35 <_ZN7KoStateD2Ev+0x15>
    5d30:	e8 eb d4 ff ff       	call   3220 <_ZdlPv@plt>
    5d35:	48 8b bb c8 20 00 00 	mov    0x20c8(%rbx),%rdi
    5d3c:	48 85 ff             	test   %rdi,%rdi
    5d3f:	74 05                	je     5d46 <_ZN7KoStateD2Ev+0x26>
    5d41:	e8 da d4 ff ff       	call   3220 <_ZdlPv@plt>
    5d46:	48 8b bb 58 1f 00 00 	mov    0x1f58(%rbx),%rdi
    5d4d:	48 85 ff             	test   %rdi,%rdi
    5d50:	74 06                	je     5d58 <_ZN7KoStateD2Ev+0x38>
    5d52:	5b                   	pop    %rbx
    5d53:	e9 c8 d4 ff ff       	jmp    3220 <_ZdlPv@plt>
    5d58:	5b                   	pop    %rbx
    5d59:	c3                   	ret    
    5d5a:	66 0f 1f 44 00 00    	nopw   0x0(%rax,%rax,1)

0000000000005d60 <__clang_call_terminate>:
    5d60:	50                   	push   %rax
    5d61:	e8 aa d3 ff ff       	call   3110 <__cxa_begin_catch@plt>
    5d66:	e8 25 d3 ff ff       	call   3090 <_ZSt9terminatev@plt>
    5d6b:	0f 1f 44 00 00       	nopl   0x0(%rax,%rax,1)

0000000000005d70 <_ZN7PlayoutC1Ev>:
    5d70:	c6 07 00             	movb   $0x0,(%rdi)
    5d73:	0f 57 c0             	xorps  %xmm0,%xmm0
    5d76:	0f 11 47 08          	movups %xmm0,0x8(%rdi)
    5d7a:	0f 11 47 18          	movups %xmm0,0x18(%rdi)
    5d7e:	0f 11 47 28          	movups %xmm0,0x28(%rdi)
    5d82:	0f 11 47 38          	movups %xmm0,0x38(%rdi)
    5d86:	0f 11 47 48          	movups %xmm0,0x48(%rdi)
    5d8a:	0f 11 47 58          	movups %xmm0,0x58(%rdi)
    5d8e:	0f 11 47 68          	movups %xmm0,0x68(%rdi)
    5d92:	c3                   	ret    
    5d93:	66 66 66 66 2e 0f 1f 	data16 data16 data16 cs nopw 0x0(%rax,%rax,1)
    5d9a:	84 00 00 00 00 00 

0000000000005da0 <_ZN7Playout9get_scoreEv>:
    5da0:	f3 0f 10 47 04       	movss  0x4(%rdi),%xmm0
    5da5:	c3                   	ret    
    5da6:	66 2e 0f 1f 84 00 00 	cs nopw 0x0(%rax,%rax,1)
    5dad:	00 00 00 

0000000000005db0 <_ZN7Playout15set_final_scoreEf>:
    5db0:	c6 07 01             	movb   $0x1,(%rdi)
    5db3:	f3 0f 11 47 04       	movss  %xmm0,0x4(%rdi)
    5db8:	c3                   	ret    
    5db9:	0f 1f 80 00 00 00 00 	nopl   0x0(%rax)

0000000000005dc0 <_ZN7Playout3runER9FastStateb>:
    5dc0:	55                   	push   %rbp
    5dc1:	41 57                	push   %r15
    5dc3:	41 56                	push   %r14
    5dc5:	41 55                	push   %r13
    5dc7:	41 54                	push   %r12
    5dc9:	53                   	push   %rbx
    5dca:	48 83 ec 58          	sub    $0x58,%rsp
    5dce:	41 89 d7             	mov    %edx,%r15d
    5dd1:	49 89 f6             	mov    %rsi,%r14
    5dd4:	48 89 fb             	mov    %rdi,%rbx
    5dd7:	48 89 f7             	mov    %rsi,%rdi
    5dda:	e8 01 5f 00 00       	call   bce0 <_ZN9FastBoard13get_boardsizeEv>
    5ddf:	89 c5                	mov    %eax,%ebp
    5de1:	0f af c0             	imul   %eax,%eax
    5de4:	44 8d 24 00          	lea    (%rax,%rax,1),%r12d
    5de8:	48 89 5c 24 18       	mov    %rbx,0x18(%rsp)
    5ded:	48 8d 4b 08          	lea    0x8(%rbx),%rcx
    5df1:	48 89 4c 24 08       	mov    %rcx,0x8(%rsp)
    5df6:	45 85 ff             	test   %r15d,%r15d
    5df9:	48 89 44 24 10       	mov    %rax,0x10(%rsp)
    5dfe:	0f 84 bd 00 00 00    	je     5ec1 <_ZN7Playout3runER9FastStateb+0x101>
    5e04:	48 69 d8 56 55 55 55 	imul   $0x55555556,%rax,%rbx
    5e0b:	48 c1 eb 20          	shr    $0x20,%rbx
    5e0f:	45 31 ed             	xor    %r13d,%r13d
    5e12:	66 66 66 66 66 2e 0f 	data16 data16 data16 data16 cs nopw 0x0(%rax,%rax,1)
    5e19:	1f 84 00 00 00 00 00 
    5e20:	4c 89 f7             	mov    %r14,%rdi
    5e23:	e8 a8 49 01 00       	call   1a7d0 <_ZN9FastState16play_random_moveEv>
    5e28:	41 83 fd 1d          	cmp    $0x1d,%r13d
    5e2c:	77 52                	ja     5e80 <_ZN7Playout3runER9FastStateb+0xc0>
    5e2e:	41 89 c7             	mov    %eax,%r15d
    5e31:	83 f8 ff             	cmp    $0xffffffff,%eax
    5e34:	74 4a                	je     5e80 <_ZN7Playout3runER9FastStateb+0xc0>
    5e36:	4c 89 f7             	mov    %r14,%rdi
    5e39:	e8 82 59 01 00       	call   1b7c0 <_ZN9FastState11get_to_moveEv>
    5e3e:	31 c9                	xor    %ecx,%ecx
    5e40:	85 c0                	test   %eax,%eax
    5e42:	0f 95 c1             	setne  %cl
    5e45:	48 6b c9 38          	imul   $0x38,%rcx,%rcx
    5e49:	48 03 4c 24 08       	add    0x8(%rsp),%rcx
    5e4e:	49 63 d7             	movslq %r15d,%rdx
    5e51:	48 c1 ea 06          	shr    $0x6,%rdx
    5e55:	48 8b 3c d1          	mov    (%rcx,%rdx,8),%rdi
    5e59:	be 01 00 00 00       	mov    $0x1,%esi
    5e5e:	44 89 f9             	mov    %r15d,%ecx
    5e61:	48 d3 e6             	shl    %cl,%rsi
    5e64:	4c 0f a3 ff          	bt     %r15,%rdi
    5e68:	72 16                	jb     5e80 <_ZN7Playout3runER9FastStateb+0xc0>
    5e6a:	31 c9                	xor    %ecx,%ecx
    5e6c:	85 c0                	test   %eax,%eax
    5e6e:	0f 94 c1             	sete   %cl
    5e71:	48 6b c1 38          	imul   $0x38,%rcx,%rax
    5e75:	48 03 44 24 08       	add    0x8(%rsp),%rax
    5e7a:	48 09 34 d0          	or     %rsi,(%rax,%rdx,8)
    5e7e:	66 90                	xchg   %ax,%ax
    5e80:	4c 89 f7             	mov    %r14,%rdi
    5e83:	e8 58 57 01 00       	call   1b5e0 <_ZN9FastState10get_passesEv>
    5e88:	83 f8 01             	cmp    $0x1,%eax
    5e8b:	0f 8f bb 00 00 00    	jg     5f4c <_ZN7Playout3runER9FastStateb+0x18c>
    5e91:	4c 89 f7             	mov    %r14,%rdi
    5e94:	e8 97 58 01 00       	call   1b730 <_ZN9FastState11get_movenumEv>
    5e99:	44 39 e0             	cmp    %r12d,%eax
    5e9c:	0f 8d aa 00 00 00    	jge    5f4c <_ZN7Playout3runER9FastStateb+0x18c>
    5ea2:	4c 89 f7             	mov    %r14,%rdi
    5ea5:	e8 96 58 01 00       	call   1b740 <_ZN9FastState17estimate_mc_scoreEv>
    5eaa:	89 c1                	mov    %eax,%ecx
    5eac:	f7 d9                	neg    %ecx
    5eae:	0f 48 c8             	cmovs  %eax,%ecx
    5eb1:	41 ff c5             	inc    %r13d
    5eb4:	39 d9                	cmp    %ebx,%ecx
    5eb6:	0f 82 64 ff ff ff    	jb     5e20 <_ZN7Playout3runER9FastStateb+0x60>
    5ebc:	e9 8b 00 00 00       	jmp    5f4c <_ZN7Playout3runER9FastStateb+0x18c>
    5ec1:	31 db                	xor    %ebx,%ebx
    5ec3:	66 66 66 66 2e 0f 1f 	data16 data16 data16 cs nopw 0x0(%rax,%rax,1)
    5eca:	84 00 00 00 00 00 
    5ed0:	4c 89 f7             	mov    %r14,%rdi
    5ed3:	e8 f8 48 01 00       	call   1a7d0 <_ZN9FastState16play_random_moveEv>
    5ed8:	83 fb 1d             	cmp    $0x1d,%ebx
    5edb:	77 53                	ja     5f30 <_ZN7Playout3runER9FastStateb+0x170>
    5edd:	41 89 c7             	mov    %eax,%r15d
    5ee0:	83 f8 ff             	cmp    $0xffffffff,%eax
    5ee3:	74 4b                	je     5f30 <_ZN7Playout3runER9FastStateb+0x170>
    5ee5:	4c 89 f7             	mov    %r14,%rdi
    5ee8:	e8 d3 58 01 00       	call   1b7c0 <_ZN9FastState11get_to_moveEv>
    5eed:	31 c9                	xor    %ecx,%ecx
    5eef:	85 c0                	test   %eax,%eax
    5ef1:	0f 95 c1             	setne  %cl
    5ef4:	48 6b c9 38          	imul   $0x38,%rcx,%rcx
    5ef8:	48 03 4c 24 08       	add    0x8(%rsp),%rcx
    5efd:	49 63 d7             	movslq %r15d,%rdx
    5f00:	48 c1 ea 06          	shr    $0x6,%rdx
    5f04:	48 8b 3c d1          	mov    (%rcx,%rdx,8),%rdi
    5f08:	be 01 00 00 00       	mov    $0x1,%esi
    5f0d:	44 89 f9             	mov    %r15d,%ecx
    5f10:	48 d3 e6             	shl    %cl,%rsi
    5f13:	4c 0f a3 ff          	bt     %r15,%rdi
    5f17:	72 17                	jb     5f30 <_ZN7Playout3runER9FastStateb+0x170>
    5f19:	31 c9                	xor    %ecx,%ecx
    5f1b:	85 c0                	test   %eax,%eax
    5f1d:	0f 94 c1             	sete   %cl
    5f20:	48 6b c1 38          	imul   $0x38,%rcx,%rax
    5f24:	48 03 44 24 08       	add    0x8(%rsp),%rax
    5f29:	48 09 34 d0          	or     %rsi,(%rax,%rdx,8)
    5f2d:	0f 1f 00             	nopl   (%rax)
    5f30:	4c 89 f7             	mov    %r14,%rdi
    5f33:	e8 a8 56 01 00       	call   1b5e0 <_ZN9FastState10get_passesEv>
    5f38:	83 f8 01             	cmp    $0x1,%eax
    5f3b:	7f 0f                	jg     5f4c <_ZN7Playout3runER9FastStateb+0x18c>
    5f3d:	ff c3                	inc    %ebx
    5f3f:	4c 89 f7             	mov    %r14,%rdi
    5f42:	e8 e9 57 01 00       	call   1b730 <_ZN9FastState11get_movenumEv>
    5f47:	44 39 e0             	cmp    %r12d,%eax
    5f4a:	7c 84                	jl     5ed0 <_ZN7Playout3runER9FastStateb+0x110>
    5f4c:	4c 89 f7             	mov    %r14,%rdi
    5f4f:	e8 0c 58 01 00       	call   1b760 <_ZN9FastState18calculate_mc_scoreEv>
    5f54:	f3 0f 11 44 24 08    	movss  %xmm0,0x8(%rsp)
    5f5a:	0f 57 c0             	xorps  %xmm0,%xmm0
    5f5d:	0f 29 44 24 40       	movaps %xmm0,0x40(%rsp)
    5f62:	0f 29 44 24 30       	movaps %xmm0,0x30(%rsp)
    5f67:	0f 29 44 24 20       	movaps %xmm0,0x20(%rsp)
    5f6c:	48 c7 44 24 50 00 00 	movq   $0x0,0x50(%rsp)
    5f73:	00 00 
    5f75:	85 ed                	test   %ebp,%ebp
    5f77:	7e 78                	jle    5ff1 <_ZN7Playout3runER9FastStateb+0x231>
    5f79:	45 31 ff             	xor    %r15d,%r15d
    5f7c:	eb 0a                	jmp    5f88 <_ZN7Playout3runER9FastStateb+0x1c8>
    5f7e:	66 90                	xchg   %ax,%ax
    5f80:	41 ff c7             	inc    %r15d
    5f83:	41 39 ef             	cmp    %ebp,%r15d
    5f86:	74 69                	je     5ff1 <_ZN7Playout3runER9FastStateb+0x231>
    5f88:	45 31 e4             	xor    %r12d,%r12d
    5f8b:	eb 22                	jmp    5faf <_ZN7Playout3runER9FastStateb+0x1ef>
    5f8d:	0f 1f 00             	nopl   (%rax)
    5f90:	49 63 c5             	movslq %r13d,%rax
    5f93:	ba 01 00 00 00       	mov    $0x1,%edx
    5f98:	44 89 e9             	mov    %r13d,%ecx
    5f9b:	48 d3 e2             	shl    %cl,%rdx
    5f9e:	48 c1 e8 06          	shr    $0x6,%rax
    5fa2:	48 09 54 c4 20       	or     %rdx,0x20(%rsp,%rax,8)
    5fa7:	41 ff c4             	inc    %r12d
    5faa:	44 39 e5             	cmp    %r12d,%ebp
    5fad:	74 d1                	je     5f80 <_ZN7Playout3runER9FastStateb+0x1c0>
    5faf:	4c 89 f7             	mov    %r14,%rdi
    5fb2:	44 89 fe             	mov    %r15d,%esi
    5fb5:	44 89 e2             	mov    %r12d,%edx
    5fb8:	e8 33 5d 00 00       	call   bcf0 <_ZN9FastBoard10get_vertexEii>
    5fbd:	41 89 c5             	mov    %eax,%r13d
    5fc0:	4c 89 f7             	mov    %r14,%rdi
    5fc3:	89 c6                	mov    %eax,%esi
    5fc5:	e8 46 5d 00 00       	call   bd10 <_ZN9FastBoard10get_squareEi>
    5fca:	85 c0                	test   %eax,%eax
    5fcc:	74 c2                	je     5f90 <_ZN7Playout3runER9FastStateb+0x1d0>
    5fce:	4c 89 f7             	mov    %r14,%rdi
    5fd1:	44 89 ee             	mov    %r13d,%esi
    5fd4:	e8 37 5d 00 00       	call   bd10 <_ZN9FastBoard10get_squareEi>
    5fd9:	83 f8 02             	cmp    $0x2,%eax
    5fdc:	75 c9                	jne    5fa7 <_ZN7Playout3runER9FastStateb+0x1e7>
    5fde:	4c 89 f7             	mov    %r14,%rdi
    5fe1:	31 f6                	xor    %esi,%esi
    5fe3:	44 89 ea             	mov    %r13d,%edx
    5fe6:	e8 d5 92 00 00       	call   f2c0 <_ZN9FastBoard6is_eyeEii>
    5feb:	84 c0                	test   %al,%al
    5fed:	75 a1                	jne    5f90 <_ZN7Playout3runER9FastStateb+0x1d0>
    5fef:	eb b6                	jmp    5fa7 <_ZN7Playout3runER9FastStateb+0x1e7>
    5ff1:	e8 ea a1 01 00       	call   201e0 <_ZN12MCOwnerTable7get_MCOEv>
    5ff6:	48 8d 74 24 20       	lea    0x20(%rsp),%rsi
    5ffb:	48 89 c7             	mov    %rax,%rdi
    5ffe:	e8 3d a3 01 00       	call   20340 <_ZN12MCOwnerTable6updateERSt6bitsetILm441EE>
    6003:	0f 57 c0             	xorps  %xmm0,%xmm0
    6006:	f3 0f 2a 44 24 10    	cvtsi2ssl 0x10(%rsp),%xmm0
    600c:	48 8b 44 24 18       	mov    0x18(%rsp),%rax
    6011:	c6 00 01             	movb   $0x1,(%rax)
    6014:	f3 0f 10 4c 24 08    	movss  0x8(%rsp),%xmm1
    601a:	f3 0f 5e c8          	divss  %xmm0,%xmm1
    601e:	f3 0f 11 48 04       	movss  %xmm1,0x4(%rax)
    6023:	48 83 c4 58          	add    $0x58,%rsp
    6027:	5b                   	pop    %rbx
    6028:	41 5c                	pop    %r12
    602a:	41 5d                	pop    %r13
    602c:	41 5e                	pop    %r14
    602e:	41 5f                	pop    %r15
    6030:	5d                   	pop    %rbp
    6031:	c3                   	ret    
    6032:	66 66 66 66 66 2e 0f 	data16 data16 data16 data16 cs nopw 0x0(%rax,%rax,1)
    6039:	1f 84 00 00 00 00 00 

0000000000006040 <_ZN7Playout11passthroughEii>:
    6040:	83 fa ff             	cmp    $0xffffffff,%edx
    6043:	74 1e                	je     6063 <_ZN7Playout11passthroughEii+0x23>
    6045:	48 63 c6             	movslq %esi,%rax
    6048:	48 6b c0 38          	imul   $0x38,%rax,%rax
    604c:	48 01 c7             	add    %rax,%rdi
    604f:	48 63 c2             	movslq %edx,%rax
    6052:	48 c1 e8 06          	shr    $0x6,%rax
    6056:	48 8b 44 c7 08       	mov    0x8(%rdi,%rax,8),%rax
    605b:	48 0f a3 d0          	bt     %rdx,%rax
    605f:	0f 92 c0             	setb   %al
    6062:	c3                   	ret    
    6063:	31 c0                	xor    %eax,%eax
    6065:	c3                   	ret    
    6066:	66 2e 0f 1f 84 00 00 	cs nopw 0x0(%rax,%rax,1)
    606d:	00 00 00 

0000000000006070 <_ZN7Playout20do_playout_benchmarkER9GameState>:
    6070:	55                   	push   %rbp
    6071:	41 57                	push   %r15
    6073:	41 56                	push   %r14
    6075:	53                   	push   %rbx
    6076:	48 83 ec 18          	sub    $0x18,%rsp
    607a:	48 89 fb             	mov    %rdi,%rbx
    607d:	e8 5e 5c 00 00       	call   bce0 <_ZN9FastBoard13get_boardsizeEv>
    6082:	41 89 c6             	mov    %eax,%r14d
    6085:	45 0f af f6          	imul   %r14d,%r14d
    6089:	4d 69 fe 56 55 55 55 	imul   $0x55555556,%r14,%r15
    6090:	49 c1 ef 20          	shr    $0x20,%r15
    6094:	45 01 f6             	add    %r14d,%r14d
    6097:	48 8d 7c 24 0c       	lea    0xc(%rsp),%rdi
    609c:	e8 7f 59 00 00       	call   ba20 <_ZN4TimeC1Ev>
    60a1:	0f 57 c0             	xorps  %xmm0,%xmm0
    60a4:	f3 0f 11 44 24 04    	movss  %xmm0,0x4(%rsp)
    60aa:	31 ed                	xor    %ebp,%ebp
    60ac:	f3 0f 11 04 24       	movss  %xmm0,(%rsp)
    60b1:	eb 4d                	jmp    6100 <_ZN7Playout20do_playout_benchmarkER9GameState+0x90>
    60b3:	48 89 df             	mov    %rbx,%rdi
    60b6:	e8 75 56 01 00       	call   1b730 <_ZN9FastState11get_movenumEv>
    60bb:	0f 57 c0             	xorps  %xmm0,%xmm0
    60be:	f3 0f 2a c0          	cvtsi2ss %eax,%xmm0
    60c2:	f3 0f 10 4c 24 04    	movss  0x4(%rsp),%xmm1
    60c8:	f3 0f 58 c8          	addss  %xmm0,%xmm1
    60cc:	f3 0f 11 4c 24 04    	movss  %xmm1,0x4(%rsp)
    60d2:	48 89 df             	mov    %rbx,%rdi
    60d5:	e8 86 56 01 00       	call   1b760 <_ZN9FastState18calculate_mc_scoreEv>
    60da:	f3 0f 10 0c 24       	movss  (%rsp),%xmm1
    60df:	f3 0f 58 c8          	addss  %xmm0,%xmm1
    60e3:	f3 0f 11 0c 24       	movss  %xmm1,(%rsp)
    60e8:	48 89 df             	mov    %rbx,%rdi
    60eb:	e8 b0 1e 00 00       	call   7fa0 <_ZN9GameState10reset_gameEv>
    60f0:	ff c5                	inc    %ebp
    60f2:	81 fd a0 86 01 00    	cmp    $0x186a0,%ebp
    60f8:	74 41                	je     613b <_ZN7Playout20do_playout_benchmarkER9GameState+0xcb>
    60fa:	66 0f 1f 44 00 00    	nopw   0x0(%rax,%rax,1)
    6100:	48 89 df             	mov    %rbx,%rdi
    6103:	e8 c8 46 01 00       	call   1a7d0 <_ZN9FastState16play_random_moveEv>
    6108:	48 89 df             	mov    %rbx,%rdi
    610b:	e8 d0 54 01 00       	call   1b5e0 <_ZN9FastState10get_passesEv>
    6110:	83 f8 01             	cmp    $0x1,%eax
    6113:	7f 9e                	jg     60b3 <_ZN7Playout20do_playout_benchmarkER9GameState+0x43>
    6115:	48 89 df             	mov    %rbx,%rdi
    6118:	e8 13 56 01 00       	call   1b730 <_ZN9FastState11get_movenumEv>
    611d:	44 39 f0             	cmp    %r14d,%eax
    6120:	7d 91                	jge    60b3 <_ZN7Playout20do_playout_benchmarkER9GameState+0x43>
    6122:	48 89 df             	mov    %rbx,%rdi
    6125:	e8 16 56 01 00       	call   1b740 <_ZN9FastState17estimate_mc_scoreEv>
    612a:	89 c1                	mov    %eax,%ecx
    612c:	f7 d9                	neg    %ecx
    612e:	0f 48 c8             	cmovs  %eax,%ecx
    6131:	44 39 f9             	cmp    %r15d,%ecx
    6134:	72 ca                	jb     6100 <_ZN7Playout20do_playout_benchmarkER9GameState+0x90>
    6136:	e9 78 ff ff ff       	jmp    60b3 <_ZN7Playout20do_playout_benchmarkER9GameState+0x43>
    613b:	48 8d 7c 24 08       	lea    0x8(%rsp),%rdi
    6140:	e8 db 58 00 00       	call   ba20 <_ZN4TimeC1Ev>
    6145:	8b 7c 24 0c          	mov    0xc(%rsp),%edi
    6149:	8b 74 24 08          	mov    0x8(%rsp),%esi
    614d:	e8 be 58 00 00       	call   ba10 <_ZN4Time8timediffES_S_>
    6152:	0f 57 c0             	xorps  %xmm0,%xmm0
    6155:	f3 0f 2a c0          	cvtsi2ss %eax,%xmm0
    6159:	f3 0f 5a c0          	cvtss2sd %xmm0,%xmm0
    615d:	f2 0f 5e 05 db de 01 	divsd  0x1dedb(%rip),%xmm0        # 24040 <_IO_stdin_used+0x40>
    6164:	00 
    6165:	f2 0f 11 44 24 10    	movsd  %xmm0,0x10(%rsp)
    616b:	8b 7c 24 0c          	mov    0xc(%rsp),%edi
    616f:	8b 74 24 08          	mov    0x8(%rsp),%esi
    6173:	e8 98 58 00 00       	call   ba10 <_ZN4Time8timediffES_S_>
    6178:	0f 57 c0             	xorps  %xmm0,%xmm0
    617b:	f3 0f 2a c0          	cvtsi2ss %eax,%xmm0
    617f:	f3 0f 5a c0          	cvtss2sd %xmm0,%xmm0
    6183:	f2 0f 5e 05 b5 de 01 	divsd  0x1deb5(%rip),%xmm0        # 24040 <_IO_stdin_used+0x40>
    618a:	00 
    618b:	f2 0f 10 0d b5 de 01 	movsd  0x1deb5(%rip),%xmm1        # 24048 <_IO_stdin_used+0x48>
    6192:	00 
    6193:	f2 0f 5e c8          	divsd  %xmm0,%xmm1
    6197:	f2 0f 2c d1          	cvttsd2si %xmm1,%edx
    619b:	48 8d 3d ce de 01 00 	lea    0x1dece(%rip),%rdi        # 24070 <_IO_stdin_used+0x70>
    61a2:	be a0 86 01 00       	mov    $0x186a0,%esi
    61a7:	f2 0f 10 44 24 10    	movsd  0x10(%rsp),%xmm0
    61ad:	b0 01                	mov    $0x1,%al
    61af:	e8 ac 58 00 00       	call   ba60 <_ZN5Utils8myprintfEPKcz>
    61b4:	f3 0f 10 0d 94 de 01 	movss  0x1de94(%rip),%xmm1        # 24050 <_IO_stdin_used+0x50>
    61bb:	00 
    61bc:	f3 0f 10 44 24 04    	movss  0x4(%rsp),%xmm0
    61c2:	f3 0f 5e c1          	divss  %xmm1,%xmm0
    61c6:	f3 0f 5a c0          	cvtss2sd %xmm0,%xmm0
    61ca:	f3 0f 10 14 24       	movss  (%rsp),%xmm2
    61cf:	f3 0f 5e d1          	divss  %xmm1,%xmm2
    61d3:	0f 57 c9             	xorps  %xmm1,%xmm1
    61d6:	f3 0f 5a ca          	cvtss2sd %xmm2,%xmm1
    61da:	48 8d 3d b4 de 01 00 	lea    0x1deb4(%rip),%rdi        # 24095 <_IO_stdin_used+0x95>
    61e1:	b0 02                	mov    $0x2,%al
    61e3:	e8 78 58 00 00       	call   ba60 <_ZN5Utils8myprintfEPKcz>
    61e8:	48 83 c4 18          	add    $0x18,%rsp
    61ec:	5b                   	pop    %rbx
    61ed:	41 5e                	pop    %r14
    61ef:	41 5f                	pop    %r15
    61f1:	5d                   	pop    %rbp
    61f2:	c3                   	ret    
    61f3:	66 66 66 66 2e 0f 1f 	data16 data16 data16 cs nopw 0x0(%rax,%rax,1)
    61fa:	84 00 00 00 00 00 

0000000000006200 <_ZN7Playout8mc_ownerER9FastStatei>:
    6200:	55                   	push   %rbp
    6201:	41 57                	push   %r15
    6203:	41 56                	push   %r14
    6205:	41 55                	push   %r13
    6207:	41 54                	push   %r12
    6209:	53                   	push   %rbx
    620a:	48 81 ec 58 21 00 00 	sub    $0x2158,%rsp
    6211:	41 89 f7             	mov    %esi,%r15d
    6214:	48 89 fb             	mov    %rdi,%rbx
    6217:	e8 c4 5a 00 00       	call   bce0 <_ZN9FastBoard13get_boardsizeEv>
    621c:	45 85 ff             	test   %r15d,%r15d
    621f:	0f 8e 8b 01 00 00    	jle    63b0 <_ZN7Playout8mc_ownerER9FastStatei+0x1b0>
    6225:	4c 8d ac 24 e8 1f 00 	lea    0x1fe8(%rsp),%r13
    622c:	00 
    622d:	48 8d 83 78 1f 00 00 	lea    0x1f78(%rbx),%rax
    6234:	48 89 04 24          	mov    %rax,(%rsp)
    6238:	48 8d 83 88 1f 00 00 	lea    0x1f88(%rbx),%rax
    623f:	48 89 44 24 10       	mov    %rax,0x10(%rsp)
    6244:	45 31 e4             	xor    %r12d,%r12d
    6247:	44 89 7c 24 0c       	mov    %r15d,0xc(%rsp)
    624c:	eb 11                	jmp    625f <_ZN7Playout8mc_ownerER9FastStatei+0x5f>
    624e:	66 90                	xchg   %ax,%ax
    6250:	44 88 f5             	mov    %r14b,%bpl
    6253:	41 01 ec             	add    %ebp,%r12d
    6256:	41 ff cf             	dec    %r15d
    6259:	0f 84 45 01 00 00    	je     63a4 <_ZN7Playout8mc_ownerER9FastStatei+0x1a4>
    625f:	ba 58 1f 00 00       	mov    $0x1f58,%edx
    6264:	48 8d bc 24 90 00 00 	lea    0x90(%rsp),%rdi
    626b:	00 
    626c:	48 89 de             	mov    %rbx,%rsi
    626f:	e8 7c cf ff ff       	call   31f0 <memcpy@plt>
    6274:	4c 8b b3 58 1f 00 00 	mov    0x1f58(%rbx),%r14
    627b:	48 8b ab 60 1f 00 00 	mov    0x1f60(%rbx),%rbp
    6282:	0f 57 c0             	xorps  %xmm0,%xmm0
    6285:	41 0f 11 45 00       	movups %xmm0,0x0(%r13)
    628a:	49 c7 45 10 00 00 00 	movq   $0x0,0x10(%r13)
    6291:	00 
    6292:	4c 29 f5             	sub    %r14,%rbp
    6295:	74 49                	je     62e0 <_ZN7Playout8mc_ownerER9FastStatei+0xe0>
    6297:	48 b8 fd ff ff ff ff 	movabs $0x7ffffffffffffffd,%rax
    629e:	ff ff 7f 
    62a1:	48 39 c5             	cmp    %rax,%rbp
    62a4:	0f 83 4c 01 00 00    	jae    63f6 <_ZN7Playout8mc_ownerER9FastStatei+0x1f6>
    62aa:	48 89 ef             	mov    %rbp,%rdi
    62ad:	e8 7e cf ff ff       	call   3230 <_Znwm@plt>
    62b2:	49 89 c5             	mov    %rax,%r13
    62b5:	48 89 84 24 e8 1f 00 	mov    %rax,0x1fe8(%rsp)
    62bc:	00 
    62bd:	48 89 84 24 f0 1f 00 	mov    %rax,0x1ff0(%rsp)
    62c4:	00 
    62c5:	48 01 e8             	add    %rbp,%rax
    62c8:	48 89 84 24 f8 1f 00 	mov    %rax,0x1ff8(%rsp)
    62cf:	00 
    62d0:	4c 89 ef             	mov    %r13,%rdi
    62d3:	4c 89 f6             	mov    %r14,%rsi
    62d6:	48 89 ea             	mov    %rbp,%rdx
    62d9:	e8 d2 d0 ff ff       	call   33b0 <memmove@plt>
    62de:	eb 17                	jmp    62f7 <_ZN7Playout8mc_ownerER9FastStatei+0xf7>
    62e0:	48 c7 84 24 e8 1f 00 	movq   $0x0,0x1fe8(%rsp)
    62e7:	00 00 00 00 00 
    62ec:	48 89 ac 24 f8 1f 00 	mov    %rbp,0x1ff8(%rsp)
    62f3:	00 
    62f4:	45 31 ed             	xor    %r13d,%r13d
    62f7:	49 01 ed             	add    %rbp,%r13
    62fa:	4c 89 ac 24 f0 1f 00 	mov    %r13,0x1ff0(%rsp)
    6301:	00 
    6302:	8b 83 70 1f 00 00    	mov    0x1f70(%rbx),%eax
    6308:	89 84 24 00 20 00 00 	mov    %eax,0x2000(%rsp)
    630f:	48 8b 04 24          	mov    (%rsp),%rax
    6313:	0f 10 00             	movups (%rax),%xmm0
    6316:	4c 8d ac 24 e8 1f 00 	lea    0x1fe8(%rsp),%r13
    631d:	00 
    631e:	41 0f 11 45 20       	movups %xmm0,0x20(%r13)
    6323:	ba 3c 01 00 00       	mov    $0x13c,%edx
    6328:	48 8d bc 24 18 20 00 	lea    0x2018(%rsp),%rdi
    632f:	00 
    6330:	48 8b 74 24 10       	mov    0x10(%rsp),%rsi
    6335:	e8 b6 ce ff ff       	call   31f0 <memcpy@plt>
    633a:	c6 44 24 18 00       	movb   $0x0,0x18(%rsp)
    633f:	48 8d 44 24 20       	lea    0x20(%rsp),%rax
    6344:	0f 57 c0             	xorps  %xmm0,%xmm0
    6347:	0f 11 40 60          	movups %xmm0,0x60(%rax)
    634b:	0f 11 40 50          	movups %xmm0,0x50(%rax)
    634f:	0f 11 40 40          	movups %xmm0,0x40(%rax)
    6353:	0f 11 40 30          	movups %xmm0,0x30(%rax)
    6357:	0f 11 40 20          	movups %xmm0,0x20(%rax)
    635b:	0f 11 40 10          	movups %xmm0,0x10(%rax)
    635f:	0f 11 00             	movups %xmm0,(%rax)
    6362:	48 8d 7c 24 18       	lea    0x18(%rsp),%rdi
    6367:	48 8d b4 24 90 00 00 	lea    0x90(%rsp),%rsi
    636e:	00 
    636f:	31 d2                	xor    %edx,%edx
    6371:	e8 4a fa ff ff       	call   5dc0 <_ZN7Playout3runER9FastStateb>
    6376:	f3 0f 10 44 24 1c    	movss  0x1c(%rsp),%xmm0
    637c:	31 ed                	xor    %ebp,%ebp
    637e:	0f 2e 05 d3 dc 01 00 	ucomiss 0x1dcd3(%rip),%xmm0        # 24058 <_IO_stdin_used+0x58>
    6385:	41 0f 97 c6          	seta   %r14b
    6389:	48 8b bc 24 e8 1f 00 	mov    0x1fe8(%rsp),%rdi
    6390:	00 
    6391:	48 85 ff             	test   %rdi,%rdi
    6394:	0f 84 b6 fe ff ff    	je     6250 <_ZN7Playout8mc_ownerER9FastStatei+0x50>
    639a:	e8 81 ce ff ff       	call   3220 <_ZdlPv@plt>
    639f:	e9 ac fe ff ff       	jmp    6250 <_ZN7Playout8mc_ownerER9FastStatei+0x50>
    63a4:	f3 41 0f 2a cc       	cvtsi2ss %r12d,%xmm1
    63a9:	44 8b 7c 24 0c       	mov    0xc(%rsp),%r15d
    63ae:	eb 03                	jmp    63b3 <_ZN7Playout8mc_ownerER9FastStatei+0x1b3>
    63b0:	0f 57 c9             	xorps  %xmm1,%xmm1
    63b3:	0f 57 c0             	xorps  %xmm0,%xmm0
    63b6:	f3 41 0f 2a c7       	cvtsi2ss %r15d,%xmm0
    63bb:	f3 0f 5e c8          	divss  %xmm0,%xmm1
    63bf:	f3 0f 11 0c 24       	movss  %xmm1,(%rsp)
    63c4:	48 89 df             	mov    %rbx,%rdi
    63c7:	e8 f4 53 01 00       	call   1b7c0 <_ZN9FastState11get_to_moveEv>
    63cc:	85 c0                	test   %eax,%eax
    63ce:	74 0f                	je     63df <_ZN7Playout8mc_ownerER9FastStatei+0x1df>
    63d0:	f3 0f 10 05 7c dc 01 	movss  0x1dc7c(%rip),%xmm0        # 24054 <_IO_stdin_used+0x54>
    63d7:	00 
    63d8:	f3 0f 5c 04 24       	subss  (%rsp),%xmm0
    63dd:	eb 05                	jmp    63e4 <_ZN7Playout8mc_ownerER9FastStatei+0x1e4>
    63df:	f3 0f 10 04 24       	movss  (%rsp),%xmm0
    63e4:	48 81 c4 58 21 00 00 	add    $0x2158,%rsp
    63eb:	5b                   	pop    %rbx
    63ec:	41 5c                	pop    %r12
    63ee:	41 5d                	pop    %r13
    63f0:	41 5e                	pop    %r14
    63f2:	41 5f                	pop    %r15
    63f4:	5d                   	pop    %rbp
    63f5:	c3                   	ret    
    63f6:	e8 e5 cd ff ff       	call   31e0 <_ZSt28__throw_bad_array_new_lengthv@plt>
    63fb:	48 89 c3             	mov    %rax,%rbx
    63fe:	48 8b bc 24 e8 1f 00 	mov    0x1fe8(%rsp),%rdi
    6405:	00 
    6406:	48 85 ff             	test   %rdi,%rdi
    6409:	74 05                	je     6410 <_ZN7Playout8mc_ownerER9FastStatei+0x210>
    640b:	e8 10 ce ff ff       	call   3220 <_ZdlPv@plt>
    6410:	48 89 df             	mov    %rbx,%rdi
    6413:	e8 08 d0 ff ff       	call   3420 <_Unwind_Resume@plt>
    6418:	0f 1f 84 00 00 00 00 	nopl   0x0(%rax,%rax,1)
    641f:	00 

0000000000006420 <_ZN11TimeControlC1Eiiii>:
    6420:	41 56                	push   %r14
    6422:	53                   	push   %rbx
    6423:	50                   	push   %rax
    6424:	89 f3                	mov    %esi,%ebx
    6426:	49 89 fe             	mov    %rdi,%r14
    6429:	89 17                	mov    %edx,(%rdi)
    642b:	89 4f 04             	mov    %ecx,0x4(%rdi)
    642e:	44 89 47 08          	mov    %r8d,0x8(%rdi)
    6432:	48 83 c7 24          	add    $0x24,%rdi
    6436:	e8 e5 55 00 00       	call   ba20 <_ZN4TimeC1Ev>
    643b:	49 8d 7e 28          	lea    0x28(%r14),%rdi
    643f:	e8 dc 55 00 00       	call   ba20 <_ZN4TimeC1Ev>
    6444:	41 8b 06             	mov    (%r14),%eax
    6447:	41 8b 4e 08          	mov    0x8(%r14),%ecx
    644b:	41 89 46 10          	mov    %eax,0x10(%r14)
    644f:	41 89 46 14          	mov    %eax,0x14(%r14)
    6453:	41 89 4e 18          	mov    %ecx,0x18(%r14)
    6457:	41 89 4e 1c          	mov    %ecx,0x1c(%r14)
    645b:	66 41 c7 46 20 00 00 	movw   $0x0,0x20(%r14)
    6462:	0f af db             	imul   %ebx,%ebx
    6465:	c1 eb 02             	shr    $0x2,%ebx
    6468:	41 89 5e 0c          	mov    %ebx,0xc(%r14)
    646c:	48 83 c4 08          	add    $0x8,%rsp
    6470:	5b                   	pop    %rbx
    6471:	41 5e                	pop    %r14
    6473:	c3                   	ret    
    6474:	66 66 66 2e 0f 1f 84 	data16 data16 cs nopw 0x0(%rax,%rax,1)
    647b:	00 00 00 00 00 

0000000000006480 <_ZN11TimeControl13set_boardsizeEi>:
    6480:	0f af f6             	imul   %esi,%esi
    6483:	c1 ee 02             	shr    $0x2,%esi
    6486:	89 77 0c             	mov    %esi,0xc(%rdi)
    6489:	c3                   	ret    
    648a:	66 0f 1f 44 00 00    	nopw   0x0(%rax,%rax,1)

0000000000006490 <_ZN11TimeControl5startEi>:
    6490:	41 56                	push   %r14
    6492:	53                   	push   %rbx
    6493:	50                   	push   %rax
    6494:	89 f3                	mov    %esi,%ebx
    6496:	49 89 fe             	mov    %rdi,%r14
    6499:	48 8d 7c 24 04       	lea    0x4(%rsp),%rdi
    649e:	e8 7d 55 00 00       	call   ba20 <_ZN4TimeC1Ev>
    64a3:	48 63 c3             	movslq %ebx,%rax
    64a6:	8b 4c 24 04          	mov    0x4(%rsp),%ecx
    64aa:	41 89 4c 86 24       	mov    %ecx,0x24(%r14,%rax,4)
    64af:	48 83 c4 08          	add    $0x8,%rsp
    64b3:	5b                   	pop    %rbx
    64b4:	41 5e                	pop    %r14
    64b6:	c3                   	ret    
    64b7:	66 0f 1f 84 00 00 00 	nopw   0x0(%rax,%rax,1)
    64be:	00 00 

00000000000064c0 <_ZN11TimeControl4stopEi>:
    64c0:	55                   	push   %rbp
    64c1:	41 56                	push   %r14
    64c3:	53                   	push   %rbx
    64c4:	48 83 ec 10          	sub    $0x10,%rsp
    64c8:	89 f5                	mov    %esi,%ebp
    64ca:	48 89 fb             	mov    %rdi,%rbx
    64cd:	48 8d 7c 24 0c       	lea    0xc(%rsp),%rdi
    64d2:	e8 49 55 00 00       	call   ba20 <_ZN4TimeC1Ev>
    64d7:	4c 63 f5             	movslq %ebp,%r14
    64da:	42 8b 7c b3 24       	mov    0x24(%rbx,%r14,4),%edi
    64df:	8b 74 24 0c          	mov    0xc(%rsp),%esi
    64e3:	e8 28 55 00 00       	call   ba10 <_ZN4Time8timediffES_S_>
    64e8:	42 8b 4c b3 10       	mov    0x10(%rbx,%r14,4),%ecx
    64ed:	29 c1                	sub    %eax,%ecx
    64ef:	42 89 4c b3 10       	mov    %ecx,0x10(%rbx,%r14,4)
    64f4:	42 80 7c 33 20 00    	cmpb   $0x0,0x20(%rbx,%r14,1)
    64fa:	74 24                	je     6520 <_ZN11TimeControl4stopEi+0x60>
    64fc:	42 8b 44 b3 18       	mov    0x18(%rbx,%r14,4),%eax
    6501:	8d 48 ff             	lea    -0x1(%rax),%ecx
    6504:	42 89 4c b3 18       	mov    %ecx,0x18(%rbx,%r14,4)
    6509:	83 f8 01             	cmp    $0x1,%eax
    650c:	7f 2c                	jg     653a <_ZN11TimeControl4stopEi+0x7a>
    650e:	8b 43 04             	mov    0x4(%rbx),%eax
    6511:	42 89 44 b3 10       	mov    %eax,0x10(%rbx,%r14,4)
    6516:	8b 43 08             	mov    0x8(%rbx),%eax
    6519:	42 89 44 b3 18       	mov    %eax,0x18(%rbx,%r14,4)
    651e:	eb 1a                	jmp    653a <_ZN11TimeControl4stopEi+0x7a>
    6520:	85 c9                	test   %ecx,%ecx
    6522:	7f 16                	jg     653a <_ZN11TimeControl4stopEi+0x7a>
    6524:	8b 43 04             	mov    0x4(%rbx),%eax
    6527:	42 89 44 b3 10       	mov    %eax,0x10(%rbx,%r14,4)
    652c:	8b 43 08             	mov    0x8(%rbx),%eax
    652f:	42 89 44 b3 18       	mov    %eax,0x18(%rbx,%r14,4)
    6534:	42 c6 44 33 20 01    	movb   $0x1,0x20(%rbx,%r14,1)
    653a:	48 83 c4 10          	add    $0x10,%rsp
    653e:	5b                   	pop    %rbx
    653f:	41 5e                	pop    %r14
    6541:	5d                   	pop    %rbp
    6542:	c3                   	ret    
    6543:	66 66 66 66 2e 0f 1f 	data16 data16 data16 cs nopw 0x0(%rax,%rax,1)
    654a:	84 00 00 00 00 00 

0000000000006550 <_ZN11TimeControl12time_forfeitEi>:
    6550:	48 63 c6             	movslq %esi,%rax
    6553:	80 7c 07 20 00       	cmpb   $0x0,0x20(%rdi,%rax,1)
    6558:	74 07                	je     6561 <_ZN11TimeControl12time_forfeitEi+0x11>
    655a:	83 7c 87 10 00       	cmpl   $0x0,0x10(%rdi,%rax,4)
    655f:	78 03                	js     6564 <_ZN11TimeControl12time_forfeitEi+0x14>
    6561:	31 c0                	xor    %eax,%eax
    6563:	c3                   	ret    
    6564:	b0 01                	mov    $0x1,%al
    6566:	c3                   	ret    
    6567:	66 0f 1f 84 00 00 00 	nopw   0x0(%rax,%rax,1)
    656e:	00 00 

0000000000006570 <_ZN11TimeControl13display_timesEv>:
    6570:	53                   	push   %rbx
    6571:	48 89 fb             	mov    %rdi,%rbx
    6574:	48 63 47 10          	movslq 0x10(%rdi),%rax
    6578:	48 69 c8 1f 85 eb 51 	imul   $0x51eb851f,%rax,%rcx
    657f:	48 89 ca             	mov    %rcx,%rdx
    6582:	48 c1 ea 3f          	shr    $0x3f,%rdx
    6586:	48 c1 e9 20          	shr    $0x20,%rcx
    658a:	c1 f9 05             	sar    $0x5,%ecx
    658d:	01 d1                	add    %edx,%ecx
    658f:	48 69 f0 ef ed 34 5d 	imul   $0x5d34edef,%rax,%rsi
    6596:	48 89 f0             	mov    %rsi,%rax
    6599:	48 c1 e8 3f          	shr    $0x3f,%rax
    659d:	48 c1 ee 20          	shr    $0x20,%rsi
    65a1:	c1 fe 11             	sar    $0x11,%esi
    65a4:	01 c6                	add    %eax,%esi
    65a6:	48 63 c1             	movslq %ecx,%rax
    65a9:	48 69 c8 c5 b3 a2 91 	imul   $0xffffffff91a2b3c5,%rax,%rcx
    65b0:	48 c1 e9 20          	shr    $0x20,%rcx
    65b4:	01 c1                	add    %eax,%ecx
    65b6:	89 ca                	mov    %ecx,%edx
    65b8:	c1 ea 1f             	shr    $0x1f,%edx
    65bb:	c1 f9 0b             	sar    $0xb,%ecx
    65be:	01 d1                	add    %edx,%ecx
    65c0:	69 c9 10 0e 00 00    	imul   $0xe10,%ecx,%ecx
    65c6:	29 c8                	sub    %ecx,%eax
    65c8:	0f bf c8             	movswl %ax,%ecx
    65cb:	69 c9 89 88 ff ff    	imul   $0xffff8889,%ecx,%ecx
    65d1:	c1 e9 10             	shr    $0x10,%ecx
    65d4:	01 c1                	add    %eax,%ecx
    65d6:	0f b7 c9             	movzwl %cx,%ecx
    65d9:	0f bf f9             	movswl %cx,%edi
    65dc:	c1 e9 0f             	shr    $0xf,%ecx
    65df:	c1 ff 05             	sar    $0x5,%edi
    65e2:	01 cf                	add    %ecx,%edi
    65e4:	0f bf d7             	movswl %di,%edx
    65e7:	6b cf 3c             	imul   $0x3c,%edi,%ecx
    65ea:	29 c8                	sub    %ecx,%eax
    65ec:	0f bf c8             	movswl %ax,%ecx
    65ef:	48 8d 3d b9 da 01 00 	lea    0x1dab9(%rip),%rdi        # 240af <_IO_stdin_used+0xaf>
    65f6:	31 c0                	xor    %eax,%eax
    65f8:	e8 63 54 00 00       	call   ba60 <_ZN5Utils8myprintfEPKcz>
    65fd:	80 7b 20 00          	cmpb   $0x0,0x20(%rbx)
    6601:	74 11                	je     6614 <_ZN11TimeControl13display_timesEv+0xa4>
    6603:	8b 73 18             	mov    0x18(%rbx),%esi
    6606:	48 8d 3d bd da 01 00 	lea    0x1dabd(%rip),%rdi        # 240ca <_IO_stdin_used+0xca>
    660d:	31 c0                	xor    %eax,%eax
    660f:	e8 4c 54 00 00       	call   ba60 <_ZN5Utils8myprintfEPKcz>
    6614:	48 8d 3d 02 da 01 00 	lea    0x1da02(%rip),%rdi        # 2401d <_IO_stdin_used+0x1d>
    661b:	31 c0                	xor    %eax,%eax
    661d:	e8 3e 54 00 00       	call   ba60 <_ZN5Utils8myprintfEPKcz>
    6622:	48 63 43 14          	movslq 0x14(%rbx),%rax
    6626:	48 69 c8 1f 85 eb 51 	imul   $0x51eb851f,%rax,%rcx
    662d:	48 89 ca             	mov    %rcx,%rdx
    6630:	48 c1 ea 3f          	shr    $0x3f,%rdx
    6634:	48 c1 e9 20          	shr    $0x20,%rcx
    6638:	c1 f9 05             	sar    $0x5,%ecx
    663b:	01 d1                	add    %edx,%ecx
    663d:	48 69 f0 ef ed 34 5d 	imul   $0x5d34edef,%rax,%rsi
    6644:	48 89 f0             	mov    %rsi,%rax
    6647:	48 c1 e8 3f          	shr    $0x3f,%rax
    664b:	48 c1 ee 20          	shr    $0x20,%rsi
    664f:	c1 fe 11             	sar    $0x11,%esi
    6652:	01 c6                	add    %eax,%esi
    6654:	48 63 c1             	movslq %ecx,%rax
    6657:	48 69 c8 c5 b3 a2 91 	imul   $0xffffffff91a2b3c5,%rax,%rcx
    665e:	48 c1 e9 20          	shr    $0x20,%rcx
    6662:	01 c1                	add    %eax,%ecx
    6664:	89 ca                	mov    %ecx,%edx
    6666:	c1 ea 1f             	shr    $0x1f,%edx
    6669:	c1 f9 0b             	sar    $0xb,%ecx
    666c:	01 d1                	add    %edx,%ecx
    666e:	69 c9 10 0e 00 00    	imul   $0xe10,%ecx,%ecx
    6674:	29 c8                	sub    %ecx,%eax
    6676:	0f bf c8             	movswl %ax,%ecx
    6679:	69 c9 89 88 ff ff    	imul   $0xffff8889,%ecx,%ecx
    667f:	c1 e9 10             	shr    $0x10,%ecx
    6682:	01 c1                	add    %eax,%ecx
    6684:	0f b7 c9             	movzwl %cx,%ecx
    6687:	0f bf f9             	movswl %cx,%edi
    668a:	c1 e9 0f             	shr    $0xf,%ecx
    668d:	c1 ff 05             	sar    $0x5,%edi
    6690:	01 cf                	add    %ecx,%edi
    6692:	0f bf d7             	movswl %di,%edx
    6695:	6b cf 3c             	imul   $0x3c,%edi,%ecx
    6698:	29 c8                	sub    %ecx,%eax
    669a:	0f bf c8             	movswl %ax,%ecx
    669d:	48 8d 3d 37 da 01 00 	lea    0x1da37(%rip),%rdi        # 240db <_IO_stdin_used+0xdb>
    66a4:	31 c0                	xor    %eax,%eax
    66a6:	e8 b5 53 00 00       	call   ba60 <_ZN5Utils8myprintfEPKcz>
    66ab:	80 7b 21 00          	cmpb   $0x0,0x21(%rbx)
    66af:	74 11                	je     66c2 <_ZN11TimeControl13display_timesEv+0x152>
    66b1:	8b 73 1c             	mov    0x1c(%rbx),%esi
    66b4:	48 8d 3d 0f da 01 00 	lea    0x1da0f(%rip),%rdi        # 240ca <_IO_stdin_used+0xca>
    66bb:	31 c0                	xor    %eax,%eax
    66bd:	e8 9e 53 00 00       	call   ba60 <_ZN5Utils8myprintfEPKcz>
    66c2:	48 8d 1d 54 d9 01 00 	lea    0x1d954(%rip),%rbx        # 2401d <_IO_stdin_used+0x1d>
    66c9:	48 89 df             	mov    %rbx,%rdi
    66cc:	31 c0                	xor    %eax,%eax
    66ce:	e8 8d 53 00 00       	call   ba60 <_ZN5Utils8myprintfEPKcz>
    66d3:	48 89 df             	mov    %rbx,%rdi
    66d6:	31 c0                	xor    %eax,%eax
    66d8:	5b                   	pop    %rbx
    66d9:	e9 82 53 00 00       	jmp    ba60 <_ZN5Utils8myprintfEPKcz>
    66de:	66 90                	xchg   %ax,%ax

00000000000066e0 <_ZN11TimeControl17max_time_for_moveEi>:
    66e0:	8b 47 04             	mov    0x4(%rdi),%eax
    66e3:	85 c0                	test   %eax,%eax
    66e5:	74 1e                	je     6705 <_ZN11TimeControl17max_time_for_moveEi+0x25>
    66e7:	8b 4f 08             	mov    0x8(%rdi),%ecx
    66ea:	85 c9                	test   %ecx,%ecx
    66ec:	74 34                	je     6722 <_ZN11TimeControl17max_time_for_moveEi+0x42>
    66ee:	48 63 f6             	movslq %esi,%rsi
    66f1:	80 7c 37 20 00       	cmpb   $0x0,0x20(%rdi,%rsi,1)
    66f6:	74 30                	je     6728 <_ZN11TimeControl17max_time_for_moveEi+0x48>
    66f8:	b8 0c fe ff ff       	mov    $0xfffffe0c,%eax
    66fd:	03 44 b7 10          	add    0x10(%rdi,%rsi,4),%eax
    6701:	99                   	cltd   
    6702:	f7 f9                	idiv   %ecx
    6704:	c3                   	ret    
    6705:	48 63 ce             	movslq %esi,%rcx
    6708:	b8 0c fe ff ff       	mov    $0xfffffe0c,%eax
    670d:	03 44 8f 10          	add    0x10(%rdi,%rcx,4),%eax
    6711:	99                   	cltd   
    6712:	f7 7f 0c             	idivl  0xc(%rdi)
    6715:	8d 0c 40             	lea    (%rax,%rax,2),%ecx
    6718:	89 c8                	mov    %ecx,%eax
    671a:	c1 e8 1f             	shr    $0x1f,%eax
    671d:	01 c8                	add    %ecx,%eax
    671f:	d1 f8                	sar    %eax
    6721:	c3                   	ret    
    6722:	b8 00 ea f6 0f       	mov    $0xff6ea00,%eax
    6727:	c3                   	ret    
    6728:	99                   	cltd   
    6729:	f7 f9                	idiv   %ecx
    672b:	8b 4c b7 10          	mov    0x10(%rdi,%rsi,4),%ecx
    672f:	01 c8                	add    %ecx,%eax
    6731:	05 0c fe ff ff       	add    $0xfffffe0c,%eax
    6736:	99                   	cltd   
    6737:	f7 7f 0c             	idivl  0xc(%rdi)
    673a:	c3                   	ret    
    673b:	0f 1f 44 00 00       	nopl   0x0(%rax,%rax,1)

0000000000006740 <_ZN11TimeControl11adjust_timeEiii>:
    6740:	48 63 c6             	movslq %esi,%rax
    6743:	89 54 87 10          	mov    %edx,0x10(%rdi,%rax,4)
    6747:	89 4c 87 18          	mov    %ecx,0x18(%rdi,%rax,4)
    674b:	c3                   	ret    
    674c:	0f 1f 40 00          	nopl   0x0(%rax)

0000000000006750 <_ZN11TimeControl12get_maintimeEv>:
    6750:	48 63 07             	movslq (%rdi),%rax
    6753:	48 69 c0 1f 85 eb 51 	imul   $0x51eb851f,%rax,%rax
    675a:	48 89 c1             	mov    %rax,%rcx
    675d:	48 c1 e9 3f          	shr    $0x3f,%rcx
    6761:	48 c1 f8 25          	sar    $0x25,%rax
    6765:	01 c8                	add    %ecx,%eax
    6767:	c3                   	ret    
    6768:	0f 1f 84 00 00 00 00 	nopl   0x0(%rax,%rax,1)
    676f:	00 

0000000000006770 <_ZN11TimeControl18get_remaining_timeEi>:
    6770:	48 63 c6             	movslq %esi,%rax
    6773:	8b 44 87 10          	mov    0x10(%rdi,%rax,4),%eax
    6777:	c3                   	ret    
    6778:	0f 1f 84 00 00 00 00 	nopl   0x0(%rax,%rax,1)
    677f:	00 

0000000000006780 <_ZN9UCTSearchC1ER9GameState>:
    6780:	41 56                	push   %r14
    6782:	53                   	push   %rbx
    6783:	50                   	push   %rax
    6784:	48 89 fb             	mov    %rdi,%rbx
    6787:	48 89 37             	mov    %rsi,(%rdi)
    678a:	4c 8d 77 08          	lea    0x8(%rdi),%r14
    678e:	48 89 f7             	mov    %rsi,%rdi
    6791:	e8 2a 50 01 00       	call   1b7c0 <_ZN9FastState11get_to_moveEv>
    6796:	4c 89 f7             	mov    %r14,%rdi
    6799:	89 c6                	mov    %eax,%esi
    679b:	ba ff ff ff ff       	mov    $0xffffffff,%edx
    67a0:	e8 4b 9e 01 00       	call   205f0 <_ZN7UCTNodeC1Eii>
    67a5:	48 b8 00 00 00 00 00 	movabs $0x1dcd650000000000,%rax
    67ac:	65 cd 1d 
    67af:	48 89 43 40          	mov    %rax,0x40(%rbx)
    67b3:	c7 43 48 00 00 00 00 	movl   $0x0,0x48(%rbx)
    67ba:	c6 43 4d 00          	movb   $0x0,0x4d(%rbx)
    67be:	48 c7 43 50 00 00 00 	movq   $0x0,0x50(%rbx)
    67c5:	00 
    67c6:	c6 43 58 00          	movb   $0x0,0x58(%rbx)
    67ca:	48 83 c4 08          	add    $0x8,%rsp
    67ce:	5b                   	pop    %rbx
    67cf:	41 5e                	pop    %r14
    67d1:	c3                   	ret    
    67d2:	66 66 66 66 66 2e 0f 	data16 data16 data16 data16 cs nopw 0x0(%rax,%rax,1)
    67d9:	1f 84 00 00 00 00 00 

00000000000067e0 <_ZN9UCTSearch11set_runflagEPb>:
    67e0:	48 89 77 50          	mov    %rsi,0x50(%rdi)
    67e4:	c6 47 4d 01          	movb   $0x1,0x4d(%rdi)
    67e8:	c3                   	ret    
    67e9:	0f 1f 80 00 00 00 00 	nopl   0x0(%rax)

00000000000067f0 <_ZN9UCTSearch15play_simulationER7KoStateP7UCTNode>:
    67f0:	55                   	push   %rbp
    67f1:	41 57                	push   %r15
    67f3:	41 56                	push   %r14
    67f5:	41 55                	push   %r13
    67f7:	41 54                	push   %r12
    67f9:	53                   	push   %rbx
    67fa:	48 81 ec 88 00 00 00 	sub    $0x88,%rsp
    6801:	48 89 cb             	mov    %rcx,%rbx
    6804:	49 89 d4             	mov    %rdx,%r12
    6807:	49 89 f5             	mov    %rsi,%r13
    680a:	49 89 fe             	mov    %rdi,%r14
    680d:	48 89 d7             	mov    %rdx,%rdi
    6810:	e8 ab 4f 01 00       	call   1b7c0 <_ZN9FastState11get_to_moveEv>
    6815:	89 c5                	mov    %eax,%ebp
    6817:	4c 89 e7             	mov    %r12,%rdi
    681a:	e8 81 da ff ff       	call   42a0 <_ZN9FullBoard8get_hashEv>
    681f:	49 89 c7             	mov    %rax,%r15
    6822:	4c 89 f7             	mov    %r14,%rdi
    6825:	e8 46 f5 ff ff       	call   5d70 <_ZN7PlayoutC1Ev>
    682a:	e8 f1 36 01 00       	call   19f20 <_ZN6TTable6get_TTEv>
    682f:	48 89 c7             	mov    %rax,%rdi
    6832:	4c 89 fe             	mov    %r15,%rsi
    6835:	48 89 da             	mov    %rbx,%rdx
    6838:	e8 d3 38 01 00       	call   1a110 <_ZN6TTable4syncEyP7UCTNode>
    683d:	48 89 df             	mov    %rbx,%rdi
    6840:	e8 7b a2 01 00       	call   20ac0 <_ZNK7UCTNode12has_childrenEv>
    6845:	84 c0                	test   %al,%al
    6847:	74 6e                	je     68b7 <_ZN9UCTSearch15play_simulationER7KoStateP7UCTNode+0xc7>
    6849:	48 89 df             	mov    %rbx,%rdi
    684c:	e8 6f a2 01 00       	call   20ac0 <_ZNK7UCTNode12has_childrenEv>
    6851:	84 c0                	test   %al,%al
    6853:	0f 84 b0 00 00 00    	je     6909 <_ZN9UCTSearch15play_simulationER7KoStateP7UCTNode+0x119>
    6859:	48 89 df             	mov    %rbx,%rdi
    685c:	89 6c 24 08          	mov    %ebp,0x8(%rsp)
    6860:	89 ee                	mov    %ebp,%esi
    6862:	e8 99 a5 01 00       	call   20e00 <_ZN7UCTNode16uct_select_childEi>
    6867:	48 85 c0             	test   %rax,%rax
    686a:	74 36                	je     68a2 <_ZN9UCTSearch15play_simulationER7KoStateP7UCTNode+0xb2>
    686c:	48 89 c5             	mov    %rax,%rbp
    686f:	48 89 c7             	mov    %rax,%rdi
    6872:	e8 59 a3 01 00       	call   20bd0 <_ZNK7UCTNode8get_moveEv>
    6877:	4c 89 e7             	mov    %r12,%rdi
    687a:	83 f8 ff             	cmp    $0xffffffff,%eax
    687d:	0f 84 d2 00 00 00    	je     6955 <_ZN9UCTSearch15play_simulationER7KoStateP7UCTNode+0x165>
    6883:	89 c6                	mov    %eax,%esi
    6885:	e8 f6 e8 ff ff       	call   5180 <_ZN7KoState9play_moveEi>
    688a:	4c 89 e7             	mov    %r12,%rdi
    688d:	e8 fe e8 ff ff       	call   5190 <_ZN7KoState7superkoEv>
    6892:	84 c0                	test   %al,%al
    6894:	0f 84 c0 00 00 00    	je     695a <_ZN9UCTSearch15play_simulationER7KoStateP7UCTNode+0x16a>
    689a:	48 89 ef             	mov    %rbp,%rdi
    689d:	e8 ce ab 01 00       	call   21470 <_ZN7UCTNode10invalidateEv>
    68a2:	4c 89 f7             	mov    %r14,%rdi
    68a5:	4c 89 e6             	mov    %r12,%rsi
    68a8:	ba 01 00 00 00       	mov    $0x1,%edx
    68ad:	e8 0e f5 ff ff       	call   5dc0 <_ZN7Playout3runER9FastStateb>
    68b2:	e9 07 01 00 00       	jmp    69be <_ZN9UCTSearch15play_simulationER7KoStateP7UCTNode+0x1ce>
    68b7:	4c 89 6c 24 08       	mov    %r13,0x8(%rsp)
    68bc:	4d 89 fd             	mov    %r15,%r13
    68bf:	41 89 ef             	mov    %ebp,%r15d
    68c2:	48 89 df             	mov    %rbx,%rdi
    68c5:	e8 f6 a4 01 00       	call   20dc0 <_ZNK7UCTNode10get_visitsEv>
    68ca:	89 c5                	mov    %eax,%ebp
    68cc:	48 89 df             	mov    %rbx,%rdi
    68cf:	e8 1c a5 01 00       	call   20df0 <_ZNK7UCTNode9do_extendEv>
    68d4:	39 c5                	cmp    %eax,%ebp
    68d6:	7e 50                	jle    6928 <_ZN9UCTSearch15play_simulationER7KoStateP7UCTNode+0x138>
    68d8:	48 8b 44 24 08       	mov    0x8(%rsp),%rax
    68dd:	81 78 40 3f 4b 4c 00 	cmpl   $0x4c4b3f,0x40(%rax)
    68e4:	44 89 fd             	mov    %r15d,%ebp
    68e7:	4d 89 ef             	mov    %r13,%r15
    68ea:	49 89 c5             	mov    %rax,%r13
    68ed:	0f 8f 56 ff ff ff    	jg     6849 <_ZN9UCTSearch15play_simulationER7KoStateP7UCTNode+0x59>
    68f3:	48 89 df             	mov    %rbx,%rdi
    68f6:	4c 89 e6             	mov    %r12,%rsi
    68f9:	31 d2                	xor    %edx,%edx
    68fb:	e8 d0 9d 01 00       	call   206d0 <_ZN7UCTNode15create_childrenER9FastStateb>
    6900:	41 01 45 40          	add    %eax,0x40(%r13)
    6904:	e9 40 ff ff ff       	jmp    6849 <_ZN9UCTSearch15play_simulationER7KoStateP7UCTNode+0x59>
    6909:	41 81 7d 40 40 4b 4c 	cmpl   $0x4c4b40,0x40(%r13)
    6910:	00 
    6911:	7c 30                	jl     6943 <_ZN9UCTSearch15play_simulationER7KoStateP7UCTNode+0x153>
    6913:	4c 89 f7             	mov    %r14,%rdi
    6916:	4c 89 e6             	mov    %r12,%rsi
    6919:	ba 01 00 00 00       	mov    $0x1,%edx
    691e:	e8 9d f4 ff ff       	call   5dc0 <_ZN7Playout3runER9FastStateb>
    6923:	e9 a7 00 00 00       	jmp    69cf <_ZN9UCTSearch15play_simulationER7KoStateP7UCTNode+0x1df>
    6928:	4c 89 f7             	mov    %r14,%rdi
    692b:	4c 89 e6             	mov    %r12,%rsi
    692e:	ba 01 00 00 00       	mov    $0x1,%edx
    6933:	e8 88 f4 ff ff       	call   5dc0 <_ZN7Playout3runER9FastStateb>
    6938:	44 89 fd             	mov    %r15d,%ebp
    693b:	4d 89 ef             	mov    %r13,%r15
    693e:	e9 8c 00 00 00       	jmp    69cf <_ZN9UCTSearch15play_simulationER7KoStateP7UCTNode+0x1df>
    6943:	4c 89 e7             	mov    %r12,%rdi
    6946:	e8 35 4e 01 00       	call   1b780 <_ZN9FastState21percentual_area_scoreEv>
    694b:	4c 89 f7             	mov    %r14,%rdi
    694e:	e8 5d f4 ff ff       	call   5db0 <_ZN7Playout15set_final_scoreEf>
    6953:	eb 7a                	jmp    69cf <_ZN9UCTSearch15play_simulationER7KoStateP7UCTNode+0x1df>
    6955:	e8 06 ed ff ff       	call   5660 <_ZN7KoState9play_passEv>
    695a:	48 8d 7c 24 10       	lea    0x10(%rsp),%rdi
    695f:	4c 89 ee             	mov    %r13,%rsi
    6962:	4c 89 e2             	mov    %r12,%rdx
    6965:	48 89 e9             	mov    %rbp,%rcx
    6968:	e8 83 fe ff ff       	call   67f0 <_ZN9UCTSearch15play_simulationER7KoStateP7UCTNode>
    696d:	48 8b 84 24 80 00 00 	mov    0x80(%rsp),%rax
    6974:	00 
    6975:	49 89 46 70          	mov    %rax,0x70(%r14)
    6979:	0f 10 44 24 70       	movups 0x70(%rsp),%xmm0
    697e:	41 0f 11 46 60       	movups %xmm0,0x60(%r14)
    6983:	0f 10 44 24 60       	movups 0x60(%rsp),%xmm0
    6988:	41 0f 11 46 50       	movups %xmm0,0x50(%r14)
    698d:	0f 10 44 24 50       	movups 0x50(%rsp),%xmm0
    6992:	41 0f 11 46 40       	movups %xmm0,0x40(%r14)
    6997:	0f 10 44 24 10       	movups 0x10(%rsp),%xmm0
    699c:	0f 10 4c 24 20       	movups 0x20(%rsp),%xmm1
    69a1:	0f 10 54 24 30       	movups 0x30(%rsp),%xmm2
    69a6:	0f 10 5c 24 40       	movups 0x40(%rsp),%xmm3
    69ab:	41 0f 11 5e 30       	movups %xmm3,0x30(%r14)
    69b0:	41 0f 11 56 20       	movups %xmm2,0x20(%r14)
    69b5:	41 0f 11 4e 10       	movups %xmm1,0x10(%r14)
    69ba:	41 0f 11 06          	movups %xmm0,(%r14)
    69be:	48 89 df             	mov    %rbx,%rdi
    69c1:	4c 89 f6             	mov    %r14,%rsi
    69c4:	8b 6c 24 08          	mov    0x8(%rsp),%ebp
    69c8:	89 ea                	mov    %ebp,%edx
    69ca:	e8 d1 aa 01 00       	call   214a0 <_ZN7UCTNode10updateRAVEER7Playouti>
    69cf:	31 d2                	xor    %edx,%edx
    69d1:	85 ed                	test   %ebp,%ebp
    69d3:	0f 94 c2             	sete   %dl
    69d6:	48 89 df             	mov    %rbx,%rdi
    69d9:	4c 89 f6             	mov    %r14,%rsi
    69dc:	e8 af a2 01 00       	call   20c90 <_ZN7UCTNode6updateER7Playouti>
    69e1:	e8 3a 35 01 00       	call   19f20 <_ZN6TTable6get_TTEv>
    69e6:	48 89 c7             	mov    %rax,%rdi
    69e9:	4c 89 fe             	mov    %r15,%rsi
    69ec:	48 89 da             	mov    %rbx,%rdx
    69ef:	e8 7c 36 01 00       	call   1a070 <_ZN6TTable6updateEyPK7UCTNode>
    69f4:	4c 89 f0             	mov    %r14,%rax
    69f7:	48 81 c4 88 00 00 00 	add    $0x88,%rsp
    69fe:	5b                   	pop    %rbx
    69ff:	41 5c                	pop    %r12
    6a01:	41 5d                	pop    %r13
    6a03:	41 5e                	pop    %r14
    6a05:	41 5f                	pop    %r15
    6a07:	5d                   	pop    %rbp
    6a08:	c3                   	ret    
    6a09:	0f 1f 80 00 00 00 00 	nopl   0x0(%rax)

0000000000006a10 <_ZN9UCTSearch10dump_statsER9GameStateR7UCTNode>:
    6a10:	55                   	push   %rbp
    6a11:	41 57                	push   %r15
    6a13:	41 56                	push   %r14
    6a15:	41 55                	push   %r13
    6a17:	41 54                	push   %r12
    6a19:	53                   	push   %rbx
    6a1a:	48 81 ec b8 21 00 00 	sub    $0x21b8,%rsp
    6a21:	48 89 d3             	mov    %rdx,%rbx
    6a24:	49 89 fe             	mov    %rdi,%r14
    6a27:	48 89 74 24 08       	mov    %rsi,0x8(%rsp)
    6a2c:	48 89 f7             	mov    %rsi,%rdi
    6a2f:	e8 8c 4d 01 00       	call   1b7c0 <_ZN9FastState11get_to_moveEv>
    6a34:	89 c5                	mov    %eax,%ebp
    6a36:	48 89 df             	mov    %rbx,%rdi
    6a39:	e8 82 a0 01 00       	call   20ac0 <_ZNK7UCTNode12has_childrenEv>
    6a3e:	84 c0                	test   %al,%al
    6a40:	0f 84 75 04 00 00    	je     6ebb <_ZN9UCTSearch10dump_statsER9GameStateR7UCTNode+0x4ab>
    6a46:	49 8d 7e 08          	lea    0x8(%r14),%rdi
    6a4a:	89 ee                	mov    %ebp,%esi
    6a4c:	e8 bf a4 01 00       	call   20f10 <_ZN7UCTNode13sort_childrenEi>
    6a51:	48 89 df             	mov    %rbx,%rdi
    6a54:	e8 97 a9 01 00       	call   213f0 <_ZN7UCTNode15get_first_childEv>
    6a59:	49 89 c4             	mov    %rax,%r12
    6a5c:	48 89 c7             	mov    %rax,%rdi
    6a5f:	e8 4c 9c 01 00       	call   206b0 <_ZNK7UCTNode11first_visitEv>
    6a64:	84 c0                	test   %al,%al
    6a66:	0f 85 4f 04 00 00    	jne    6ebb <_ZN9UCTSearch10dump_statsER9GameStateR7UCTNode+0x4ab>
    6a6c:	4c 89 74 24 40       	mov    %r14,0x40(%rsp)
    6a71:	48 89 5c 24 70       	mov    %rbx,0x70(%rsp)
    6a76:	4c 89 e7             	mov    %r12,%rdi
    6a79:	89 6c 24 10          	mov    %ebp,0x10(%rsp)
    6a7d:	89 ee                	mov    %ebp,%esi
    6a7f:	e8 1c a3 01 00       	call   20da0 <_ZNK7UCTNode11get_winrateEi>
    6a84:	4c 89 e7             	mov    %r12,%rdi
    6a87:	e8 34 a3 01 00       	call   20dc0 <_ZNK7UCTNode10get_visitsEv>
    6a8c:	4c 89 e7             	mov    %r12,%rdi
    6a8f:	e8 3c a1 01 00       	call   20bd0 <_ZNK7UCTNode8get_moveEv>
    6a94:	48 8d 9c 24 70 21 00 	lea    0x2170(%rsp),%rbx
    6a9b:	00 
    6a9c:	48 8b 44 24 08       	mov    0x8(%rsp),%rax
    6aa1:	48 8d 88 f8 20 00 00 	lea    0x20f8(%rax),%rcx
    6aa8:	48 89 4c 24 38       	mov    %rcx,0x38(%rsp)
    6aad:	4c 8d a8 10 21 00 00 	lea    0x2110(%rax),%r13
    6ab4:	4c 89 64 24 68       	mov    %r12,0x68(%rsp)
    6ab9:	45 31 ff             	xor    %r15d,%r15d
    6abc:	eb 0e                	jmp    6acc <_ZN9UCTSearch10dump_statsER9GameStateR7UCTNode+0xbc>
    6abe:	66 90                	xchg   %ax,%ax
    6ac0:	41 ff c7             	inc    %r15d
    6ac3:	4d 85 e4             	test   %r12,%r12
    6ac6:	0f 84 5a 02 00 00    	je     6d26 <_ZN9UCTSearch10dump_statsER9GameStateR7UCTNode+0x316>
    6acc:	41 83 ff 06          	cmp    $0x6,%r15d
    6ad0:	0f 84 50 02 00 00    	je     6d26 <_ZN9UCTSearch10dump_statsER9GameStateR7UCTNode+0x316>
    6ad6:	4c 89 e7             	mov    %r12,%rdi
    6ad9:	e8 f2 a0 01 00       	call   20bd0 <_ZNK7UCTNode8get_moveEv>
    6ade:	48 8d 7c 24 18       	lea    0x18(%rsp),%rdi
    6ae3:	48 8b 74 24 08       	mov    0x8(%rsp),%rsi
    6ae8:	89 c2                	mov    %eax,%edx
    6aea:	e8 71 4d 01 00       	call   1b860 <_ZN9FastState12move_to_textB5cxx11Ei>
    6aef:	48 8b 6c 24 18       	mov    0x18(%rsp),%rbp
    6af4:	4c 89 e7             	mov    %r12,%rdi
    6af7:	e8 c4 a2 01 00       	call   20dc0 <_ZNK7UCTNode10get_visitsEv>
    6afc:	41 89 c6             	mov    %eax,%r14d
    6aff:	4c 89 e7             	mov    %r12,%rdi
    6b02:	e8 b9 a2 01 00       	call   20dc0 <_ZNK7UCTNode10get_visitsEv>
    6b07:	85 c0                	test   %eax,%eax
    6b09:	7e 25                	jle    6b30 <_ZN9UCTSearch10dump_statsER9GameStateR7UCTNode+0x120>
    6b0b:	4c 89 e7             	mov    %r12,%rdi
    6b0e:	8b 74 24 10          	mov    0x10(%rsp),%esi
    6b12:	e8 89 a2 01 00       	call   20da0 <_ZNK7UCTNode11get_winrateEi>
    6b17:	f3 0f 2a c0          	cvtsi2ss %eax,%xmm0
    6b1b:	f3 0f 5e 05 d5 d5 01 	divss  0x1d5d5(%rip),%xmm0        # 240f8 <_IO_stdin_used+0xf8>
    6b22:	00 
    6b23:	eb 0e                	jmp    6b33 <_ZN9UCTSearch10dump_statsER9GameStateR7UCTNode+0x123>
    6b25:	66 66 2e 0f 1f 84 00 	data16 cs nopw 0x0(%rax,%rax,1)
    6b2c:	00 00 00 00 
    6b30:	0f 57 c0             	xorps  %xmm0,%xmm0
    6b33:	f3 0f 11 04 24       	movss  %xmm0,(%rsp)
    6b38:	4c 89 e7             	mov    %r12,%rdi
    6b3b:	e8 80 a2 01 00       	call   20dc0 <_ZNK7UCTNode10get_visitsEv>
    6b40:	85 c0                	test   %eax,%eax
    6b42:	7e 1c                	jle    6b60 <_ZN9UCTSearch10dump_statsER9GameStateR7UCTNode+0x150>
    6b44:	4c 89 e7             	mov    %r12,%rdi
    6b47:	e8 84 a2 01 00       	call   20dd0 <_ZNK7UCTNode12get_raverateEv>
    6b4c:	0f 57 c0             	xorps  %xmm0,%xmm0
    6b4f:	f3 0f 2a c0          	cvtsi2ss %eax,%xmm0
    6b53:	f3 0f 5e 05 9d d5 01 	divss  0x1d59d(%rip),%xmm0        # 240f8 <_IO_stdin_used+0xf8>
    6b5a:	00 
    6b5b:	eb 06                	jmp    6b63 <_ZN9UCTSearch10dump_statsER9GameStateR7UCTNode+0x153>
    6b5d:	0f 1f 00             	nopl   (%rax)
    6b60:	0f 57 c0             	xorps  %xmm0,%xmm0
    6b63:	f3 0f 11 44 24 14    	movss  %xmm0,0x14(%rsp)
    6b69:	4c 89 e7             	mov    %r12,%rdi
    6b6c:	e8 6f a2 01 00       	call   20de0 <_ZNK7UCTNode14get_ravevisitsEv>
    6b71:	f3 0f 10 04 24       	movss  (%rsp),%xmm0
    6b76:	f3 0f 5a c0          	cvtss2sd %xmm0,%xmm0
    6b7a:	f3 0f 10 4c 24 14    	movss  0x14(%rsp),%xmm1
    6b80:	f3 0f 5a c9          	cvtss2sd %xmm1,%xmm1
    6b84:	4c 8b 44 24 18       	mov    0x18(%rsp),%r8
    6b89:	48 8d 3d 80 d5 01 00 	lea    0x1d580(%rip),%rdi        # 24110 <_IO_stdin_used+0x110>
    6b90:	48 89 ee             	mov    %rbp,%rsi
    6b93:	44 89 f2             	mov    %r14d,%edx
    6b96:	89 c1                	mov    %eax,%ecx
    6b98:	b0 02                	mov    $0x2,%al
    6b9a:	e8 c1 4e 00 00       	call   ba60 <_ZN5Utils8myprintfEPKcz>
    6b9f:	48 8d 7c 24 78       	lea    0x78(%rsp),%rdi
    6ba4:	48 8b 74 24 08       	mov    0x8(%rsp),%rsi
    6ba9:	e8 f2 ee ff ff       	call   5aa0 <_ZN7KoStateC2ERKS_>
    6bae:	48 89 df             	mov    %rbx,%rdi
    6bb1:	48 8b 74 24 38       	mov    0x38(%rsp),%rsi
    6bb6:	e8 65 11 00 00       	call   7d20 <_ZNSt6vectorI7KoStateSaIS0_EEC2ERKS2_>
    6bbb:	4c 8b 74 24 40       	mov    0x40(%rsp),%r14
    6bc0:	41 0f 10 45 00       	movups 0x0(%r13),%xmm0
    6bc5:	41 0f 10 4d 10       	movups 0x10(%r13),%xmm1
    6bca:	41 0f 10 55 1c       	movups 0x1c(%r13),%xmm2
    6bcf:	0f 11 53 34          	movups %xmm2,0x34(%rbx)
    6bd3:	0f 11 4b 28          	movups %xmm1,0x28(%rbx)
    6bd7:	0f 11 43 18          	movups %xmm0,0x18(%rbx)
    6bdb:	4c 89 e7             	mov    %r12,%rdi
    6bde:	e8 ed 9f 01 00       	call   20bd0 <_ZNK7UCTNode8get_moveEv>
    6be3:	48 8d 7c 24 78       	lea    0x78(%rsp),%rdi
    6be8:	89 c6                	mov    %eax,%esi
    6bea:	e8 31 17 00 00       	call   8320 <_ZN9GameState9play_moveEi>
    6bef:	48 8d 7c 24 48       	lea    0x48(%rsp),%rdi
    6bf4:	4c 89 f6             	mov    %r14,%rsi
    6bf7:	48 8d 54 24 78       	lea    0x78(%rsp),%rdx
    6bfc:	4c 89 e1             	mov    %r12,%rcx
    6bff:	e8 dc 03 00 00       	call   6fe0 <_ZN9UCTSearch6get_pvB5cxx11ER9GameStateR7UCTNode>
    6c04:	48 8b 7c 24 48       	mov    0x48(%rsp),%rdi
    6c09:	31 c0                	xor    %eax,%eax
    6c0b:	e8 50 4e 00 00       	call   ba60 <_ZN5Utils8myprintfEPKcz>
    6c10:	48 8b 7c 24 48       	mov    0x48(%rsp),%rdi
    6c15:	48 8d 44 24 58       	lea    0x58(%rsp),%rax
    6c1a:	48 39 c7             	cmp    %rax,%rdi
    6c1d:	74 05                	je     6c24 <_ZN9UCTSearch10dump_statsER9GameStateR7UCTNode+0x214>
    6c1f:	e8 fc c5 ff ff       	call   3220 <_ZdlPv@plt>
    6c24:	48 8d 3d f2 d3 01 00 	lea    0x1d3f2(%rip),%rdi        # 2401d <_IO_stdin_used+0x1d>
    6c2b:	31 c0                	xor    %eax,%eax
    6c2d:	e8 2e 4e 00 00       	call   ba60 <_ZN5Utils8myprintfEPKcz>
    6c32:	4c 89 e7             	mov    %r12,%rdi
    6c35:	e8 c6 a7 01 00       	call   21400 <_ZN7UCTNode11get_siblingEv>
    6c3a:	49 89 c4             	mov    %rax,%r12
    6c3d:	4c 8b b4 24 70 21 00 	mov    0x2170(%rsp),%r14
    6c44:	00 
    6c45:	48 8b ac 24 78 21 00 	mov    0x2178(%rsp),%rbp
    6c4c:	00 
    6c4d:	49 39 ee             	cmp    %rbp,%r14
    6c50:	75 7a                	jne    6ccc <_ZN9UCTSearch10dump_statsER9GameStateR7UCTNode+0x2bc>
    6c52:	4d 85 f6             	test   %r14,%r14
    6c55:	74 08                	je     6c5f <_ZN9UCTSearch10dump_statsER9GameStateR7UCTNode+0x24f>
    6c57:	4c 89 f7             	mov    %r14,%rdi
    6c5a:	e8 c1 c5 ff ff       	call   3220 <_ZdlPv@plt>
    6c5f:	48 8b bc 24 58 21 00 	mov    0x2158(%rsp),%rdi
    6c66:	00 
    6c67:	48 85 ff             	test   %rdi,%rdi
    6c6a:	74 05                	je     6c71 <_ZN9UCTSearch10dump_statsER9GameStateR7UCTNode+0x261>
    6c6c:	e8 af c5 ff ff       	call   3220 <_ZdlPv@plt>
    6c71:	48 8b bc 24 40 21 00 	mov    0x2140(%rsp),%rdi
    6c78:	00 
    6c79:	48 85 ff             	test   %rdi,%rdi
    6c7c:	74 05                	je     6c83 <_ZN9UCTSearch10dump_statsER9GameStateR7UCTNode+0x273>
    6c7e:	e8 9d c5 ff ff       	call   3220 <_ZdlPv@plt>
    6c83:	48 8b bc 24 d0 1f 00 	mov    0x1fd0(%rsp),%rdi
    6c8a:	00 
    6c8b:	48 85 ff             	test   %rdi,%rdi
    6c8e:	74 05                	je     6c95 <_ZN9UCTSearch10dump_statsER9GameStateR7UCTNode+0x285>
    6c90:	e8 8b c5 ff ff       	call   3220 <_ZdlPv@plt>
    6c95:	48 8b 7c 24 18       	mov    0x18(%rsp),%rdi
    6c9a:	48 8d 44 24 28       	lea    0x28(%rsp),%rax
    6c9f:	48 39 c7             	cmp    %rax,%rdi
    6ca2:	0f 84 18 fe ff ff    	je     6ac0 <_ZN9UCTSearch10dump_statsER9GameStateR7UCTNode+0xb0>
    6ca8:	e8 73 c5 ff ff       	call   3220 <_ZdlPv@plt>
    6cad:	e9 0e fe ff ff       	jmp    6ac0 <_ZN9UCTSearch10dump_statsER9GameStateR7UCTNode+0xb0>
    6cb2:	66 66 66 66 66 2e 0f 	data16 data16 data16 data16 cs nopw 0x0(%rax,%rax,1)
    6cb9:	1f 84 00 00 00 00 00 
    6cc0:	49 81 c6 f8 20 00 00 	add    $0x20f8,%r14
    6cc7:	49 39 ee             	cmp    %rbp,%r14
    6cca:	74 44                	je     6d10 <_ZN9UCTSearch10dump_statsER9GameStateR7UCTNode+0x300>
    6ccc:	49 8b be e0 20 00 00 	mov    0x20e0(%r14),%rdi
    6cd3:	48 85 ff             	test   %rdi,%rdi
    6cd6:	74 05                	je     6cdd <_ZN9UCTSearch10dump_statsER9GameStateR7UCTNode+0x2cd>
    6cd8:	e8 43 c5 ff ff       	call   3220 <_ZdlPv@plt>
    6cdd:	49 8b be c8 20 00 00 	mov    0x20c8(%r14),%rdi
    6ce4:	48 85 ff             	test   %rdi,%rdi
    6ce7:	74 05                	je     6cee <_ZN9UCTSearch10dump_statsER9GameStateR7UCTNode+0x2de>
    6ce9:	e8 32 c5 ff ff       	call   3220 <_ZdlPv@plt>
    6cee:	49 8b be 58 1f 00 00 	mov    0x1f58(%r14),%rdi
    6cf5:	48 85 ff             	test   %rdi,%rdi
    6cf8:	74 c6                	je     6cc0 <_ZN9UCTSearch10dump_statsER9GameStateR7UCTNode+0x2b0>
    6cfa:	e8 21 c5 ff ff       	call   3220 <_ZdlPv@plt>
    6cff:	eb bf                	jmp    6cc0 <_ZN9UCTSearch10dump_statsER9GameStateR7UCTNode+0x2b0>
    6d01:	66 66 66 66 66 66 2e 	data16 data16 data16 data16 data16 cs nopw 0x0(%rax,%rax,1)
    6d08:	0f 1f 84 00 00 00 00 
    6d0f:	00 
    6d10:	4c 8b b4 24 70 21 00 	mov    0x2170(%rsp),%r14
    6d17:	00 
    6d18:	4d 85 f6             	test   %r14,%r14
    6d1b:	0f 85 36 ff ff ff    	jne    6c57 <_ZN9UCTSearch10dump_statsER9GameStateR7UCTNode+0x247>
    6d21:	e9 39 ff ff ff       	jmp    6c5f <_ZN9UCTSearch10dump_statsER9GameStateR7UCTNode+0x24f>
    6d26:	4c 8b 7c 24 68       	mov    0x68(%rsp),%r15
    6d2b:	4c 89 ff             	mov    %r15,%rdi
    6d2e:	e8 9d 9e 01 00       	call   20bd0 <_ZNK7UCTNode8get_moveEv>
    6d33:	48 8d 7c 24 18       	lea    0x18(%rsp),%rdi
    6d38:	48 8b 74 24 08       	mov    0x8(%rsp),%rsi
    6d3d:	89 c2                	mov    %eax,%edx
    6d3f:	e8 1c 4b 01 00       	call   1b860 <_ZN9FastState12move_to_textB5cxx11Ei>
    6d44:	4c 89 ff             	mov    %r15,%rdi
    6d47:	e8 74 a0 01 00       	call   20dc0 <_ZNK7UCTNode10get_visitsEv>
    6d4c:	4c 8b 74 24 70       	mov    0x70(%rsp),%r14
    6d51:	8b 6c 24 10          	mov    0x10(%rsp),%ebp
    6d55:	89 c3                	mov    %eax,%ebx
    6d57:	4c 89 ff             	mov    %r15,%rdi
    6d5a:	e8 61 a0 01 00       	call   20dc0 <_ZNK7UCTNode10get_visitsEv>
    6d5f:	85 c0                	test   %eax,%eax
    6d61:	7e 1c                	jle    6d7f <_ZN9UCTSearch10dump_statsER9GameStateR7UCTNode+0x36f>
    6d63:	4c 89 ff             	mov    %r15,%rdi
    6d66:	89 ee                	mov    %ebp,%esi
    6d68:	e8 33 a0 01 00       	call   20da0 <_ZNK7UCTNode11get_winrateEi>
    6d6d:	f3 0f 2a c0          	cvtsi2ss %eax,%xmm0
    6d71:	f3 0f 5e 05 7f d3 01 	divss  0x1d37f(%rip),%xmm0        # 240f8 <_IO_stdin_used+0xf8>
    6d78:	00 
    6d79:	f3 0f 5a c0          	cvtss2sd %xmm0,%xmm0
    6d7d:	eb 03                	jmp    6d82 <_ZN9UCTSearch10dump_statsER9GameStateR7UCTNode+0x372>
    6d7f:	0f 57 c0             	xorps  %xmm0,%xmm0
    6d82:	f2 0f 11 04 24       	movsd  %xmm0,(%rsp)
    6d87:	4c 89 f7             	mov    %r14,%rdi
    6d8a:	89 ee                	mov    %ebp,%esi
    6d8c:	e8 0f a0 01 00       	call   20da0 <_ZNK7UCTNode11get_winrateEi>
    6d91:	0f 57 c0             	xorps  %xmm0,%xmm0
    6d94:	f3 0f 2a c0          	cvtsi2ss %eax,%xmm0
    6d98:	f3 0f 5e 05 58 d3 01 	divss  0x1d358(%rip),%xmm0        # 240f8 <_IO_stdin_used+0xf8>
    6d9f:	00 
    6da0:	f3 0f 5a c8          	cvtss2sd %xmm0,%xmm1
    6da4:	48 8b 54 24 18       	mov    0x18(%rsp),%rdx
    6da9:	48 8d 3d 92 d3 01 00 	lea    0x1d392(%rip),%rdi        # 24142 <_IO_stdin_used+0x142>
    6db0:	89 de                	mov    %ebx,%esi
    6db2:	f2 0f 10 04 24       	movsd  (%rsp),%xmm0
    6db7:	b0 02                	mov    $0x2,%al
    6db9:	e8 a2 4c 00 00       	call   ba60 <_ZN5Utils8myprintfEPKcz>
    6dbe:	48 8d 7c 24 78       	lea    0x78(%rsp),%rdi
    6dc3:	48 8b 74 24 08       	mov    0x8(%rsp),%rsi
    6dc8:	e8 d3 ec ff ff       	call   5aa0 <_ZN7KoStateC2ERKS_>
    6dcd:	48 8d bc 24 70 21 00 	lea    0x2170(%rsp),%rdi
    6dd4:	00 
    6dd5:	48 8b 74 24 38       	mov    0x38(%rsp),%rsi
    6dda:	e8 41 0f 00 00       	call   7d20 <_ZNSt6vectorI7KoStateSaIS0_EEC2ERKS2_>
    6ddf:	41 0f 10 45 00       	movups 0x0(%r13),%xmm0
    6de4:	41 0f 10 4d 10       	movups 0x10(%r13),%xmm1
    6de9:	41 0f 10 55 1c       	movups 0x1c(%r13),%xmm2
    6dee:	0f 11 94 24 a4 21 00 	movups %xmm2,0x21a4(%rsp)
    6df5:	00 
    6df6:	0f 11 8c 24 98 21 00 	movups %xmm1,0x2198(%rsp)
    6dfd:	00 
    6dfe:	0f 11 84 24 88 21 00 	movups %xmm0,0x2188(%rsp)
    6e05:	00 
    6e06:	48 8d 7c 24 48       	lea    0x48(%rsp),%rdi
    6e0b:	48 8d 54 24 78       	lea    0x78(%rsp),%rdx
    6e10:	48 8b 74 24 40       	mov    0x40(%rsp),%rsi
    6e15:	4c 89 f1             	mov    %r14,%rcx
    6e18:	e8 c3 01 00 00       	call   6fe0 <_ZN9UCTSearch6get_pvB5cxx11ER9GameStateR7UCTNode>
    6e1d:	48 8b 7c 24 48       	mov    0x48(%rsp),%rdi
    6e22:	31 c0                	xor    %eax,%eax
    6e24:	e8 37 4c 00 00       	call   ba60 <_ZN5Utils8myprintfEPKcz>
    6e29:	48 8b 7c 24 48       	mov    0x48(%rsp),%rdi
    6e2e:	48 8d 44 24 58       	lea    0x58(%rsp),%rax
    6e33:	48 39 c7             	cmp    %rax,%rdi
    6e36:	74 05                	je     6e3d <_ZN9UCTSearch10dump_statsER9GameStateR7UCTNode+0x42d>
    6e38:	e8 e3 c3 ff ff       	call   3220 <_ZdlPv@plt>
    6e3d:	48 8d 3d d9 d1 01 00 	lea    0x1d1d9(%rip),%rdi        # 2401d <_IO_stdin_used+0x1d>
    6e44:	31 c0                	xor    %eax,%eax
    6e46:	e8 15 4c 00 00       	call   ba60 <_ZN5Utils8myprintfEPKcz>
    6e4b:	48 8b 9c 24 70 21 00 	mov    0x2170(%rsp),%rbx
    6e52:	00 
    6e53:	4c 8b b4 24 78 21 00 	mov    0x2178(%rsp),%r14
    6e5a:	00 
    6e5b:	4c 39 f3             	cmp    %r14,%rbx
    6e5e:	0f 85 78 00 00 00    	jne    6edc <_ZN9UCTSearch10dump_statsER9GameStateR7UCTNode+0x4cc>
    6e64:	48 85 db             	test   %rbx,%rbx
    6e67:	74 08                	je     6e71 <_ZN9UCTSearch10dump_statsER9GameStateR7UCTNode+0x461>
    6e69:	48 89 df             	mov    %rbx,%rdi
    6e6c:	e8 af c3 ff ff       	call   3220 <_ZdlPv@plt>
    6e71:	48 8b bc 24 58 21 00 	mov    0x2158(%rsp),%rdi
    6e78:	00 
    6e79:	48 85 ff             	test   %rdi,%rdi
    6e7c:	74 05                	je     6e83 <_ZN9UCTSearch10dump_statsER9GameStateR7UCTNode+0x473>
    6e7e:	e8 9d c3 ff ff       	call   3220 <_ZdlPv@plt>
    6e83:	48 8b bc 24 40 21 00 	mov    0x2140(%rsp),%rdi
    6e8a:	00 
    6e8b:	48 85 ff             	test   %rdi,%rdi
    6e8e:	74 05                	je     6e95 <_ZN9UCTSearch10dump_statsER9GameStateR7UCTNode+0x485>
    6e90:	e8 8b c3 ff ff       	call   3220 <_ZdlPv@plt>
    6e95:	48 8b bc 24 d0 1f 00 	mov    0x1fd0(%rsp),%rdi
    6e9c:	00 
    6e9d:	48 85 ff             	test   %rdi,%rdi
    6ea0:	74 05                	je     6ea7 <_ZN9UCTSearch10dump_statsER9GameStateR7UCTNode+0x497>
    6ea2:	e8 79 c3 ff ff       	call   3220 <_ZdlPv@plt>
    6ea7:	48 8b 7c 24 18       	mov    0x18(%rsp),%rdi
    6eac:	48 8d 44 24 28       	lea    0x28(%rsp),%rax
    6eb1:	48 39 c7             	cmp    %rax,%rdi
    6eb4:	74 05                	je     6ebb <_ZN9UCTSearch10dump_statsER9GameStateR7UCTNode+0x4ab>
    6eb6:	e8 65 c3 ff ff       	call   3220 <_ZdlPv@plt>
    6ebb:	48 81 c4 b8 21 00 00 	add    $0x21b8,%rsp
    6ec2:	5b                   	pop    %rbx
    6ec3:	41 5c                	pop    %r12
    6ec5:	41 5d                	pop    %r13
    6ec7:	41 5e                	pop    %r14
    6ec9:	41 5f                	pop    %r15
    6ecb:	5d                   	pop    %rbp
    6ecc:	c3                   	ret    
    6ecd:	0f 1f 00             	nopl   (%rax)
    6ed0:	48 81 c3 f8 20 00 00 	add    $0x20f8,%rbx
    6ed7:	4c 39 f3             	cmp    %r14,%rbx
    6eda:	74 35                	je     6f11 <_ZN9UCTSearch10dump_statsER9GameStateR7UCTNode+0x501>
    6edc:	48 8b bb e0 20 00 00 	mov    0x20e0(%rbx),%rdi
    6ee3:	48 85 ff             	test   %rdi,%rdi
    6ee6:	74 05                	je     6eed <_ZN9UCTSearch10dump_statsER9GameStateR7UCTNode+0x4dd>
    6ee8:	e8 33 c3 ff ff       	call   3220 <_ZdlPv@plt>
    6eed:	48 8b bb c8 20 00 00 	mov    0x20c8(%rbx),%rdi
    6ef4:	48 85 ff             	test   %rdi,%rdi
    6ef7:	74 05                	je     6efe <_ZN9UCTSearch10dump_statsER9GameStateR7UCTNode+0x4ee>
    6ef9:	e8 22 c3 ff ff       	call   3220 <_ZdlPv@plt>
    6efe:	48 8b bb 58 1f 00 00 	mov    0x1f58(%rbx),%rdi
    6f05:	48 85 ff             	test   %rdi,%rdi
    6f08:	74 c6                	je     6ed0 <_ZN9UCTSearch10dump_statsER9GameStateR7UCTNode+0x4c0>
    6f0a:	e8 11 c3 ff ff       	call   3220 <_ZdlPv@plt>
    6f0f:	eb bf                	jmp    6ed0 <_ZN9UCTSearch10dump_statsER9GameStateR7UCTNode+0x4c0>
    6f11:	48 8b 9c 24 70 21 00 	mov    0x2170(%rsp),%rbx
    6f18:	00 
    6f19:	48 85 db             	test   %rbx,%rbx
    6f1c:	0f 85 47 ff ff ff    	jne    6e69 <_ZN9UCTSearch10dump_statsER9GameStateR7UCTNode+0x459>
    6f22:	e9 4a ff ff ff       	jmp    6e71 <_ZN9UCTSearch10dump_statsER9GameStateR7UCTNode+0x461>
    6f27:	eb 19                	jmp    6f42 <_ZN9UCTSearch10dump_statsER9GameStateR7UCTNode+0x532>
    6f29:	48 89 c3             	mov    %rax,%rbx
    6f2c:	48 8b 7c 24 48       	mov    0x48(%rsp),%rdi
    6f31:	48 8d 44 24 58       	lea    0x58(%rsp),%rax
    6f36:	48 39 c7             	cmp    %rax,%rdi
    6f39:	74 0a                	je     6f45 <_ZN9UCTSearch10dump_statsER9GameStateR7UCTNode+0x535>
    6f3b:	e8 e0 c2 ff ff       	call   3220 <_ZdlPv@plt>
    6f40:	eb 03                	jmp    6f45 <_ZN9UCTSearch10dump_statsER9GameStateR7UCTNode+0x535>
    6f42:	48 89 c3             	mov    %rax,%rbx
    6f45:	48 8d 7c 24 78       	lea    0x78(%rsp),%rdi
    6f4a:	e8 11 0d 00 00       	call   7c60 <_ZN9GameStateD2Ev>
    6f4f:	eb 69                	jmp    6fba <_ZN9UCTSearch10dump_statsER9GameStateR7UCTNode+0x5aa>
    6f51:	48 89 c3             	mov    %rax,%rbx
    6f54:	48 8d 7c 24 78       	lea    0x78(%rsp),%rdi
    6f59:	e8 c2 ed ff ff       	call   5d20 <_ZN7KoStateD2Ev>
    6f5e:	eb 5a                	jmp    6fba <_ZN9UCTSearch10dump_statsER9GameStateR7UCTNode+0x5aa>
    6f60:	48 89 c7             	mov    %rax,%rdi
    6f63:	e8 f8 ed ff ff       	call   5d60 <__clang_call_terminate>
    6f68:	eb 4d                	jmp    6fb7 <_ZN9UCTSearch10dump_statsER9GameStateR7UCTNode+0x5a7>
    6f6a:	eb 4b                	jmp    6fb7 <_ZN9UCTSearch10dump_statsER9GameStateR7UCTNode+0x5a7>
    6f6c:	eb 49                	jmp    6fb7 <_ZN9UCTSearch10dump_statsER9GameStateR7UCTNode+0x5a7>
    6f6e:	eb 30                	jmp    6fa0 <_ZN9UCTSearch10dump_statsER9GameStateR7UCTNode+0x590>
    6f70:	48 89 c3             	mov    %rax,%rbx
    6f73:	48 8d 7c 24 78       	lea    0x78(%rsp),%rdi
    6f78:	e8 a3 ed ff ff       	call   5d20 <_ZN7KoStateD2Ev>
    6f7d:	eb 3b                	jmp    6fba <_ZN9UCTSearch10dump_statsER9GameStateR7UCTNode+0x5aa>
    6f7f:	48 89 c7             	mov    %rax,%rdi
    6f82:	e8 d9 ed ff ff       	call   5d60 <__clang_call_terminate>
    6f87:	48 89 c3             	mov    %rax,%rbx
    6f8a:	48 8b 7c 24 48       	mov    0x48(%rsp),%rdi
    6f8f:	48 8d 44 24 58       	lea    0x58(%rsp),%rax
    6f94:	48 39 c7             	cmp    %rax,%rdi
    6f97:	74 0a                	je     6fa3 <_ZN9UCTSearch10dump_statsER9GameStateR7UCTNode+0x593>
    6f99:	e8 82 c2 ff ff       	call   3220 <_ZdlPv@plt>
    6f9e:	eb 03                	jmp    6fa3 <_ZN9UCTSearch10dump_statsER9GameStateR7UCTNode+0x593>
    6fa0:	48 89 c3             	mov    %rax,%rbx
    6fa3:	48 8d 7c 24 78       	lea    0x78(%rsp),%rdi
    6fa8:	e8 b3 0c 00 00       	call   7c60 <_ZN9GameStateD2Ev>
    6fad:	eb 0b                	jmp    6fba <_ZN9UCTSearch10dump_statsER9GameStateR7UCTNode+0x5aa>
    6faf:	48 89 c7             	mov    %rax,%rdi
    6fb2:	e8 a9 ed ff ff       	call   5d60 <__clang_call_terminate>
    6fb7:	48 89 c3             	mov    %rax,%rbx
    6fba:	48 8b 7c 24 18       	mov    0x18(%rsp),%rdi
    6fbf:	48 8d 44 24 28       	lea    0x28(%rsp),%rax
    6fc4:	48 39 c7             	cmp    %rax,%rdi
    6fc7:	74 05                	je     6fce <_ZN9UCTSearch10dump_statsER9GameStateR7UCTNode+0x5be>
    6fc9:	e8 52 c2 ff ff       	call   3220 <_ZdlPv@plt>
    6fce:	48 89 df             	mov    %rbx,%rdi
    6fd1:	e8 4a c4 ff ff       	call   3420 <_Unwind_Resume@plt>
    6fd6:	66 2e 0f 1f 84 00 00 	cs nopw 0x0(%rax,%rax,1)
    6fdd:	00 00 00 

0000000000006fe0 <_ZN9UCTSearch6get_pvB5cxx11ER9GameStateR7UCTNode>:
    6fe0:	55                   	push   %rbp
    6fe1:	41 57                	push   %r15
    6fe3:	41 56                	push   %r14
    6fe5:	41 55                	push   %r13
    6fe7:	41 54                	push   %r12
    6fe9:	53                   	push   %rbx
    6fea:	48 83 ec 58          	sub    $0x58,%rsp
    6fee:	49 89 cc             	mov    %rcx,%r12
    6ff1:	49 89 d6             	mov    %rdx,%r14
    6ff4:	49 89 f7             	mov    %rsi,%r15
    6ff7:	48 89 fb             	mov    %rdi,%rbx
    6ffa:	48 89 cf             	mov    %rcx,%rdi
    6ffd:	e8 be 9a 01 00       	call   20ac0 <_ZNK7UCTNode12has_childrenEv>
    7002:	84 c0                	test   %al,%al
    7004:	74 2a                	je     7030 <_ZN9UCTSearch6get_pvB5cxx11ER9GameStateR7UCTNode+0x50>
    7006:	4c 89 f7             	mov    %r14,%rdi
    7009:	e8 b2 47 01 00       	call   1b7c0 <_ZN9FastState11get_to_moveEv>
    700e:	4c 89 e7             	mov    %r12,%rdi
    7011:	89 c6                	mov    %eax,%esi
    7013:	e8 f8 9e 01 00       	call   20f10 <_ZN7UCTNode13sort_childrenEi>
    7018:	4c 89 e7             	mov    %r12,%rdi
    701b:	e8 d0 a3 01 00       	call   213f0 <_ZN7UCTNode15get_first_childEv>
    7020:	49 89 c4             	mov    %rax,%r12
    7023:	48 89 c7             	mov    %rax,%rdi
    7026:	e8 95 9d 01 00       	call   20dc0 <_ZNK7UCTNode10get_visitsEv>
    702b:	83 f8 0f             	cmp    $0xf,%eax
    702e:	7f 25                	jg     7055 <_ZN9UCTSearch6get_pvB5cxx11ER9GameStateR7UCTNode+0x75>
    7030:	48 8d 43 10          	lea    0x10(%rbx),%rax
    7034:	48 89 03             	mov    %rax,(%rbx)
    7037:	48 c7 43 08 00 00 00 	movq   $0x0,0x8(%rbx)
    703e:	00 
    703f:	c6 43 10 00          	movb   $0x0,0x10(%rbx)
    7043:	48 89 d8             	mov    %rbx,%rax
    7046:	48 83 c4 58          	add    $0x58,%rsp
    704a:	5b                   	pop    %rbx
    704b:	41 5c                	pop    %r12
    704d:	41 5d                	pop    %r13
    704f:	41 5e                	pop    %r14
    7051:	41 5f                	pop    %r15
    7053:	5d                   	pop    %rbp
    7054:	c3                   	ret    
    7055:	4c 89 e7             	mov    %r12,%rdi
    7058:	e8 73 9b 01 00       	call   20bd0 <_ZNK7UCTNode8get_moveEv>
    705d:	89 c5                	mov    %eax,%ebp
    705f:	48 8d 7c 24 38       	lea    0x38(%rsp),%rdi
    7064:	4c 89 f6             	mov    %r14,%rsi
    7067:	89 c2                	mov    %eax,%edx
    7069:	e8 f2 47 01 00       	call   1b860 <_ZN9FastState12move_to_textB5cxx11Ei>
    706e:	48 8d 43 10          	lea    0x10(%rbx),%rax
    7072:	48 89 03             	mov    %rax,(%rbx)
    7075:	48 8b 4c 24 38       	mov    0x38(%rsp),%rcx
    707a:	48 89 4c 24 08       	mov    %rcx,0x8(%rsp)
    707f:	4c 8b 6c 24 40       	mov    0x40(%rsp),%r13
    7084:	4c 89 6c 24 10       	mov    %r13,0x10(%rsp)
    7089:	48 89 44 24 30       	mov    %rax,0x30(%rsp)
    708e:	49 83 fd 10          	cmp    $0x10,%r13
    7092:	72 1b                	jb     70af <_ZN9UCTSearch6get_pvB5cxx11ER9GameStateR7UCTNode+0xcf>
    7094:	48 8d 74 24 10       	lea    0x10(%rsp),%rsi
    7099:	48 89 df             	mov    %rbx,%rdi
    709c:	31 d2                	xor    %edx,%edx
    709e:	e8 8d c3 ff ff       	call   3430 <_ZNSt7__cxx1112basic_stringIcSt11char_traitsIcESaIcEE9_M_createERmm@plt>
    70a3:	48 89 03             	mov    %rax,(%rbx)
    70a6:	48 8b 4c 24 10       	mov    0x10(%rsp),%rcx
    70ab:	48 89 4b 10          	mov    %rcx,0x10(%rbx)
    70af:	4d 85 ed             	test   %r13,%r13
    70b2:	74 22                	je     70d6 <_ZN9UCTSearch6get_pvB5cxx11ER9GameStateR7UCTNode+0xf6>
    70b4:	49 83 fd 01          	cmp    $0x1,%r13
    70b8:	75 0c                	jne    70c6 <_ZN9UCTSearch6get_pvB5cxx11ER9GameStateR7UCTNode+0xe6>
    70ba:	48 8b 4c 24 08       	mov    0x8(%rsp),%rcx
    70bf:	0f b6 09             	movzbl (%rcx),%ecx
    70c2:	88 08                	mov    %cl,(%rax)
    70c4:	eb 10                	jmp    70d6 <_ZN9UCTSearch6get_pvB5cxx11ER9GameStateR7UCTNode+0xf6>
    70c6:	48 89 c7             	mov    %rax,%rdi
    70c9:	48 8b 74 24 08       	mov    0x8(%rsp),%rsi
    70ce:	4c 89 ea             	mov    %r13,%rdx
    70d1:	e8 1a c1 ff ff       	call   31f0 <memcpy@plt>
    70d6:	49 bd ff ff ff ff ff 	movabs $0x3fffffffffffffff,%r13
    70dd:	ff ff 3f 
    70e0:	48 8b 44 24 10       	mov    0x10(%rsp),%rax
    70e5:	48 89 43 08          	mov    %rax,0x8(%rbx)
    70e9:	48 8b 0b             	mov    (%rbx),%rcx
    70ec:	c6 04 01 00          	movb   $0x0,(%rcx,%rax,1)
    70f0:	4c 39 6b 08          	cmp    %r13,0x8(%rbx)
    70f4:	74 7d                	je     7173 <_ZN9UCTSearch6get_pvB5cxx11ER9GameStateR7UCTNode+0x193>
    70f6:	48 8d 35 1f d3 01 00 	lea    0x1d31f(%rip),%rsi        # 2441c <_ZN9FastBoard9s_cinvertE+0x28>
    70fd:	ba 01 00 00 00       	mov    $0x1,%edx
    7102:	48 89 df             	mov    %rbx,%rdi
    7105:	e8 b6 bf ff ff       	call   30c0 <_ZNSt7__cxx1112basic_stringIcSt11char_traitsIcESaIcEE9_M_appendEPKcm@plt>
    710a:	4c 89 f7             	mov    %r14,%rdi
    710d:	89 ee                	mov    %ebp,%esi
    710f:	e8 0c 12 00 00       	call   8320 <_ZN9GameState9play_moveEi>
    7114:	48 8d 7c 24 10       	lea    0x10(%rsp),%rdi
    7119:	4c 89 fe             	mov    %r15,%rsi
    711c:	4c 89 f2             	mov    %r14,%rdx
    711f:	4c 89 e1             	mov    %r12,%rcx
    7122:	e8 b9 fe ff ff       	call   6fe0 <_ZN9UCTSearch6get_pvB5cxx11ER9GameStateR7UCTNode>
    7127:	48 8b 54 24 18       	mov    0x18(%rsp),%rdx
    712c:	4c 2b 6b 08          	sub    0x8(%rbx),%r13
    7130:	49 39 d5             	cmp    %rdx,%r13
    7133:	72 4a                	jb     717f <_ZN9UCTSearch6get_pvB5cxx11ER9GameStateR7UCTNode+0x19f>
    7135:	48 8b 74 24 10       	mov    0x10(%rsp),%rsi
    713a:	48 89 df             	mov    %rbx,%rdi
    713d:	e8 7e bf ff ff       	call   30c0 <_ZNSt7__cxx1112basic_stringIcSt11char_traitsIcESaIcEE9_M_appendEPKcm@plt>
    7142:	48 8b 7c 24 10       	mov    0x10(%rsp),%rdi
    7147:	48 8d 44 24 20       	lea    0x20(%rsp),%rax
    714c:	48 39 c7             	cmp    %rax,%rdi
    714f:	74 05                	je     7156 <_ZN9UCTSearch6get_pvB5cxx11ER9GameStateR7UCTNode+0x176>
    7151:	e8 ca c0 ff ff       	call   3220 <_ZdlPv@plt>
    7156:	48 8b 7c 24 38       	mov    0x38(%rsp),%rdi
    715b:	48 8d 44 24 48       	lea    0x48(%rsp),%rax
    7160:	48 39 c7             	cmp    %rax,%rdi
    7163:	0f 84 da fe ff ff    	je     7043 <_ZN9UCTSearch6get_pvB5cxx11ER9GameStateR7UCTNode+0x63>
    7169:	e8 b2 c0 ff ff       	call   3220 <_ZdlPv@plt>
    716e:	e9 d0 fe ff ff       	jmp    7043 <_ZN9UCTSearch6get_pvB5cxx11ER9GameStateR7UCTNode+0x63>
    7173:	48 8d 3d 49 d1 01 00 	lea    0x1d149(%rip),%rdi        # 242c3 <_IO_stdin_used+0x2c3>
    717a:	e8 e1 bf ff ff       	call   3160 <_ZSt20__throw_length_errorPKc@plt>
    717f:	48 8d 3d 3d d1 01 00 	lea    0x1d13d(%rip),%rdi        # 242c3 <_IO_stdin_used+0x2c3>
    7186:	e8 d5 bf ff ff       	call   3160 <_ZSt20__throw_length_errorPKc@plt>
    718b:	49 89 c6             	mov    %rax,%r14
    718e:	48 8b 7c 24 38       	mov    0x38(%rsp),%rdi
    7193:	48 8d 44 24 48       	lea    0x48(%rsp),%rax
    7198:	48 39 c7             	cmp    %rax,%rdi
    719b:	74 2f                	je     71cc <_ZN9UCTSearch6get_pvB5cxx11ER9GameStateR7UCTNode+0x1ec>
    719d:	eb 67                	jmp    7206 <_ZN9UCTSearch6get_pvB5cxx11ER9GameStateR7UCTNode+0x226>
    719f:	eb 44                	jmp    71e5 <_ZN9UCTSearch6get_pvB5cxx11ER9GameStateR7UCTNode+0x205>
    71a1:	49 89 c6             	mov    %rax,%r14
    71a4:	48 8b 7c 24 10       	mov    0x10(%rsp),%rdi
    71a9:	48 8d 44 24 20       	lea    0x20(%rsp),%rax
