
benchspec/CPU/548.exchange2_r/exe/exchange2_r_base.RapModTest-llvm-m64:     file format elf64-x86-64


Disassembly of section .init:

0000000000001000 <_init>:
    1000:	f3 0f 1e fa          	endbr64 
    1004:	48 83 ec 08          	sub    $0x8,%rsp
    1008:	48 8b 05 c9 bf 02 00 	mov    0x2bfc9(%rip),%rax        # 2cfd8 <__gmon_start__@Base>
    100f:	48 85 c0             	test   %rax,%rax
    1012:	74 02                	je     1016 <_init+0x16>
    1014:	ff d0                	call   *%rax
    1016:	48 83 c4 08          	add    $0x8,%rsp
    101a:	c3                   	ret    

Disassembly of section .plt:

0000000000001020 <_gfortran_count_4_l@plt-0x10>:
    1020:	ff 35 da be 02 00    	push   0x2beda(%rip)        # 2cf00 <_GLOBAL_OFFSET_TABLE_+0x8>
    1026:	ff 25 dc be 02 00    	jmp    *0x2bedc(%rip)        # 2cf08 <_GLOBAL_OFFSET_TABLE_+0x10>
    102c:	0f 1f 40 00          	nopl   0x0(%rax)

0000000000001030 <_gfortran_count_4_l@plt>:
    1030:	ff 25 da be 02 00    	jmp    *0x2beda(%rip)        # 2cf10 <_gfortran_count_4_l@GFORTRAN_8>
    1036:	68 00 00 00 00       	push   $0x0
    103b:	e9 e0 ff ff ff       	jmp    1020 <_init+0x20>

0000000000001040 <_gfortran_stop_string@plt>:
    1040:	ff 25 d2 be 02 00    	jmp    *0x2bed2(%rip)        # 2cf18 <_gfortran_stop_string@GFORTRAN_8>
    1046:	68 01 00 00 00       	push   $0x1
    104b:	e9 d0 ff ff ff       	jmp    1020 <_init+0x20>

0000000000001050 <memset@plt>:
    1050:	ff 25 ca be 02 00    	jmp    *0x2beca(%rip)        # 2cf20 <memset@GLIBC_2.2.5>
    1056:	68 02 00 00 00       	push   $0x2
    105b:	e9 c0 ff ff ff       	jmp    1020 <_init+0x20>

0000000000001060 <_gfortran_st_read_done@plt>:
    1060:	ff 25 c2 be 02 00    	jmp    *0x2bec2(%rip)        # 2cf28 <_gfortran_st_read_done@GFORTRAN_8>
    1066:	68 03 00 00 00       	push   $0x3
    106b:	e9 b0 ff ff ff       	jmp    1020 <_init+0x20>

0000000000001070 <_gfortran_st_close@plt>:
    1070:	ff 25 ba be 02 00    	jmp    *0x2beba(%rip)        # 2cf30 <_gfortran_st_close@GFORTRAN_8>
    1076:	68 04 00 00 00       	push   $0x4
    107b:	e9 a0 ff ff ff       	jmp    1020 <_init+0x20>

0000000000001080 <_gfortran_mminloc0_4_i4@plt>:
    1080:	ff 25 b2 be 02 00    	jmp    *0x2beb2(%rip)        # 2cf38 <_gfortran_mminloc0_4_i4@GFORTRAN_8>
    1086:	68 05 00 00 00       	push   $0x5
    108b:	e9 90 ff ff ff       	jmp    1020 <_init+0x20>

0000000000001090 <malloc@plt>:
    1090:	ff 25 aa be 02 00    	jmp    *0x2beaa(%rip)        # 2cf40 <malloc@GLIBC_2.2.5>
    1096:	68 06 00 00 00       	push   $0x6
    109b:	e9 80 ff ff ff       	jmp    1020 <_init+0x20>

00000000000010a0 <_gfortran_transfer_character@plt>:
    10a0:	ff 25 a2 be 02 00    	jmp    *0x2bea2(%rip)        # 2cf48 <_gfortran_transfer_character@GFORTRAN_8>
    10a6:	68 07 00 00 00       	push   $0x7
    10ab:	e9 70 ff ff ff       	jmp    1020 <_init+0x20>

00000000000010b0 <_gfortran_transfer_integer_write@plt>:
    10b0:	ff 25 9a be 02 00    	jmp    *0x2be9a(%rip)        # 2cf50 <_gfortran_transfer_integer_write@GFORTRAN_8>
    10b6:	68 08 00 00 00       	push   $0x8
    10bb:	e9 60 ff ff ff       	jmp    1020 <_init+0x20>

00000000000010c0 <free@plt>:
    10c0:	ff 25 92 be 02 00    	jmp    *0x2be92(%rip)        # 2cf58 <free@GLIBC_2.2.5>
    10c6:	68 09 00 00 00       	push   $0x9
    10cb:	e9 50 ff ff ff       	jmp    1020 <_init+0x20>

00000000000010d0 <_gfortran_transfer_integer@plt>:
    10d0:	ff 25 8a be 02 00    	jmp    *0x2be8a(%rip)        # 2cf60 <_gfortran_transfer_integer@GFORTRAN_8>
    10d6:	68 0a 00 00 00       	push   $0xa
    10db:	e9 40 ff ff ff       	jmp    1020 <_init+0x20>

00000000000010e0 <_gfortran_st_open@plt>:
    10e0:	ff 25 82 be 02 00    	jmp    *0x2be82(%rip)        # 2cf68 <_gfortran_st_open@GFORTRAN_8>
    10e6:	68 0b 00 00 00       	push   $0xb
    10eb:	e9 30 ff ff ff       	jmp    1020 <_init+0x20>

00000000000010f0 <_gfortran_transfer_character_write@plt>:
    10f0:	ff 25 7a be 02 00    	jmp    *0x2be7a(%rip)        # 2cf70 <_gfortran_transfer_character_write@GFORTRAN_8>
    10f6:	68 0c 00 00 00       	push   $0xc
    10fb:	e9 20 ff ff ff       	jmp    1020 <_init+0x20>

0000000000001100 <_gfortran_cshift0_4@plt>:
    1100:	ff 25 72 be 02 00    	jmp    *0x2be72(%rip)        # 2cf78 <_gfortran_cshift0_4@GFORTRAN_8>
    1106:	68 0d 00 00 00       	push   $0xd
    110b:	e9 10 ff ff ff       	jmp    1020 <_init+0x20>

0000000000001110 <_gfortran_st_read@plt>:
    1110:	ff 25 6a be 02 00    	jmp    *0x2be6a(%rip)        # 2cf80 <_gfortran_st_read@GFORTRAN_8>
    1116:	68 0e 00 00 00       	push   $0xe
    111b:	e9 00 ff ff ff       	jmp    1020 <_init+0x20>

0000000000001120 <_gfortran_st_write_done@plt>:
    1120:	ff 25 62 be 02 00    	jmp    *0x2be62(%rip)        # 2cf88 <_gfortran_st_write_done@GFORTRAN_8>
    1126:	68 0f 00 00 00       	push   $0xf
    112b:	e9 f0 fe ff ff       	jmp    1020 <_init+0x20>

0000000000001130 <_gfortran_transfer_array_write@plt>:
    1130:	ff 25 5a be 02 00    	jmp    *0x2be5a(%rip)        # 2cf90 <_gfortran_transfer_array_write@GFORTRAN_8>
    1136:	68 10 00 00 00       	push   $0x10
    113b:	e9 e0 fe ff ff       	jmp    1020 <_init+0x20>

0000000000001140 <_gfortran_reshape_4@plt>:
    1140:	ff 25 52 be 02 00    	jmp    *0x2be52(%rip)        # 2cf98 <_gfortran_reshape_4@GFORTRAN_8>
    1146:	68 11 00 00 00       	push   $0x11
    114b:	e9 d0 fe ff ff       	jmp    1020 <_init+0x20>

0000000000001150 <_gfortran_set_options@plt>:
    1150:	ff 25 4a be 02 00    	jmp    *0x2be4a(%rip)        # 2cfa0 <_gfortran_set_options@GFORTRAN_8>
    1156:	68 12 00 00 00       	push   $0x12
    115b:	e9 c0 fe ff ff       	jmp    1020 <_init+0x20>

0000000000001160 <_gfortran_iargc@plt>:
    1160:	ff 25 42 be 02 00    	jmp    *0x2be42(%rip)        # 2cfa8 <_gfortran_iargc@GFORTRAN_8>
    1166:	68 13 00 00 00       	push   $0x13
    116b:	e9 b0 fe ff ff       	jmp    1020 <_init+0x20>

0000000000001170 <_gfortran_get_command_argument_i4@plt>:
    1170:	ff 25 3a be 02 00    	jmp    *0x2be3a(%rip)        # 2cfb0 <_gfortran_get_command_argument_i4@GFORTRAN_8>
    1176:	68 14 00 00 00       	push   $0x14
    117b:	e9 a0 fe ff ff       	jmp    1020 <_init+0x20>

0000000000001180 <_gfortran_set_args@plt>:
    1180:	ff 25 32 be 02 00    	jmp    *0x2be32(%rip)        # 2cfb8 <_gfortran_set_args@GFORTRAN_8>
    1186:	68 15 00 00 00       	push   $0x15
    118b:	e9 90 fe ff ff       	jmp    1020 <_init+0x20>

0000000000001190 <_gfortran_st_write@plt>:
    1190:	ff 25 2a be 02 00    	jmp    *0x2be2a(%rip)        # 2cfc0 <_gfortran_st_write@GFORTRAN_8>
    1196:	68 16 00 00 00       	push   $0x16
    119b:	e9 80 fe ff ff       	jmp    1020 <_init+0x20>

00000000000011a0 <_gfortran_transfer_array@plt>:
    11a0:	ff 25 22 be 02 00    	jmp    *0x2be22(%rip)        # 2cfc8 <_gfortran_transfer_array@GFORTRAN_8>
    11a6:	68 17 00 00 00       	push   $0x17
    11ab:	e9 70 fe ff ff       	jmp    1020 <_init+0x20>

00000000000011b0 <memcpy@plt>:
    11b0:	ff 25 1a be 02 00    	jmp    *0x2be1a(%rip)        # 2cfd0 <memcpy@GLIBC_2.14>
    11b6:	68 18 00 00 00       	push   $0x18
    11bb:	e9 60 fe ff ff       	jmp    1020 <_init+0x20>

Disassembly of section .plt.got:

00000000000011c0 <__cxa_finalize@plt>:
    11c0:	ff 25 2a be 02 00    	jmp    *0x2be2a(%rip)        # 2cff0 <__cxa_finalize@GLIBC_2.2.5>
    11c6:	66 90                	xchg   %ax,%ax

Disassembly of section .text:

00000000000011d0 <main>:
    11d0:	48 83 ec 08          	sub    $0x8,%rsp
    11d4:	e8 a7 ff ff ff       	call   1180 <_gfortran_set_args@plt>
    11d9:	48 8d 35 40 9e 02 00 	lea    0x29e40(%rip),%rsi        # 2b020 <options.1104.20>
    11e0:	bf 07 00 00 00       	mov    $0x7,%edi
    11e5:	e8 66 ff ff ff       	call   1150 <_gfortran_set_options@plt>
    11ea:	e8 c1 6f 02 00       	call   281b0 <MAIN__>
    11ef:	90                   	nop

00000000000011f0 <_start>:
    11f0:	f3 0f 1e fa          	endbr64 
    11f4:	31 ed                	xor    %ebp,%ebp
    11f6:	49 89 d1             	mov    %rdx,%r9
    11f9:	5e                   	pop    %rsi
    11fa:	48 89 e2             	mov    %rsp,%rdx
    11fd:	48 83 e4 f0          	and    $0xfffffffffffffff0,%rsp
    1201:	50                   	push   %rax
    1202:	54                   	push   %rsp
    1203:	45 31 c0             	xor    %r8d,%r8d
    1206:	31 c9                	xor    %ecx,%ecx
    1208:	48 8d 3d c1 ff ff ff 	lea    -0x3f(%rip),%rdi        # 11d0 <main>
    120f:	ff 15 e3 bd 02 00    	call   *0x2bde3(%rip)        # 2cff8 <__libc_start_main@GLIBC_2.34>
    1215:	f4                   	hlt    
    1216:	66 2e 0f 1f 84 00 00 	cs nopw 0x0(%rax,%rax,1)
    121d:	00 00 00 

0000000000001220 <deregister_tm_clones>:
    1220:	48 8d 3d 21 be 02 00 	lea    0x2be21(%rip),%rdi        # 2d048 <__TMC_END__>
    1227:	48 8d 05 1a be 02 00 	lea    0x2be1a(%rip),%rax        # 2d048 <__TMC_END__>
    122e:	48 39 f8             	cmp    %rdi,%rax
    1231:	74 15                	je     1248 <deregister_tm_clones+0x28>
    1233:	48 8b 05 a6 bd 02 00 	mov    0x2bda6(%rip),%rax        # 2cfe0 <_ITM_deregisterTMCloneTable@Base>
    123a:	48 85 c0             	test   %rax,%rax
    123d:	74 09                	je     1248 <deregister_tm_clones+0x28>
    123f:	ff e0                	jmp    *%rax
    1241:	0f 1f 80 00 00 00 00 	nopl   0x0(%rax)
    1248:	c3                   	ret    
    1249:	0f 1f 80 00 00 00 00 	nopl   0x0(%rax)

0000000000001250 <register_tm_clones>:
    1250:	48 8d 3d f1 bd 02 00 	lea    0x2bdf1(%rip),%rdi        # 2d048 <__TMC_END__>
    1257:	48 8d 35 ea bd 02 00 	lea    0x2bdea(%rip),%rsi        # 2d048 <__TMC_END__>
    125e:	48 29 fe             	sub    %rdi,%rsi
    1261:	48 89 f0             	mov    %rsi,%rax
    1264:	48 c1 ee 3f          	shr    $0x3f,%rsi
    1268:	48 c1 f8 03          	sar    $0x3,%rax
    126c:	48 01 c6             	add    %rax,%rsi
    126f:	48 d1 fe             	sar    %rsi
    1272:	74 14                	je     1288 <register_tm_clones+0x38>
    1274:	48 8b 05 6d bd 02 00 	mov    0x2bd6d(%rip),%rax        # 2cfe8 <_ITM_registerTMCloneTable@Base>
    127b:	48 85 c0             	test   %rax,%rax
    127e:	74 08                	je     1288 <register_tm_clones+0x38>
    1280:	ff e0                	jmp    *%rax
    1282:	66 0f 1f 44 00 00    	nopw   0x0(%rax,%rax,1)
    1288:	c3                   	ret    
    1289:	0f 1f 80 00 00 00 00 	nopl   0x0(%rax)

0000000000001290 <__do_global_dtors_aux>:
    1290:	f3 0f 1e fa          	endbr64 
    1294:	80 3d c5 bd 02 00 00 	cmpb   $0x0,0x2bdc5(%rip)        # 2d060 <completed.0>
    129b:	75 2b                	jne    12c8 <__do_global_dtors_aux+0x38>
    129d:	55                   	push   %rbp
    129e:	48 83 3d 4a bd 02 00 	cmpq   $0x0,0x2bd4a(%rip)        # 2cff0 <__cxa_finalize@GLIBC_2.2.5>
    12a5:	00 
    12a6:	48 89 e5             	mov    %rsp,%rbp
    12a9:	74 0c                	je     12b7 <__do_global_dtors_aux+0x27>
    12ab:	48 8b 3d 56 bd 02 00 	mov    0x2bd56(%rip),%rdi        # 2d008 <__dso_handle>
    12b2:	e8 09 ff ff ff       	call   11c0 <__cxa_finalize@plt>
    12b7:	e8 64 ff ff ff       	call   1220 <deregister_tm_clones>
    12bc:	c6 05 9d bd 02 00 01 	movb   $0x1,0x2bd9d(%rip)        # 2d060 <completed.0>
    12c3:	5d                   	pop    %rbp
    12c4:	c3                   	ret    
    12c5:	0f 1f 00             	nopl   (%rax)
    12c8:	c3                   	ret    
    12c9:	0f 1f 80 00 00 00 00 	nopl   0x0(%rax)

00000000000012d0 <frame_dummy>:
    12d0:	f3 0f 1e fa          	endbr64 
    12d4:	e9 77 ff ff ff       	jmp    1250 <register_tm_clones>
    12d9:	0f 1f 80 00 00 00 00 	nopl   0x0(%rax)

00000000000012e0 <hidden_triplets.0>:
    12e0:	41 57                	push   %r15
    12e2:	66 0f ef c9          	pxor   %xmm1,%xmm1
    12e6:	41 56                	push   %r14
    12e8:	41 55                	push   %r13
    12ea:	41 54                	push   %r12
    12ec:	55                   	push   %rbp
    12ed:	53                   	push   %rbx
    12ee:	48 81 ec 20 02 00 00 	sub    $0x220,%rsp
    12f5:	49 8b 7a 58          	mov    0x58(%r10),%rdi
    12f9:	49 8b 42 18          	mov    0x18(%r10),%rax
    12fd:	41 c7 42 7c 01 00 00 	movl   $0x1,0x7c(%r10)
    1304:	00 
    1305:	49 8b 52 60          	mov    0x60(%r10),%rdx
    1309:	4d 8b 42 50          	mov    0x50(%r10),%r8
    130d:	4c 89 94 24 00 01 00 	mov    %r10,0x100(%rsp)
    1314:	00 
    1315:	4d 8b 7a 48          	mov    0x48(%r10),%r15
    1319:	4d 8b 6a 30          	mov    0x30(%r10),%r13
    131d:	48 89 84 24 88 00 00 	mov    %rax,0x88(%rsp)
    1324:	00 
    1325:	48 8d 04 bd 00 00 00 	lea    0x0(,%rdi,4),%rax
    132c:	00 
    132d:	49 8b 5a 20          	mov    0x20(%r10),%rbx
    1331:	4d 8b 4a 38          	mov    0x38(%r10),%r9
    1335:	48 89 44 24 88       	mov    %rax,-0x78(%rsp)
    133a:	49 8b 42 70          	mov    0x70(%r10),%rax
    133e:	4d 8b 72 40          	mov    0x40(%r10),%r14
    1342:	48 89 54 24 98       	mov    %rdx,-0x68(%rsp)
    1347:	4d 8b 5a 68          	mov    0x68(%r10),%r11
    134b:	4c 89 4c 24 a0       	mov    %r9,-0x60(%rsp)
    1350:	48 89 44 24 28       	mov    %rax,0x28(%rsp)
    1355:	48 01 d0             	add    %rdx,%rax
    1358:	48 8d 14 95 00 00 00 	lea    0x0(,%rdx,4),%rdx
    135f:	00 
    1360:	48 89 c6             	mov    %rax,%rsi
    1363:	48 89 84 24 f0 00 00 	mov    %rax,0xf0(%rsp)
    136a:	00 
    136b:	48 89 f8             	mov    %rdi,%rax
    136e:	48 01 f0             	add    %rsi,%rax
    1371:	48 89 5c 24 b0       	mov    %rbx,-0x50(%rsp)
    1376:	49 8d 76 ff          	lea    -0x1(%r14),%rsi
    137a:	49 8d 04 80          	lea    (%r8,%rax,4),%rax
    137e:	48 89 7c 24 d0       	mov    %rdi,-0x30(%rsp)
    1383:	48 89 44 24 b8       	mov    %rax,-0x48(%rsp)
    1388:	4b 8d 44 3d 00       	lea    0x0(%r13,%r15,1),%rax
    138d:	48 89 84 24 40 01 00 	mov    %rax,0x140(%rsp)
    1394:	00 
    1395:	48 89 c1             	mov    %rax,%rcx
    1398:	4c 89 44 24 f8       	mov    %r8,-0x8(%rsp)
    139d:	4c 89 bc 24 e8 00 00 	mov    %r15,0xe8(%rsp)
    13a4:	00 
    13a5:	4d 8b 52 28          	mov    0x28(%r10),%r10
    13a9:	48 89 74 24 c8       	mov    %rsi,-0x38(%rsp)
    13ae:	4c 89 f6             	mov    %r14,%rsi
    13b1:	4a 8d 04 50          	lea    (%rax,%r10,2),%rax
    13b5:	48 c1 ee 02          	shr    $0x2,%rsi
    13b9:	4e 8d 24 95 00 00 00 	lea    0x0(,%r10,4),%r12
    13c0:	00 
    13c1:	4c 89 54 24 a8       	mov    %r10,-0x58(%rsp)
    13c6:	48 f7 d8             	neg    %rax
    13c9:	48 89 74 24 d8       	mov    %rsi,-0x28(%rsp)
    13ce:	4c 89 f6             	mov    %r14,%rsi
    13d1:	48 89 44 24 10       	mov    %rax,0x10(%rsp)
    13d6:	49 8d 43 ff          	lea    -0x1(%r11),%rax
    13da:	48 83 e6 fc          	and    $0xfffffffffffffffc,%rsi
    13de:	48 89 44 24 38       	mov    %rax,0x38(%rsp)
    13e3:	4c 89 d8             	mov    %r11,%rax
    13e6:	48 c1 e8 02          	shr    $0x2,%rax
    13ea:	48 89 74 24 c0       	mov    %rsi,-0x40(%rsp)
    13ef:	48 83 c6 01          	add    $0x1,%rsi
    13f3:	48 89 44 24 50       	mov    %rax,0x50(%rsp)
    13f8:	4c 89 d8             	mov    %r11,%rax
    13fb:	48 83 e0 fc          	and    $0xfffffffffffffffc,%rax
    13ff:	48 89 94 24 a8 00 00 	mov    %rdx,0xa8(%rsp)
    1406:	00 
    1407:	48 89 44 24 40       	mov    %rax,0x40(%rsp)
    140c:	48 83 c0 01          	add    $0x1,%rax
    1410:	48 89 44 24 68       	mov    %rax,0x68(%rsp)
    1415:	49 8d 04 1c          	lea    (%r12,%rbx,1),%rax
    1419:	48 89 84 24 a0 00 00 	mov    %rax,0xa0(%rsp)
    1420:	00 
    1421:	4c 89 d0             	mov    %r10,%rax
    1424:	4c 01 c8             	add    %r9,%rax
    1427:	48 89 74 24 e8       	mov    %rsi,-0x18(%rsp)
    142c:	48 8d 04 83          	lea    (%rbx,%rax,4),%rax
    1430:	48 89 4c 24 f0       	mov    %rcx,-0x10(%rsp)
    1435:	48 89 84 24 b0 00 00 	mov    %rax,0xb0(%rsp)
    143c:	00 
    143d:	4a 8d 04 8d 00 00 00 	lea    0x0(,%r9,4),%rax
    1444:	00 
    1445:	4d 89 f1             	mov    %r14,%r9
    1448:	48 89 04 24          	mov    %rax,(%rsp)
    144c:	48 01 d8             	add    %rbx,%rax
    144f:	4d 85 f6             	test   %r14,%r14
    1452:	48 89 84 24 80 00 00 	mov    %rax,0x80(%rsp)
    1459:	00 
    145a:	b8 01 00 00 00       	mov    $0x1,%eax
    145f:	49 0f 4f c6          	cmovg  %r14,%rax
    1463:	48 89 7c 24 e0       	mov    %rdi,-0x20(%rsp)
    1468:	49 89 d6             	mov    %rdx,%r14
    146b:	c7 44 24 20 09 00 00 	movl   $0x9,0x20(%rsp)
    1472:	00 
    1473:	48 89 c3             	mov    %rax,%rbx
    1476:	48 89 84 24 c8 00 00 	mov    %rax,0xc8(%rsp)
    147d:	00 
    147e:	48 83 e0 fc          	and    $0xfffffffffffffffc,%rax
    1482:	48 89 84 24 d8 00 00 	mov    %rax,0xd8(%rsp)
    1489:	00 
    148a:	48 c1 eb 02          	shr    $0x2,%rbx
    148e:	48 83 c0 01          	add    $0x1,%rax
    1492:	48 89 9c 24 d0 00 00 	mov    %rbx,0xd0(%rsp)
    1499:	00 
    149a:	48 89 84 24 e0 00 00 	mov    %rax,0xe0(%rsp)
    14a1:	00 
    14a2:	4c 89 6c 24 18       	mov    %r13,0x18(%rsp)
    14a7:	4c 89 5c 24 90       	mov    %r11,-0x70(%rsp)
    14ac:	4d 89 e3             	mov    %r12,%r11
    14af:	90                   	nop
    14b0:	48 8b 44 24 28       	mov    0x28(%rsp),%rax
    14b5:	48 03 44 24 e0       	add    -0x20(%rsp),%rax
    14ba:	48 83 7c 24 90 00    	cmpq   $0x0,-0x70(%rsp)
    14c0:	48 89 44 24 08       	mov    %rax,0x8(%rsp)
    14c5:	0f 8e d5 1a 00 00    	jle    2fa0 <hidden_triplets.0+0x1cc0>
    14cb:	48 83 7c 24 98 01    	cmpq   $0x1,-0x68(%rsp)
    14d1:	0f 85 ae 26 00 00    	jne    3b85 <hidden_triplets.0+0x28a5>
    14d7:	48 83 7c 24 38 02    	cmpq   $0x2,0x38(%rsp)
    14dd:	0f 86 41 2a 00 00    	jbe    3f24 <hidden_triplets.0+0x2c44>
    14e3:	48 8b 44 24 b8       	mov    -0x48(%rsp),%rax
    14e8:	48 8b 74 24 50       	mov    0x50(%rsp),%rsi
    14ed:	66 0f ef d2          	pxor   %xmm2,%xmm2
    14f1:	4c 29 f0             	sub    %r14,%rax
    14f4:	48 8d 48 04          	lea    0x4(%rax),%rcx
    14f8:	31 c0                	xor    %eax,%eax
    14fa:	66 0f 1f 44 00 00    	nopw   0x0(%rax,%rax,1)
    1500:	48 89 c2             	mov    %rax,%rdx
    1503:	48 83 c0 01          	add    $0x1,%rax
    1507:	48 c1 e2 04          	shl    $0x4,%rdx
    150b:	f3 0f 6f 04 11       	movdqu (%rcx,%rdx,1),%xmm0
    1510:	66 0f 76 c1          	pcmpeqd %xmm1,%xmm0
    1514:	66 0f fa d0          	psubd  %xmm0,%xmm2
    1518:	48 39 c6             	cmp    %rax,%rsi
    151b:	75 e3                	jne    1500 <hidden_triplets.0+0x220>
    151d:	66 0f 6f c2          	movdqa %xmm2,%xmm0
    1521:	48 8b 4c 24 40       	mov    0x40(%rsp),%rcx
    1526:	66 0f 73 d8 08       	psrldq $0x8,%xmm0
    152b:	66 0f fe d0          	paddd  %xmm0,%xmm2
    152f:	66 0f 6f c2          	movdqa %xmm2,%xmm0
    1533:	66 0f 73 d8 04       	psrldq $0x4,%xmm0
    1538:	66 0f fe d0          	paddd  %xmm0,%xmm2
    153c:	66 0f 7e d0          	movd   %xmm2,%eax
    1540:	48 39 4c 24 90       	cmp    %rcx,-0x70(%rsp)
    1545:	74 45                	je     158c <hidden_triplets.0+0x2ac>
    1547:	48 8b 54 24 68       	mov    0x68(%rsp),%rdx
    154c:	48 8b 7c 24 08       	mov    0x8(%rsp),%rdi
    1551:	48 8b 5c 24 f8       	mov    -0x8(%rsp),%rbx
    1556:	48 8b 74 24 90       	mov    -0x70(%rsp),%rsi
    155b:	48 8d 0c 3a          	lea    (%rdx,%rdi,1),%rcx
    155f:	83 3c 8b 01          	cmpl   $0x1,(%rbx,%rcx,4)
    1563:	48 8d 4a 01          	lea    0x1(%rdx),%rcx
    1567:	83 d0 00             	adc    $0x0,%eax
    156a:	48 39 ce             	cmp    %rcx,%rsi
    156d:	7c 1d                	jl     158c <hidden_triplets.0+0x2ac>
    156f:	48 01 f9             	add    %rdi,%rcx
    1572:	83 3c 8b 01          	cmpl   $0x1,(%rbx,%rcx,4)
    1576:	83 d0 00             	adc    $0x0,%eax
    1579:	48 83 c2 02          	add    $0x2,%rdx
    157d:	48 39 d6             	cmp    %rdx,%rsi
    1580:	7c 0a                	jl     158c <hidden_triplets.0+0x2ac>
    1582:	48 01 fa             	add    %rdi,%rdx
    1585:	83 3c 93 01          	cmpl   $0x1,(%rbx,%rdx,4)
    1589:	83 d0 00             	adc    $0x0,%eax
    158c:	83 f8 03             	cmp    $0x3,%eax
    158f:	0f 85 0b 1a 00 00    	jne    2fa0 <hidden_triplets.0+0x1cc0>
    1595:	48 8b 7c 24 88       	mov    -0x78(%rsp),%rdi
    159a:	48 8b 5c 24 18       	mov    0x18(%rsp),%rbx
    159f:	48 01 7c 24 b8       	add    %rdi,-0x48(%rsp)
    15a4:	48 8b 7c 24 d0       	mov    -0x30(%rsp),%rdi
    15a9:	48 29 5c 24 10       	sub    %rbx,0x10(%rsp)
    15ae:	48 01 7c 24 e0       	add    %rdi,-0x20(%rsp)
    15b3:	48 01 5c 24 f0       	add    %rbx,-0x10(%rsp)
    15b8:	83 6c 24 20 01       	subl   $0x1,0x20(%rsp)
    15bd:	0f 85 ed fe ff ff    	jne    14b0 <hidden_triplets.0+0x1d0>
    15c3:	48 8b 8c 24 00 01 00 	mov    0x100(%rsp),%rcx
    15ca:	00 
    15cb:	49 89 dd             	mov    %rbx,%r13
    15ce:	48 8b 05 cb 9b 02 00 	mov    0x29bcb(%rip),%rax        # 2b1a0 <A.361.27+0x158>
    15d5:	c7 44 24 10 09 00 00 	movl   $0x9,0x10(%rsp)
    15dc:	00 
    15dd:	48 8b bc 24 f0 00 00 	mov    0xf0(%rsp),%rdi
    15e4:	00 
    15e5:	4a 8d 2c ad 00 00 00 	lea    0x0(,%r13,4),%rbp
    15ec:	00 
    15ed:	4c 89 6c 24 90       	mov    %r13,-0x70(%rsp)
    15f2:	66 0f ef c9          	pxor   %xmm1,%xmm1
    15f6:	48 89 41 78          	mov    %rax,0x78(%rcx)
    15fa:	48 8b 41 08          	mov    0x8(%rcx),%rax
    15fe:	48 8b 59 10          	mov    0x10(%rcx),%rbx
    1602:	48 8b 8c 24 e8 00 00 	mov    0xe8(%rsp),%rcx
    1609:	00 
    160a:	48 89 7c 24 f0       	mov    %rdi,-0x10(%rsp)
    160f:	48 89 44 24 68       	mov    %rax,0x68(%rsp)
    1614:	48 8b 44 24 f8       	mov    -0x8(%rsp),%rax
    1619:	48 03 4c 24 a8       	add    -0x58(%rsp),%rcx
    161e:	48 89 5c 24 b8       	mov    %rbx,-0x48(%rsp)
    1623:	4c 8d 64 b8 04       	lea    0x4(%rax,%rdi,4),%r12
    1628:	48 8d 43 ff          	lea    -0x1(%rbx),%rax
    162c:	48 89 4c 24 08       	mov    %rcx,0x8(%rsp)
    1631:	48 89 ef             	mov    %rbp,%rdi
    1634:	48 89 44 24 20       	mov    %rax,0x20(%rsp)
    1639:	48 89 d8             	mov    %rbx,%rax
    163c:	48 c1 e8 02          	shr    $0x2,%rax
    1640:	48 89 8c 24 38 01 00 	mov    %rcx,0x138(%rsp)
    1647:	00 
    1648:	48 89 44 24 40       	mov    %rax,0x40(%rsp)
    164d:	48 89 d8             	mov    %rbx,%rax
    1650:	48 83 e0 fc          	and    $0xfffffffffffffffc,%rax
    1654:	48 89 44 24 30       	mov    %rax,0x30(%rsp)
    1659:	48 83 c0 01          	add    $0x1,%rax
    165d:	48 89 44 24 50       	mov    %rax,0x50(%rsp)
    1662:	48 8b 44 24 d0       	mov    -0x30(%rsp),%rax
    1667:	48 8d 34 00          	lea    (%rax,%rax,1),%rsi
    166b:	48 c1 e0 03          	shl    $0x3,%rax
    166f:	48 89 b4 24 30 01 00 	mov    %rsi,0x130(%rsp)
    1676:	00 
    1677:	48 8b 74 24 b0       	mov    -0x50(%rsp),%rsi
    167c:	48 89 44 24 78       	mov    %rax,0x78(%rsp)
    1681:	48 8d 04 2e          	lea    (%rsi,%rbp,1),%rax
    1685:	4c 89 e5             	mov    %r12,%rbp
    1688:	48 89 84 24 88 00 00 	mov    %rax,0x88(%rsp)
    168f:	00 
    1690:	48 8b 44 24 a0       	mov    -0x60(%rsp),%rax
    1695:	4c 01 e8             	add    %r13,%rax
    1698:	48 8d 04 86          	lea    (%rsi,%rax,4),%rax
    169c:	48 89 84 24 90 00 00 	mov    %rax,0x90(%rsp)
    16a3:	00 
    16a4:	48 8b 44 24 88       	mov    -0x78(%rsp),%rax
    16a9:	48 f7 d8             	neg    %rax
    16ac:	48 89 44 24 e0       	mov    %rax,-0x20(%rsp)
    16b1:	0f 1f 80 00 00 00 00 	nopl   0x0(%rax)
    16b8:	48 83 7c 24 b8 00    	cmpq   $0x0,-0x48(%rsp)
    16be:	0f 8e 73 0d 00 00    	jle    2437 <hidden_triplets.0+0x1157>
    16c4:	48 83 7c 24 d0 01    	cmpq   $0x1,-0x30(%rsp)
    16ca:	0f 85 df 24 00 00    	jne    3baf <hidden_triplets.0+0x28cf>
    16d0:	48 83 7c 24 20 02    	cmpq   $0x2,0x20(%rsp)
    16d6:	0f 86 3c 28 00 00    	jbe    3f18 <hidden_triplets.0+0x2c38>
    16dc:	48 8b 4c 24 40       	mov    0x40(%rsp),%rcx
    16e1:	31 c0                	xor    %eax,%eax
    16e3:	66 0f ef d2          	pxor   %xmm2,%xmm2
    16e7:	66 0f 1f 84 00 00 00 	nopw   0x0(%rax,%rax,1)
    16ee:	00 00 
    16f0:	48 89 c2             	mov    %rax,%rdx
    16f3:	48 83 c0 01          	add    $0x1,%rax
    16f7:	48 c1 e2 04          	shl    $0x4,%rdx
    16fb:	f3 0f 6f 44 15 00    	movdqu 0x0(%rbp,%rdx,1),%xmm0
    1701:	66 0f 76 c1          	pcmpeqd %xmm1,%xmm0
    1705:	66 0f fa d0          	psubd  %xmm0,%xmm2
    1709:	48 39 c1             	cmp    %rax,%rcx
    170c:	75 e2                	jne    16f0 <hidden_triplets.0+0x410>
    170e:	66 0f 6f c2          	movdqa %xmm2,%xmm0
    1712:	48 8b 5c 24 30       	mov    0x30(%rsp),%rbx
    1717:	66 0f 73 d8 08       	psrldq $0x8,%xmm0
    171c:	66 0f fe d0          	paddd  %xmm0,%xmm2
    1720:	66 0f 6f c2          	movdqa %xmm2,%xmm0
    1724:	66 0f 73 d8 04       	psrldq $0x4,%xmm0
    1729:	66 0f fe d0          	paddd  %xmm0,%xmm2
    172d:	66 0f 7e d0          	movd   %xmm2,%eax
    1731:	48 39 5c 24 b8       	cmp    %rbx,-0x48(%rsp)
    1736:	74 45                	je     177d <hidden_triplets.0+0x49d>
    1738:	48 8b 54 24 50       	mov    0x50(%rsp),%rdx
    173d:	48 8b 5c 24 f0       	mov    -0x10(%rsp),%rbx
    1742:	48 8b 74 24 f8       	mov    -0x8(%rsp),%rsi
    1747:	4c 8b 44 24 b8       	mov    -0x48(%rsp),%r8
    174c:	48 8d 0c 13          	lea    (%rbx,%rdx,1),%rcx
    1750:	83 3c 8e 01          	cmpl   $0x1,(%rsi,%rcx,4)
    1754:	48 8d 4a 01          	lea    0x1(%rdx),%rcx
    1758:	83 d0 00             	adc    $0x0,%eax
    175b:	49 39 c8             	cmp    %rcx,%r8
    175e:	7c 1d                	jl     177d <hidden_triplets.0+0x49d>
    1760:	48 01 d9             	add    %rbx,%rcx
    1763:	83 3c 8e 01          	cmpl   $0x1,(%rsi,%rcx,4)
    1767:	83 d0 00             	adc    $0x0,%eax
    176a:	48 83 c2 02          	add    $0x2,%rdx
    176e:	49 39 d0             	cmp    %rdx,%r8
    1771:	7c 0a                	jl     177d <hidden_triplets.0+0x49d>
    1773:	48 01 da             	add    %rbx,%rdx
    1776:	83 3c 96 01          	cmpl   $0x1,(%rsi,%rdx,4)
    177a:	83 d0 00             	adc    $0x0,%eax
    177d:	83 f8 03             	cmp    $0x3,%eax
    1780:	0f 85 b1 0c 00 00    	jne    2437 <hidden_triplets.0+0x1157>
    1786:	48 8b 5c 24 98       	mov    -0x68(%rsp),%rbx
    178b:	48 03 ac 24 a8 00 00 	add    0xa8(%rsp),%rbp
    1792:	00 
    1793:	48 01 5c 24 f0       	add    %rbx,-0x10(%rsp)
    1798:	48 8b 5c 24 a8       	mov    -0x58(%rsp),%rbx
    179d:	48 01 5c 24 08       	add    %rbx,0x8(%rsp)
    17a2:	83 6c 24 10 01       	subl   $0x1,0x10(%rsp)
    17a7:	0f 85 0b ff ff ff    	jne    16b8 <hidden_triplets.0+0x3d8>
    17ad:	48 8b 84 24 00 01 00 	mov    0x100(%rsp),%rax
    17b4:	00 
    17b5:	4c 8b 6c 24 90       	mov    -0x70(%rsp),%r13
    17ba:	48 89 fd             	mov    %rdi,%rbp
    17bd:	c7 44 24 b8 01 00 00 	movl   $0x1,-0x48(%rsp)
    17c4:	00 
    17c5:	48 8b 7c 24 d0       	mov    -0x30(%rsp),%rdi
    17ca:	48 8b 4c 24 b0       	mov    -0x50(%rsp),%rcx
    17cf:	4c 89 4c 24 90       	mov    %r9,-0x70(%rsp)
    17d4:	c7 40 78 0a 00 00 00 	movl   $0xa,0x78(%rax)
    17db:	48 8b 84 24 38 01 00 	mov    0x138(%rsp),%rax
    17e2:	00 
    17e3:	4d 89 ee             	mov    %r13,%r14
    17e6:	48 89 fb             	mov    %rdi,%rbx
    17e9:	4c 01 e8             	add    %r13,%rax
    17ec:	48 89 44 24 10       	mov    %rax,0x10(%rsp)
    17f1:	48 8b 44 24 a8       	mov    -0x58(%rsp),%rax
    17f6:	48 f7 d8             	neg    %rax
    17f9:	48 89 44 24 18       	mov    %rax,0x18(%rsp)
    17fe:	48 8b 44 24 f8       	mov    -0x8(%rsp),%rax
    1803:	48 03 44 24 88       	add    -0x78(%rsp),%rax
    1808:	48 89 44 24 70       	mov    %rax,0x70(%rsp)
    180d:	48 8d 04 fd 00 00 00 	lea    0x0(,%rdi,8),%rax
    1814:	00 
    1815:	48 29 c3             	sub    %rax,%rbx
    1818:	48 8d 04 bd 00 00 00 	lea    0x0(,%rdi,4),%rax
    181f:	00 
    1820:	48 89 9c 24 58 01 00 	mov    %rbx,0x158(%rsp)
    1827:	00 
    1828:	48 89 fb             	mov    %rdi,%rbx
    182b:	48 29 c3             	sub    %rax,%rbx
    182e:	48 8d 04 1b          	lea    (%rbx,%rbx,1),%rax
    1832:	48 89 9c 24 60 01 00 	mov    %rbx,0x160(%rsp)
    1839:	00 
    183a:	48 89 84 24 68 01 00 	mov    %rax,0x168(%rsp)
    1841:	00 
    1842:	48 89 f8             	mov    %rdi,%rax
    1845:	48 f7 d8             	neg    %rax
    1848:	48 c1 e0 02          	shl    $0x2,%rax
    184c:	48 29 f8             	sub    %rdi,%rax
    184f:	48 89 84 24 70 01 00 	mov    %rax,0x170(%rsp)
    1856:	00 
    1857:	48 8b 84 24 30 01 00 	mov    0x130(%rsp),%rax
    185e:	00 
    185f:	48 f7 d8             	neg    %rax
    1862:	48 89 84 24 b8 00 00 	mov    %rax,0xb8(%rsp)
    1869:	00 
    186a:	48 8b 84 24 40 01 00 	mov    0x140(%rsp),%rax
    1871:	00 
    1872:	48 8d 3c 81          	lea    (%rcx,%rax,4),%rdi
    1876:	48 03 44 24 a0       	add    -0x60(%rsp),%rax
    187b:	48 8d 04 81          	lea    (%rcx,%rax,4),%rax
    187f:	48 89 bc 24 10 01 00 	mov    %rdi,0x110(%rsp)
    1886:	00 
    1887:	48 89 84 24 18 01 00 	mov    %rax,0x118(%rsp)
    188e:	00 
    188f:	48 8b 84 24 f0 00 00 	mov    0xf0(%rsp),%rax
    1896:	00 
    1897:	48 89 44 24 20       	mov    %rax,0x20(%rsp)
    189c:	0f 1f 40 00          	nopl   0x0(%rax)
    18a0:	8b 44 24 b8          	mov    -0x48(%rsp),%eax
    18a4:	bb ab aa aa aa       	mov    $0xaaaaaaab,%ebx
    18a9:	49 89 e9             	mov    %rbp,%r9
    18ac:	45 31 db             	xor    %r11d,%r11d
    18af:	48 8b 74 24 20       	mov    0x20(%rsp),%rsi
    18b4:	4c 8b 7c 24 10       	mov    0x10(%rsp),%r15
    18b9:	89 c7                	mov    %eax,%edi
    18bb:	83 e8 01             	sub    $0x1,%eax
    18be:	48 0f af c3          	imul   %rbx,%rax
    18c2:	48 c1 e8 21          	shr    $0x21,%rax
    18c6:	89 44 24 30          	mov    %eax,0x30(%rsp)
    18ca:	8d 04 40             	lea    (%rax,%rax,2),%eax
    18cd:	8d 58 01             	lea    0x1(%rax),%ebx
    18d0:	89 44 24 50          	mov    %eax,0x50(%rsp)
    18d4:	83 c0 03             	add    $0x3,%eax
    18d7:	89 44 24 38          	mov    %eax,0x38(%rsp)
    18db:	48 89 44 24 58       	mov    %rax,0x58(%rsp)
    18e0:	48 8b 44 24 70       	mov    0x70(%rsp),%rax
    18e5:	89 5c 24 40          	mov    %ebx,0x40(%rsp)
    18e9:	4c 8d 14 b0          	lea    (%rax,%rsi,4),%r10
    18ed:	48 8b 74 24 b0       	mov    -0x50(%rsp),%rsi
    18f2:	48 89 5c 24 08       	mov    %rbx,0x8(%rsp)
    18f7:	4a 8d 04 bd 00 00 00 	lea    0x0(,%r15,4),%rax
    18fe:	00 
    18ff:	4c 8d 24 06          	lea    (%rsi,%rax,1),%r12
    1903:	48 8b b4 24 80 00 00 	mov    0x80(%rsp),%rsi
    190a:	00 
    190b:	4c 89 e5             	mov    %r12,%rbp
    190e:	41 89 fc             	mov    %edi,%r12d
    1911:	4c 8d 2c 30          	lea    (%rax,%rsi,1),%r13
    1915:	48 8b 44 24 98       	mov    -0x68(%rsp),%rax
    191a:	48 0f af c3          	imul   %rbx,%rax
    191e:	48 03 44 24 28       	add    0x28(%rsp),%rax
    1923:	48 0f af 5c 24 a8    	imul   -0x58(%rsp),%rbx
    1929:	48 89 44 24 48       	mov    %rax,0x48(%rsp)
    192e:	48 8b 44 24 18       	mov    0x18(%rsp),%rax
    1933:	48 89 5c 24 78       	mov    %rbx,0x78(%rsp)
    1938:	4c 89 fb             	mov    %r15,%rbx
    193b:	4d 89 f7             	mov    %r14,%r15
    193e:	4d 89 d6             	mov    %r10,%r14
    1941:	4d 89 ea             	mov    %r13,%r10
    1944:	49 89 c5             	mov    %rax,%r13
    1947:	eb 2a                	jmp    1973 <hidden_triplets.0+0x693>
    1949:	0f 1f 80 00 00 00 00 	nopl   0x0(%rax)
    1950:	41 83 c3 01          	add    $0x1,%r11d
    1954:	4c 03 74 24 88       	add    -0x78(%rsp),%r14
    1959:	41 83 c4 09          	add    $0x9,%r12d
    195d:	4c 01 fb             	add    %r15,%rbx
    1960:	4c 01 cd             	add    %r9,%rbp
    1963:	4d 01 ca             	add    %r9,%r10
    1966:	4d 29 fd             	sub    %r15,%r13
    1969:	41 83 fb 09          	cmp    $0x9,%r11d
    196d:	0f 84 55 0a 00 00    	je     23c8 <hidden_triplets.0+0x10e8>
    1973:	41 8b 0e             	mov    (%r14),%ecx
    1976:	85 c9                	test   %ecx,%ecx
    1978:	75 d6                	jne    1950 <hidden_triplets.0+0x670>
    197a:	48 83 7c 24 90 00    	cmpq   $0x0,-0x70(%rsp)
    1980:	7e ce                	jle    1950 <hidden_triplets.0+0x670>
    1982:	48 83 7c 24 a0 01    	cmpq   $0x1,-0x60(%rsp)
    1988:	0f 85 7d 0a 00 00    	jne    240b <hidden_triplets.0+0x112b>
    198e:	48 83 7c 24 c8 02    	cmpq   $0x2,-0x38(%rsp)
    1994:	0f 86 df 21 00 00    	jbe    3b79 <hidden_triplets.0+0x2899>
    199a:	66 0f ef c9          	pxor   %xmm1,%xmm1
    199e:	48 8b 7c 24 d8       	mov    -0x28(%rsp),%rdi
    19a3:	48 8d 75 04          	lea    0x4(%rbp),%rsi
    19a7:	31 c0                	xor    %eax,%eax
    19a9:	66 0f 6f d1          	movdqa %xmm1,%xmm2
    19ad:	0f 1f 00             	nopl   (%rax)
    19b0:	48 89 c2             	mov    %rax,%rdx
    19b3:	48 83 c0 01          	add    $0x1,%rax
    19b7:	48 c1 e2 04          	shl    $0x4,%rdx
    19bb:	f3 0f 6f 04 16       	movdqu (%rsi,%rdx,1),%xmm0
    19c0:	66 0f 76 c2          	pcmpeqd %xmm2,%xmm0
    19c4:	66 0f 76 c2          	pcmpeqd %xmm2,%xmm0
    19c8:	66 0f fa c8          	psubd  %xmm0,%xmm1
    19cc:	48 39 f8             	cmp    %rdi,%rax
    19cf:	75 df                	jne    19b0 <hidden_triplets.0+0x6d0>
    19d1:	66 0f 6f c1          	movdqa %xmm1,%xmm0
    19d5:	48 8b 7c 24 c0       	mov    -0x40(%rsp),%rdi
    19da:	66 0f 73 d8 08       	psrldq $0x8,%xmm0
    19df:	66 0f fe c8          	paddd  %xmm0,%xmm1
    19e3:	66 0f 6f c1          	movdqa %xmm1,%xmm0
    19e7:	66 0f 73 d8 04       	psrldq $0x4,%xmm0
    19ec:	66 0f fe c8          	paddd  %xmm0,%xmm1
    19f0:	66 0f 7e c8          	movd   %xmm1,%eax
    19f4:	48 39 7c 24 90       	cmp    %rdi,-0x70(%rsp)
    19f9:	74 40                	je     1a3b <hidden_triplets.0+0x75b>
    19fb:	48 8b 54 24 e8       	mov    -0x18(%rsp),%rdx
    1a00:	48 8b 7c 24 b0       	mov    -0x50(%rsp),%rdi
    1a05:	48 8d 34 13          	lea    (%rbx,%rdx,1),%rsi
    1a09:	4c 8b 44 24 90       	mov    -0x70(%rsp),%r8
    1a0e:	83 3c b7 01          	cmpl   $0x1,(%rdi,%rsi,4)
    1a12:	48 8d 72 01          	lea    0x1(%rdx),%rsi
    1a16:	83 d8 ff             	sbb    $0xffffffff,%eax
    1a19:	49 39 f0             	cmp    %rsi,%r8
    1a1c:	7c 1d                	jl     1a3b <hidden_triplets.0+0x75b>
    1a1e:	48 01 de             	add    %rbx,%rsi
    1a21:	83 3c b7 01          	cmpl   $0x1,(%rdi,%rsi,4)
    1a25:	83 d8 ff             	sbb    $0xffffffff,%eax
    1a28:	48 83 c2 02          	add    $0x2,%rdx
    1a2c:	49 39 d0             	cmp    %rdx,%r8
    1a2f:	7c 0a                	jl     1a3b <hidden_triplets.0+0x75b>
    1a31:	48 01 da             	add    %rbx,%rdx
    1a34:	83 3c 97 01          	cmpl   $0x1,(%rdi,%rdx,4)
    1a38:	83 d8 ff             	sbb    $0xffffffff,%eax
    1a3b:	83 f8 01             	cmp    $0x1,%eax
    1a3e:	0f 8e 0c ff ff ff    	jle    1950 <hidden_triplets.0+0x670>
    1a44:	bf ab aa aa aa       	mov    $0xaaaaaaab,%edi
    1a49:	44 89 d8             	mov    %r11d,%eax
    1a4c:	48 0f af c7          	imul   %rdi,%rax
    1a50:	48 c1 e8 21          	shr    $0x21,%rax
    1a54:	89 84 24 b0 00 00 00 	mov    %eax,0xb0(%rsp)
    1a5b:	8d 04 40             	lea    (%rax,%rax,2),%eax
    1a5e:	8d 50 01             	lea    0x1(%rax),%edx
    1a61:	48 63 fa             	movslq %edx,%rdi
    1a64:	8d 50 03             	lea    0x3(%rax),%edx
    1a67:	48 89 7c 24 f0       	mov    %rdi,-0x10(%rsp)
    1a6c:	48 63 fa             	movslq %edx,%rdi
    1a6f:	8b 54 24 40          	mov    0x40(%rsp),%edx
    1a73:	39 54 24 38          	cmp    %edx,0x38(%rsp)
    1a77:	0f 82 d2 00 00 00    	jb     1b4f <hidden_triplets.0+0x86f>
    1a7d:	48 83 7c 24 d0 01    	cmpq   $0x1,-0x30(%rsp)
    1a83:	0f 85 56 21 00 00    	jne    3bdf <hidden_triplets.0+0x28ff>
    1a89:	8b 74 24 50          	mov    0x50(%rsp),%esi
    1a8d:	83 c0 02             	add    $0x2,%eax
    1a90:	89 4c 24 68          	mov    %ecx,0x68(%rsp)
    1a94:	48 98                	cltq   
    1a96:	44 89 9c 24 88 00 00 	mov    %r11d,0x88(%rsp)
    1a9d:	00 
    1a9e:	48 8b 54 24 48       	mov    0x48(%rsp),%rdx
    1aa3:	44 8d 46 04          	lea    0x4(%rsi),%r8d
    1aa7:	48 89 44 24 60       	mov    %rax,0x60(%rsp)
    1aac:	48 8b 74 24 08       	mov    0x8(%rsp),%rsi
    1ab1:	31 c0                	xor    %eax,%eax
    1ab3:	4c 89 b4 24 90 00 00 	mov    %r14,0x90(%rsp)
    1aba:	00 
    1abb:	48 8b 4c 24 f8       	mov    -0x8(%rsp),%rcx
    1ac0:	4d 89 c6             	mov    %r8,%r14
    1ac3:	44 89 a4 24 98 00 00 	mov    %r12d,0x98(%rsp)
    1aca:	00 
    1acb:	4c 8b 44 24 f0       	mov    -0x10(%rsp),%r8
    1ad0:	48 89 9c 24 a0 00 00 	mov    %rbx,0xa0(%rsp)
    1ad7:	00 
    1ad8:	4c 8b 64 24 98       	mov    -0x68(%rsp),%r12
    1add:	48 8b 5c 24 60       	mov    0x60(%rsp),%rbx
    1ae2:	66 0f 1f 44 00 00    	nopw   0x0(%rax,%rax,1)
    1ae8:	49 39 f8             	cmp    %rdi,%r8
    1aeb:	7f 29                	jg     1b16 <hidden_triplets.0+0x836>
    1aed:	4d 8d 1c 10          	lea    (%r8,%rdx,1),%r11
    1af1:	42 83 3c 99 01       	cmpl   $0x1,(%rcx,%r11,4)
    1af6:	83 d0 00             	adc    $0x0,%eax
    1af9:	48 39 df             	cmp    %rbx,%rdi
    1afc:	7c 18                	jl     1b16 <hidden_triplets.0+0x836>
    1afe:	4c 8d 1c 13          	lea    (%rbx,%rdx,1),%r11
    1b02:	42 83 3c 99 01       	cmpl   $0x1,(%rcx,%r11,4)
    1b07:	4c 8d 1c 17          	lea    (%rdi,%rdx,1),%r11
    1b0b:	83 d0 00             	adc    $0x0,%eax
    1b0e:	42 83 3c 99 01       	cmpl   $0x1,(%rcx,%r11,4)
    1b13:	83 d0 00             	adc    $0x0,%eax
    1b16:	48 83 c6 01          	add    $0x1,%rsi
    1b1a:	4c 01 e2             	add    %r12,%rdx
    1b1d:	4c 39 f6             	cmp    %r14,%rsi
    1b20:	75 c6                	jne    1ae8 <hidden_triplets.0+0x808>
    1b22:	8b 4c 24 68          	mov    0x68(%rsp),%ecx
    1b26:	44 8b 9c 24 88 00 00 	mov    0x88(%rsp),%r11d
    1b2d:	00 
    1b2e:	4c 8b b4 24 90 00 00 	mov    0x90(%rsp),%r14
    1b35:	00 
    1b36:	44 8b a4 24 98 00 00 	mov    0x98(%rsp),%r12d
    1b3d:	00 
    1b3e:	48 8b 9c 24 a0 00 00 	mov    0xa0(%rsp),%rbx
    1b45:	00 
    1b46:	83 f8 03             	cmp    $0x3,%eax
    1b49:	0f 84 01 fe ff ff    	je     1950 <hidden_triplets.0+0x670>
    1b4f:	48 83 7c 24 a0 01    	cmpq   $0x1,-0x60(%rsp)
    1b55:	0f 85 98 23 00 00    	jne    3ef3 <hidden_triplets.0+0x2c13>
    1b5b:	48 83 7c 24 c8 02    	cmpq   $0x2,-0x38(%rsp)
    1b61:	0f 86 11 27 00 00    	jbe    4278 <hidden_triplets.0+0x2f98>
    1b67:	66 0f ef c9          	pxor   %xmm1,%xmm1
    1b6b:	48 8b 74 24 d8       	mov    -0x28(%rsp),%rsi
    1b70:	48 8d 4d 04          	lea    0x4(%rbp),%rcx
    1b74:	31 c0                	xor    %eax,%eax
    1b76:	66 0f 6f d1          	movdqa %xmm1,%xmm2
    1b7a:	66 0f 1f 44 00 00    	nopw   0x0(%rax,%rax,1)
    1b80:	48 89 c2             	mov    %rax,%rdx
    1b83:	48 83 c0 01          	add    $0x1,%rax
    1b87:	48 c1 e2 04          	shl    $0x4,%rdx
    1b8b:	f3 0f 6f 04 11       	movdqu (%rcx,%rdx,1),%xmm0
    1b90:	66 0f 76 c2          	pcmpeqd %xmm2,%xmm0
    1b94:	66 0f 76 c2          	pcmpeqd %xmm2,%xmm0
    1b98:	66 0f fa c8          	psubd  %xmm0,%xmm1
    1b9c:	48 39 f0             	cmp    %rsi,%rax
    1b9f:	75 df                	jne    1b80 <hidden_triplets.0+0x8a0>
    1ba1:	66 0f 6f c1          	movdqa %xmm1,%xmm0
    1ba5:	48 8b 74 24 c0       	mov    -0x40(%rsp),%rsi
    1baa:	66 0f 73 d8 08       	psrldq $0x8,%xmm0
    1baf:	66 0f fe c8          	paddd  %xmm0,%xmm1
    1bb3:	66 0f 6f c1          	movdqa %xmm1,%xmm0
    1bb7:	66 0f 73 d8 04       	psrldq $0x4,%xmm0
    1bbc:	66 0f fe c8          	paddd  %xmm0,%xmm1
    1bc0:	66 0f 7e c9          	movd   %xmm1,%ecx
    1bc4:	48 39 74 24 90       	cmp    %rsi,-0x70(%rsp)
    1bc9:	74 40                	je     1c0b <hidden_triplets.0+0x92b>
    1bcb:	48 8b 44 24 e8       	mov    -0x18(%rsp),%rax
    1bd0:	48 8b 74 24 b0       	mov    -0x50(%rsp),%rsi
    1bd5:	48 8d 14 03          	lea    (%rbx,%rax,1),%rdx
    1bd9:	4c 8b 44 24 90       	mov    -0x70(%rsp),%r8
    1bde:	83 3c 96 01          	cmpl   $0x1,(%rsi,%rdx,4)
    1be2:	48 8d 50 01          	lea    0x1(%rax),%rdx
    1be6:	83 d9 ff             	sbb    $0xffffffff,%ecx
    1be9:	4c 39 c2             	cmp    %r8,%rdx
    1bec:	7f 1d                	jg     1c0b <hidden_triplets.0+0x92b>
    1bee:	48 01 da             	add    %rbx,%rdx
    1bf1:	83 3c 96 01          	cmpl   $0x1,(%rsi,%rdx,4)
    1bf5:	83 d9 ff             	sbb    $0xffffffff,%ecx
    1bf8:	48 83 c0 02          	add    $0x2,%rax
    1bfc:	49 39 c0             	cmp    %rax,%r8
    1bff:	7c 0a                	jl     1c0b <hidden_triplets.0+0x92b>
    1c01:	48 01 d8             	add    %rbx,%rax
    1c04:	83 3c 86 01          	cmpl   $0x1,(%rsi,%rax,4)
    1c08:	83 d9 ff             	sbb    $0xffffffff,%ecx
    1c0b:	83 f9 03             	cmp    $0x3,%ecx
    1c0e:	0f 8f 3c fd ff ff    	jg     1950 <hidden_triplets.0+0x670>
    1c14:	48 8b 44 24 f0       	mov    -0x10(%rsp),%rax
    1c19:	48 8b 4c 24 b0       	mov    -0x50(%rsp),%rcx
    1c1e:	41 b8 01 00 00 00    	mov    $0x1,%r8d
    1c24:	44 89 9c 24 a0 01 00 	mov    %r11d,0x1a0(%rsp)
    1c2b:	00 
    1c2c:	44 89 64 24 68       	mov    %r12d,0x68(%rsp)
    1c31:	45 89 c3             	mov    %r8d,%r11d
    1c34:	4d 89 cc             	mov    %r9,%r12
    1c37:	49 0f af c7          	imul   %r15,%rax
    1c3b:	48 89 bc 24 c0 00 00 	mov    %rdi,0xc0(%rsp)
    1c42:	00 
    1c43:	4c 89 b4 24 98 01 00 	mov    %r14,0x198(%rsp)
    1c4a:	00 
    1c4b:	48 89 9c 24 f8 00 00 	mov    %rbx,0xf8(%rsp)
    1c52:	00 
    1c53:	48 8d 04 81          	lea    (%rcx,%rax,4),%rax
    1c57:	48 8b 8c 24 f0 00 00 	mov    0xf0(%rsp),%rcx
    1c5e:	00 
    1c5f:	48 89 ac 24 20 01 00 	mov    %rbp,0x120(%rsp)
    1c66:	00 
    1c67:	48 89 84 24 a0 00 00 	mov    %rax,0xa0(%rsp)
    1c6e:	00 
    1c6f:	48 8b 44 24 a8       	mov    -0x58(%rsp),%rax
    1c74:	48 89 8c 24 88 00 00 	mov    %rcx,0x88(%rsp)
    1c7b:	00 
    1c7c:	48 89 d9             	mov    %rbx,%rcx
    1c7f:	48 89 84 24 90 00 00 	mov    %rax,0x90(%rsp)
    1c86:	00 
    1c87:	4c 01 f8             	add    %r15,%rax
    1c8a:	48 03 84 24 e8 00 00 	add    0xe8(%rsp),%rax
    1c91:	00 
    1c92:	48 29 c1             	sub    %rax,%rcx
    1c95:	4c 89 94 24 98 00 00 	mov    %r10,0x98(%rsp)
    1c9c:	00 
    1c9d:	48 89 8c 24 90 01 00 	mov    %rcx,0x190(%rsp)
    1ca4:	00 
    1ca5:	4c 89 ac 24 00 01 00 	mov    %r13,0x100(%rsp)
    1cac:	00 
    1cad:	4c 89 7c 24 60       	mov    %r15,0x60(%rsp)
    1cb2:	eb 2c                	jmp    1ce0 <hidden_triplets.0+0xa00>
    1cb4:	0f 1f 40 00          	nopl   0x0(%rax)
    1cb8:	41 83 c3 01          	add    $0x1,%r11d
    1cbc:	48 8b 7c 24 98       	mov    -0x68(%rsp),%rdi
    1cc1:	48 01 bc 24 88 00 00 	add    %rdi,0x88(%rsp)
    1cc8:	00 
    1cc9:	48 8b 7c 24 a8       	mov    -0x58(%rsp),%rdi
    1cce:	48 01 bc 24 90 00 00 	add    %rdi,0x90(%rsp)
    1cd5:	00 
    1cd6:	41 83 fb 0a          	cmp    $0xa,%r11d
    1cda:	0f 84 5d 22 00 00    	je     3f3d <hidden_triplets.0+0x2c5d>
    1ce0:	41 8d 43 ff          	lea    -0x1(%r11),%eax
    1ce4:	bb ab aa aa aa       	mov    $0xaaaaaaab,%ebx
    1ce9:	44 89 df             	mov    %r11d,%edi
    1cec:	48 0f af c3          	imul   %rbx,%rax
    1cf0:	48 c1 e8 21          	shr    $0x21,%rax
    1cf4:	3b 44 24 30          	cmp    0x30(%rsp),%eax
    1cf8:	75 be                	jne    1cb8 <hidden_triplets.0+0x9d8>
    1cfa:	48 8b 44 24 70       	mov    0x70(%rsp),%rax
    1cff:	4c 8b 4c 24 90       	mov    -0x70(%rsp),%r9
    1d04:	45 31 ed             	xor    %r13d,%r13d
    1d07:	44 89 9c 24 28 01 00 	mov    %r11d,0x128(%rsp)
    1d0e:	00 
    1d0f:	48 8b 8c 24 88 00 00 	mov    0x88(%rsp),%rcx
    1d16:	00 
    1d17:	48 8b 9c 24 10 01 00 	mov    0x110(%rsp),%rbx
    1d1e:	00 
    1d1f:	4c 8d 3c 88          	lea    (%rax,%rcx,4),%r15
    1d23:	48 8b 8c 24 90 00 00 	mov    0x90(%rsp),%rcx
    1d2a:	00 
    1d2b:	48 8d 04 8d 00 00 00 	lea    0x0(,%rcx,4),%rax
    1d32:	00 
    1d33:	48 03 8c 24 00 01 00 	add    0x100(%rsp),%rcx
    1d3a:	00 
    1d3b:	48 89 cd             	mov    %rcx,%rbp
    1d3e:	48 8b 8c 24 18 01 00 	mov    0x118(%rsp),%rcx
    1d45:	00 
    1d46:	48 01 c3             	add    %rax,%rbx
    1d49:	4c 8d 34 08          	lea    (%rax,%rcx,1),%r14
    1d4d:	4d 89 f2             	mov    %r14,%r10
    1d50:	49 89 de             	mov    %rbx,%r14
    1d53:	eb 24                	jmp    1d79 <hidden_triplets.0+0xa99>
    1d55:	0f 1f 00             	nopl   (%rax)
    1d58:	49 83 c5 01          	add    $0x1,%r13
    1d5c:	83 c7 09             	add    $0x9,%edi
    1d5f:	4c 03 7c 24 88       	add    -0x78(%rsp),%r15
    1d64:	4d 01 e6             	add    %r12,%r14
    1d67:	48 03 6c 24 60       	add    0x60(%rsp),%rbp
    1d6c:	4d 01 e2             	add    %r12,%r10
    1d6f:	49 83 fd 09          	cmp    $0x9,%r13
    1d73:	0f 84 b7 21 00 00    	je     3f30 <hidden_triplets.0+0x2c50>
    1d79:	44 89 e9             	mov    %r13d,%ecx
    1d7c:	3b 7c 24 68          	cmp    0x68(%rsp),%edi
    1d80:	7e d6                	jle    1d58 <hidden_triplets.0+0xa78>
    1d82:	41 8b 17             	mov    (%r15),%edx
    1d85:	85 d2                	test   %edx,%edx
    1d87:	75 cf                	jne    1d58 <hidden_triplets.0+0xa78>
    1d89:	48 8b 84 24 f8 00 00 	mov    0xf8(%rsp),%rax
    1d90:	00 
    1d91:	48 83 7c 24 a0 01    	cmpq   $0x1,-0x60(%rsp)
    1d97:	4c 8d 5c 05 00       	lea    0x0(%rbp,%rax,1),%r11
    1d9c:	0f 85 5e 22 00 00    	jne    4000 <hidden_triplets.0+0x2d20>
    1da2:	48 83 7c 24 c8 02    	cmpq   $0x2,-0x38(%rsp)
    1da8:	0f 86 20 27 00 00    	jbe    44ce <hidden_triplets.0+0x31ee>
    1dae:	66 0f ef c9          	pxor   %xmm1,%xmm1
    1db2:	48 8b 5c 24 d8       	mov    -0x28(%rsp),%rbx
    1db7:	4d 8d 46 04          	lea    0x4(%r14),%r8
    1dbb:	31 c0                	xor    %eax,%eax
    1dbd:	66 0f 6f d1          	movdqa %xmm1,%xmm2
    1dc1:	0f 1f 80 00 00 00 00 	nopl   0x0(%rax)
    1dc8:	48 89 c6             	mov    %rax,%rsi
    1dcb:	48 83 c0 01          	add    $0x1,%rax
    1dcf:	48 c1 e6 04          	shl    $0x4,%rsi
    1dd3:	f3 41 0f 6f 04 30    	movdqu (%r8,%rsi,1),%xmm0
    1dd9:	66 0f 76 c2          	pcmpeqd %xmm2,%xmm0
    1ddd:	66 0f 76 c2          	pcmpeqd %xmm2,%xmm0
    1de1:	66 0f fa c8          	psubd  %xmm0,%xmm1
    1de5:	48 39 d8             	cmp    %rbx,%rax
    1de8:	75 de                	jne    1dc8 <hidden_triplets.0+0xae8>
    1dea:	66 0f 6f c1          	movdqa %xmm1,%xmm0
    1dee:	66 0f 73 d8 08       	psrldq $0x8,%xmm0
    1df3:	66 0f fe c8          	paddd  %xmm0,%xmm1
    1df7:	66 0f 6f c1          	movdqa %xmm1,%xmm0
    1dfb:	66 0f 73 d8 04       	psrldq $0x4,%xmm0
    1e00:	66 0f fe c8          	paddd  %xmm0,%xmm1
    1e04:	66 41 0f 7e c8       	movd   %xmm1,%r8d
    1e09:	4c 3b 4c 24 c0       	cmp    -0x40(%rsp),%r9
    1e0e:	74 3e                	je     1e4e <hidden_triplets.0+0xb6e>
    1e10:	48 8b 44 24 e8       	mov    -0x18(%rsp),%rax
    1e15:	48 8b 5c 24 b0       	mov    -0x50(%rsp),%rbx
    1e1a:	49 8d 34 03          	lea    (%r11,%rax,1),%rsi
    1e1e:	83 3c b3 01          	cmpl   $0x1,(%rbx,%rsi,4)
    1e22:	48 8d 70 01          	lea    0x1(%rax),%rsi
    1e26:	41 83 d8 ff          	sbb    $0xffffffff,%r8d
    1e2a:	49 39 f1             	cmp    %rsi,%r9
    1e2d:	7c 1f                	jl     1e4e <hidden_triplets.0+0xb6e>
    1e2f:	4c 01 de             	add    %r11,%rsi
    1e32:	83 3c b3 01          	cmpl   $0x1,(%rbx,%rsi,4)
    1e36:	41 83 d8 ff          	sbb    $0xffffffff,%r8d
    1e3a:	48 83 c0 02          	add    $0x2,%rax
    1e3e:	49 39 c1             	cmp    %rax,%r9
    1e41:	7c 0b                	jl     1e4e <hidden_triplets.0+0xb6e>
    1e43:	4c 01 d8             	add    %r11,%rax
    1e46:	83 3c 83 01          	cmpl   $0x1,(%rbx,%rax,4)
    1e4a:	41 83 d8 ff          	sbb    $0xffffffff,%r8d
    1e4e:	41 83 f8 01          	cmp    $0x1,%r8d
    1e52:	0f 8e 00 ff ff ff    	jle    1d58 <hidden_triplets.0+0xa78>
    1e58:	49 83 f9 03          	cmp    $0x3,%r9
    1e5c:	0f 8e 86 26 00 00    	jle    44e8 <hidden_triplets.0+0x3208>
    1e62:	66 0f ef c9          	pxor   %xmm1,%xmm1
    1e66:	4c 8b 84 24 d0 00 00 	mov    0xd0(%rsp),%r8
    1e6d:	00 
    1e6e:	49 8d 76 04          	lea    0x4(%r14),%rsi
    1e72:	31 c0                	xor    %eax,%eax
    1e74:	66 0f 6f d1          	movdqa %xmm1,%xmm2
    1e78:	48 89 c2             	mov    %rax,%rdx
    1e7b:	48 83 c0 01          	add    $0x1,%rax
    1e7f:	48 c1 e2 04          	shl    $0x4,%rdx
    1e83:	f3 0f 6f 04 16       	movdqu (%rsi,%rdx,1),%xmm0
    1e88:	66 0f 76 c2          	pcmpeqd %xmm2,%xmm0
    1e8c:	66 0f 76 c2          	pcmpeqd %xmm2,%xmm0
    1e90:	66 0f fa c8          	psubd  %xmm0,%xmm1
    1e94:	4c 39 c0             	cmp    %r8,%rax
    1e97:	75 df                	jne    1e78 <hidden_triplets.0+0xb98>
    1e99:	66 0f 6f c1          	movdqa %xmm1,%xmm0
    1e9d:	48 8b b4 24 d8 00 00 	mov    0xd8(%rsp),%rsi
    1ea4:	00 
    1ea5:	66 0f 73 d8 08       	psrldq $0x8,%xmm0
    1eaa:	66 0f fe c8          	paddd  %xmm0,%xmm1
    1eae:	66 0f 6f c1          	movdqa %xmm1,%xmm0
    1eb2:	66 0f 73 d8 04       	psrldq $0x4,%xmm0
    1eb7:	66 0f fe c8          	paddd  %xmm0,%xmm1
    1ebb:	66 0f 7e ca          	movd   %xmm1,%edx
    1ebf:	48 39 b4 24 c8 00 00 	cmp    %rsi,0xc8(%rsp)
    1ec6:	00 
    1ec7:	74 3e                	je     1f07 <hidden_triplets.0+0xc27>
    1ec9:	48 8b 84 24 e0 00 00 	mov    0xe0(%rsp),%rax
    1ed0:	00 
    1ed1:	48 8b 5c 24 b0       	mov    -0x50(%rsp),%rbx
    1ed6:	49 8d 34 03          	lea    (%r11,%rax,1),%rsi
    1eda:	83 3c b3 01          	cmpl   $0x1,(%rbx,%rsi,4)
    1ede:	48 8d 70 01          	lea    0x1(%rax),%rsi
    1ee2:	83 da ff             	sbb    $0xffffffff,%edx
    1ee5:	49 39 f1             	cmp    %rsi,%r9
    1ee8:	7c 1d                	jl     1f07 <hidden_triplets.0+0xc27>
    1eea:	4c 01 de             	add    %r11,%rsi
    1eed:	83 3c b3 01          	cmpl   $0x1,(%rbx,%rsi,4)
    1ef1:	83 da ff             	sbb    $0xffffffff,%edx
    1ef4:	48 83 c0 02          	add    $0x2,%rax
    1ef8:	49 39 c1             	cmp    %rax,%r9
    1efb:	7c 0a                	jl     1f07 <hidden_triplets.0+0xc27>
    1efd:	4c 01 d8             	add    %r11,%rax
    1f00:	83 3c 83 01          	cmpl   $0x1,(%rbx,%rax,4)
    1f04:	83 da ff             	sbb    $0xffffffff,%edx
    1f07:	83 fa 03             	cmp    $0x3,%edx
    1f0a:	0f 8f 48 fe ff ff    	jg     1d58 <hidden_triplets.0+0xa78>
    1f10:	89 c8                	mov    %ecx,%eax
    1f12:	b9 ab aa aa aa       	mov    $0xaaaaaaab,%ecx
    1f17:	48 0f af c1          	imul   %rcx,%rax
    1f1b:	48 c1 e8 21          	shr    $0x21,%rax
    1f1f:	3b 84 24 b0 00 00 00 	cmp    0xb0(%rsp),%eax
    1f26:	0f 85 2c fe ff ff    	jne    1d58 <hidden_triplets.0+0xa78>
    1f2c:	48 83 7c 24 a0 01    	cmpq   $0x1,-0x60(%rsp)
    1f32:	b8 01 00 00 00       	mov    $0x1,%eax
    1f37:	74 14                	je     1f4d <hidden_triplets.0+0xc6d>
    1f39:	e9 cd 25 00 00       	jmp    450b <hidden_triplets.0+0x322b>
    1f3e:	66 90                	xchg   %ax,%ax
    1f40:	48 83 c0 01          	add    $0x1,%rax
    1f44:	4c 39 c8             	cmp    %r9,%rax
    1f47:	0f 8f 0b fe ff ff    	jg     1d58 <hidden_triplets.0+0xa78>
    1f4d:	48 8b 8c 24 20 01 00 	mov    0x120(%rsp),%rcx
    1f54:	00 
    1f55:	8b 0c 81             	mov    (%rcx,%rax,4),%ecx
    1f58:	41 39 0c 86          	cmp    %ecx,(%r14,%rax,4)
    1f5c:	74 e2                	je     1f40 <hidden_triplets.0+0xc60>
    1f5e:	89 bc 24 08 01 00 00 	mov    %edi,0x108(%rsp)
    1f65:	be 01 00 00 00       	mov    $0x1,%esi
    1f6a:	66 0f ef d2          	pxor   %xmm2,%xmm2
    1f6e:	48 8b 84 24 90 01 00 	mov    0x190(%rsp),%rax
    1f75:	00 
    1f76:	4c 89 94 24 78 01 00 	mov    %r10,0x178(%rsp)
    1f7d:	00 
    1f7e:	48 01 e8             	add    %rbp,%rax
    1f81:	4c 89 ac 24 80 01 00 	mov    %r13,0x180(%rsp)
    1f88:	00 
    1f89:	48 89 84 24 50 01 00 	mov    %rax,0x150(%rsp)
    1f90:	00 
    1f91:	48 8b 44 24 a8       	mov    -0x58(%rsp),%rax
    1f96:	4c 89 bc 24 88 01 00 	mov    %r15,0x188(%rsp)
    1f9d:	00 
    1f9e:	48 89 84 24 48 01 00 	mov    %rax,0x148(%rsp)
    1fa5:	00 
    1fa6:	48 8b 84 24 f0 00 00 	mov    0xf0(%rsp),%rax
    1fad:	00 
    1fae:	48 89 84 24 30 01 00 	mov    %rax,0x130(%rsp)
    1fb5:	00 
    1fb6:	eb 2e                	jmp    1fe6 <hidden_triplets.0+0xd06>
    1fb8:	83 c6 01             	add    $0x1,%esi
    1fbb:	48 8b 7c 24 98       	mov    -0x68(%rsp),%rdi
    1fc0:	48 01 bc 24 30 01 00 	add    %rdi,0x130(%rsp)
    1fc7:	00 
    1fc8:	48 8b 7c 24 a8       	mov    -0x58(%rsp),%rdi
    1fcd:	48 29 bc 24 50 01 00 	sub    %rdi,0x150(%rsp)
    1fd4:	00 
    1fd5:	48 01 bc 24 48 01 00 	add    %rdi,0x148(%rsp)
    1fdc:	00 
    1fdd:	83 fe 0a             	cmp    $0xa,%esi
    1fe0:	0f 84 51 25 00 00    	je     4537 <hidden_triplets.0+0x3257>
    1fe6:	8d 46 ff             	lea    -0x1(%rsi),%eax
    1fe9:	bf ab aa aa aa       	mov    $0xaaaaaaab,%edi
    1fee:	89 b4 24 38 01 00 00 	mov    %esi,0x138(%rsp)
    1ff5:	48 0f af c7          	imul   %rdi,%rax
    1ff9:	48 c1 e8 21          	shr    $0x21,%rax
    1ffd:	3b 44 24 30          	cmp    0x30(%rsp),%eax
    2001:	75 b5                	jne    1fb8 <hidden_triplets.0+0xcd8>
    2003:	48 8b 44 24 70       	mov    0x70(%rsp),%rax
    2008:	48 8b bc 24 30 01 00 	mov    0x130(%rsp),%rdi
    200f:	00 
    2010:	89 b4 24 a4 01 00 00 	mov    %esi,0x1a4(%rsp)
    2017:	45 31 c0             	xor    %r8d,%r8d
    201a:	4c 8d 2c b8          	lea    (%rax,%rdi,4),%r13
    201e:	48 8b 84 24 48 01 00 	mov    0x148(%rsp),%rax
    2025:	00 
    2026:	48 8b bc 24 10 01 00 	mov    0x110(%rsp),%rdi
    202d:	00 
    202e:	48 8d 0c 85 00 00 00 	lea    0x0(,%rax,4),%rcx
    2035:	00 
    2036:	48 03 84 24 00 01 00 	add    0x100(%rsp),%rax
    203d:	00 
    203e:	4c 8d 14 39          	lea    (%rcx,%rdi,1),%r10
    2042:	49 89 c7             	mov    %rax,%r15
    2045:	48 8b bc 24 50 01 00 	mov    0x150(%rsp),%rdi
    204c:	00 
    204d:	48 03 8c 24 18 01 00 	add    0x118(%rsp),%rcx
    2054:	00 
    2055:	eb 2c                	jmp    2083 <hidden_triplets.0+0xda3>
    2057:	48 8b 44 24 60       	mov    0x60(%rsp),%rax
    205c:	41 83 c0 01          	add    $0x1,%r8d
    2060:	4d 01 e2             	add    %r12,%r10
    2063:	4c 01 e1             	add    %r12,%rcx
    2066:	83 84 24 38 01 00 00 	addl   $0x9,0x138(%rsp)
    206d:	09 
    206e:	4c 03 6c 24 88       	add    -0x78(%rsp),%r13
    2073:	49 01 c7             	add    %rax,%r15
    2076:	48 29 c7             	sub    %rax,%rdi
    2079:	41 83 f8 09          	cmp    $0x9,%r8d
    207d:	0f 84 d8 24 00 00    	je     455b <hidden_triplets.0+0x327b>
    2083:	8b b4 24 08 01 00 00 	mov    0x108(%rsp),%esi
    208a:	39 b4 24 38 01 00 00 	cmp    %esi,0x138(%rsp)
    2091:	7e c4                	jle    2057 <hidden_triplets.0+0xd77>
    2093:	41 8b 45 00          	mov    0x0(%r13),%eax
    2097:	89 84 24 40 01 00 00 	mov    %eax,0x140(%rsp)
    209e:	85 c0                	test   %eax,%eax
    20a0:	75 b5                	jne    2057 <hidden_triplets.0+0xd77>
    20a2:	48 8b 84 24 f8 00 00 	mov    0xf8(%rsp),%rax
    20a9:	00 
    20aa:	48 83 7c 24 a0 01    	cmpq   $0x1,-0x60(%rsp)
    20b0:	4d 8d 1c 07          	lea    (%r15,%rax,1),%r11
    20b4:	0f 85 b9 24 00 00    	jne    4573 <hidden_triplets.0+0x3293>
    20ba:	49 83 f9 03          	cmp    $0x3,%r9
    20be:	0f 8e a3 24 00 00    	jle    4567 <hidden_triplets.0+0x3287>
    20c4:	49 8d 52 04          	lea    0x4(%r10),%rdx
    20c8:	31 c0                	xor    %eax,%eax
    20ca:	66 0f ef c0          	pxor   %xmm0,%xmm0
    20ce:	48 89 c6             	mov    %rax,%rsi
    20d1:	48 83 c0 01          	add    $0x1,%rax
    20d5:	48 c1 e6 04          	shl    $0x4,%rsi
    20d9:	f3 0f 6f 0c 32       	movdqu (%rdx,%rsi,1),%xmm1
    20de:	66 0f 76 ca          	pcmpeqd %xmm2,%xmm1
    20e2:	66 0f 76 ca          	pcmpeqd %xmm2,%xmm1
    20e6:	66 0f fa c1          	psubd  %xmm1,%xmm0
    20ea:	48 3b 84 24 d0 00 00 	cmp    0xd0(%rsp),%rax
    20f1:	00 
    20f2:	75 da                	jne    20ce <hidden_triplets.0+0xdee>
    20f4:	66 0f 6f c8          	movdqa %xmm0,%xmm1
    20f8:	48 8b 9c 24 d8 00 00 	mov    0xd8(%rsp),%rbx
    20ff:	00 
    2100:	66 0f 73 d9 08       	psrldq $0x8,%xmm1
    2105:	66 0f fe c1          	paddd  %xmm1,%xmm0
    2109:	66 0f 6f c8          	movdqa %xmm0,%xmm1
    210d:	66 0f 73 d9 04       	psrldq $0x4,%xmm1
    2112:	66 0f fe c1          	paddd  %xmm1,%xmm0
    2116:	66 0f 7e c0          	movd   %xmm0,%eax
    211a:	48 39 9c 24 c8 00 00 	cmp    %rbx,0xc8(%rsp)
    2121:	00 
    2122:	74 3e                	je     2162 <hidden_triplets.0+0xe82>
    2124:	48 8b 94 24 e0 00 00 	mov    0xe0(%rsp),%rdx
    212b:	00 
    212c:	48 8b 74 24 b0       	mov    -0x50(%rsp),%rsi
    2131:	49 8d 1c 13          	lea    (%r11,%rdx,1),%rbx
    2135:	83 3c 9e 01          	cmpl   $0x1,(%rsi,%rbx,4)
    2139:	48 8d 5a 01          	lea    0x1(%rdx),%rbx
    213d:	83 d8 ff             	sbb    $0xffffffff,%eax
    2140:	49 39 d9             	cmp    %rbx,%r9
    2143:	7c 1d                	jl     2162 <hidden_triplets.0+0xe82>
    2145:	4c 01 db             	add    %r11,%rbx
    2148:	83 3c 9e 01          	cmpl   $0x1,(%rsi,%rbx,4)
    214c:	83 d8 ff             	sbb    $0xffffffff,%eax
    214f:	48 83 c2 02          	add    $0x2,%rdx
    2153:	49 39 d1             	cmp    %rdx,%r9
    2156:	7c 0a                	jl     2162 <hidden_triplets.0+0xe82>
    2158:	4c 01 da             	add    %r11,%rdx
    215b:	83 3c 96 01          	cmpl   $0x1,(%rsi,%rdx,4)
    215f:	83 d8 ff             	sbb    $0xffffffff,%eax
    2162:	83 f8 01             	cmp    $0x1,%eax
    2165:	0f 8e ec fe ff ff    	jle    2057 <hidden_triplets.0+0xd77>
    216b:	b8 01 00 00 00       	mov    $0x1,%eax
    2170:	eb 0d                	jmp    217f <hidden_triplets.0+0xe9f>
    2172:	48 83 c0 01          	add    $0x1,%rax
    2176:	49 39 c1             	cmp    %rax,%r9
    2179:	0f 8c d8 fe ff ff    	jl     2057 <hidden_triplets.0+0xd77>
    217f:	48 8b b4 24 20 01 00 	mov    0x120(%rsp),%rsi
    2186:	00 
    2187:	8b 34 86             	mov    (%rsi,%rax,4),%esi
    218a:	41 39 34 82          	cmp    %esi,(%r10,%rax,4)
    218e:	74 e2                	je     2172 <hidden_triplets.0+0xe92>
    2190:	b8 01 00 00 00       	mov    $0x1,%eax
    2195:	eb 0d                	jmp    21a4 <hidden_triplets.0+0xec4>
    2197:	48 83 c0 01          	add    $0x1,%rax
    219b:	4c 39 c8             	cmp    %r9,%rax
    219e:	0f 8f b3 fe ff ff    	jg     2057 <hidden_triplets.0+0xd77>
    21a4:	41 8b 34 82          	mov    (%r10,%rax,4),%esi
    21a8:	41 39 34 86          	cmp    %esi,(%r14,%rax,4)
    21ac:	74 e9                	je     2197 <hidden_triplets.0+0xeb7>
    21ae:	44 89 c0             	mov    %r8d,%eax
    21b1:	be 03 00 00 00       	mov    $0x3,%esi
    21b6:	99                   	cltd   
    21b7:	f7 fe                	idiv   %esi
    21b9:	39 84 24 b0 00 00 00 	cmp    %eax,0xb0(%rsp)
    21c0:	0f 85 91 fe ff ff    	jne    2057 <hidden_triplets.0+0xd77>
    21c6:	31 c0                	xor    %eax,%eax
    21c8:	ba 01 00 00 00       	mov    $0x1,%edx
    21cd:	41 83 3c 92 00       	cmpl   $0x0,(%r10,%rdx,4)
    21d2:	74 03                	je     21d7 <hidden_triplets.0+0xef7>
    21d4:	83 c0 01             	add    $0x1,%eax
    21d7:	48 83 c2 01          	add    $0x1,%rdx
    21db:	4c 39 ca             	cmp    %r9,%rdx
    21de:	7e ed                	jle    21cd <hidden_triplets.0+0xeed>
    21e0:	83 f8 03             	cmp    $0x3,%eax
    21e3:	0f 8f 6e fe ff ff    	jg     2057 <hidden_triplets.0+0xd77>
    21e9:	48 8b 84 24 98 00 00 	mov    0x98(%rsp),%rax
    21f0:	00 
    21f1:	31 f6                	xor    %esi,%esi
    21f3:	bb 01 00 00 00       	mov    $0x1,%ebx
    21f8:	8b 10                	mov    (%rax),%edx
    21fa:	03 14 a8             	add    (%rax,%rbp,4),%edx
    21fd:	42 03 14 b8          	add    (%rax,%r15,4),%edx
    2201:	83 fa 01             	cmp    $0x1,%edx
    2204:	83 de ff             	sbb    $0xffffffff,%esi
    2207:	48 83 c3 01          	add    $0x1,%rbx
    220b:	48 03 04 24          	add    (%rsp),%rax
    220f:	4c 39 cb             	cmp    %r9,%rbx
    2212:	7e e4                	jle    21f8 <hidden_triplets.0+0xf18>
    2214:	83 fe 03             	cmp    $0x3,%esi
    2217:	0f 85 3a fe ff ff    	jne    2057 <hidden_triplets.0+0xd77>
    221d:	48 8d 8c 24 a8 01 00 	lea    0x1a8(%rsp),%rcx
    2224:	00 
    2225:	8b bc 24 08 01 00 00 	mov    0x108(%rsp),%edi
    222c:	4c 8b 94 24 78 01 00 	mov    0x178(%rsp),%r10
    2233:	00 
    2234:	4c 89 bc 24 08 01 00 	mov    %r15,0x108(%rsp)
    223b:	00 
    223c:	48 89 8c 24 50 01 00 	mov    %rcx,0x150(%rsp)
    2243:	00 
    2244:	4c 8b ac 24 80 01 00 	mov    0x180(%rsp),%r13
    224b:	00 
    224c:	31 c0                	xor    %eax,%eax
    224e:	4c 8b bc 24 88 01 00 	mov    0x188(%rsp),%r15
    2255:	00 
    2256:	48 8b 94 24 98 00 00 	mov    0x98(%rsp),%rdx
    225d:	00 
    225e:	8b 0a                	mov    (%rdx),%ecx
    2260:	48 8b b4 24 50 01 00 	mov    0x150(%rsp),%rsi
    2267:	00 
    2268:	48 03 14 24          	add    (%rsp),%rdx
    226c:	89 0c 86             	mov    %ecx,(%rsi,%rax,4)
    226f:	48 83 c0 01          	add    $0x1,%rax
    2273:	48 83 f8 09          	cmp    $0x9,%rax
    2277:	75 e5                	jne    225e <hidden_triplets.0+0xf7e>
    2279:	4c 89 d2             	mov    %r10,%rdx
    227c:	31 c0                	xor    %eax,%eax
    227e:	48 8d 8c 24 cc 01 00 	lea    0x1cc(%rsp),%rcx
    2285:	00 
    2286:	8b 32                	mov    (%rdx),%esi
    2288:	48 03 14 24          	add    (%rsp),%rdx
    228c:	89 34 01             	mov    %esi,(%rcx,%rax,1)
    228f:	48 83 c0 04          	add    $0x4,%rax
    2293:	48 83 f8 24          	cmp    $0x24,%rax
    2297:	75 ed                	jne    2286 <hidden_triplets.0+0xfa6>
    2299:	48 8b 44 24 a0       	mov    -0x60(%rsp),%rax
    229e:	48 8b 74 24 b0       	mov    -0x50(%rsp),%rsi
    22a3:	48 8d 9c 24 f0 01 00 	lea    0x1f0(%rsp),%rbx
    22aa:	00 
    22ab:	48 89 9c 24 48 01 00 	mov    %rbx,0x148(%rsp)
    22b2:	00 
    22b3:	4c 01 d8             	add    %r11,%rax
    22b6:	48 8d 34 86          	lea    (%rsi,%rax,4),%rsi
    22ba:	31 c0                	xor    %eax,%eax
    22bc:	48 89 f2             	mov    %rsi,%rdx
    22bf:	44 8b 02             	mov    (%rdx),%r8d
    22c2:	48 8b 9c 24 48 01 00 	mov    0x148(%rsp),%rbx
    22c9:	00 
    22ca:	48 03 14 24          	add    (%rsp),%rdx
    22ce:	44 89 04 03          	mov    %r8d,(%rbx,%rax,1)
    22d2:	48 83 c0 04          	add    $0x4,%rax
    22d6:	48 83 f8 24          	cmp    $0x24,%rax
    22da:	75 e3                	jne    22bf <hidden_triplets.0+0xfdf>
    22dc:	48 89 8c 24 30 01 00 	mov    %rcx,0x130(%rsp)
    22e3:	00 
    22e4:	41 b8 01 00 00 00    	mov    $0x1,%r8d
    22ea:	bb 00 00 00 80       	mov    $0x80000000,%ebx
    22ef:	48 8b 94 24 98 00 00 	mov    0x98(%rsp),%rdx
    22f6:	00 
    22f7:	41 bb 01 00 00 00    	mov    $0x1,%r11d
    22fd:	48 8b 8c 24 08 01 00 	mov    0x108(%rsp),%rcx
    2304:	00 
    2305:	8b 02                	mov    (%rdx),%eax
    2307:	03 04 aa             	add    (%rdx,%rbp,4),%eax
    230a:	03 04 8a             	add    (%rdx,%rcx,4),%eax
    230d:	39 d8                	cmp    %ebx,%eax
    230f:	0f 8f 9a 24 00 00    	jg     47af <hidden_triplets.0+0x34cf>
    2315:	49 83 c0 01          	add    $0x1,%r8
    2319:	48 03 14 24          	add    (%rsp),%rdx
    231d:	4d 39 c8             	cmp    %r9,%r8
    2320:	7e db                	jle    22fd <hidden_triplets.0+0x101d>
    2322:	48 8b 5c 24 78       	mov    0x78(%rsp),%rbx
    2327:	49 63 c3             	movslq %r11d,%rax
    232a:	48 0f af 44 24 a0    	imul   -0x60(%rsp),%rax
    2330:	48 03 84 24 e8 00 00 	add    0xe8(%rsp),%rax
    2337:	00 
    2338:	48 8b 8c 24 30 01 00 	mov    0x130(%rsp),%rcx
    233f:	00 
    2340:	44 89 9c 24 30 01 00 	mov    %r11d,0x130(%rsp)
    2347:	00 
    2348:	4c 8d 04 18          	lea    (%rax,%rbx,1),%r8
    234c:	48 8b 44 24 08       	mov    0x8(%rsp),%rax
    2351:	31 db                	xor    %ebx,%ebx
    2353:	4d 89 c3             	mov    %r8,%r11
    2356:	48 89 84 24 38 01 00 	mov    %rax,0x138(%rsp)
    235d:	00 
    235e:	48 8b 94 24 38 01 00 	mov    0x138(%rsp),%rdx
    2365:	00 
    2366:	48 39 54 24 58       	cmp    %rdx,0x58(%rsp)
    236b:	0f 8c 09 23 00 00    	jl     467a <hidden_triplets.0+0x339a>
    2371:	48 8b 84 24 a0 00 00 	mov    0xa0(%rsp),%rax
    2378:	00 
    2379:	48 89 8c 24 78 01 00 	mov    %rcx,0x178(%rsp)
    2380:	00 
    2381:	4a 8d 14 98          	lea    (%rax,%r11,4),%rdx
    2385:	48 8b 44 24 f0       	mov    -0x10(%rsp),%rax
    238a:	eb 15                	jmp    23a1 <hidden_triplets.0+0x10c1>
    238c:	8b 8c 24 30 01 00 00 	mov    0x130(%rsp),%ecx
    2393:	39 0a                	cmp    %ecx,(%rdx)
    2395:	75 03                	jne    239a <hidden_triplets.0+0x10ba>
    2397:	83 c3 01             	add    $0x1,%ebx
    239a:	48 83 c0 01          	add    $0x1,%rax
    239e:	4c 01 e2             	add    %r12,%rdx
    23a1:	48 39 84 24 c0 00 00 	cmp    %rax,0xc0(%rsp)
    23a8:	00 
    23a9:	7d e1                	jge    238c <hidden_triplets.0+0x10ac>
    23ab:	48 83 84 24 38 01 00 	addq   $0x1,0x138(%rsp)
    23b2:	00 01 
    23b4:	48 8b 8c 24 78 01 00 	mov    0x178(%rsp),%rcx
    23bb:	00 
    23bc:	4c 03 5c 24 a8       	add    -0x58(%rsp),%r11
    23c1:	eb 9b                	jmp    235e <hidden_triplets.0+0x107e>
    23c3:	0f 1f 44 00 00       	nopl   0x0(%rax,%rax,1)
    23c8:	83 44 24 b8 01       	addl   $0x1,-0x48(%rsp)
    23cd:	8b 44 24 b8          	mov    -0x48(%rsp),%eax
    23d1:	4c 89 cd             	mov    %r9,%rbp
    23d4:	4d 89 fe             	mov    %r15,%r14
    23d7:	48 8b 74 24 a8       	mov    -0x58(%rsp),%rsi
    23dc:	48 8b 7c 24 98       	mov    -0x68(%rsp),%rdi
    23e1:	48 01 74 24 10       	add    %rsi,0x10(%rsp)
    23e6:	48 29 74 24 18       	sub    %rsi,0x18(%rsp)
    23eb:	48 01 7c 24 20       	add    %rdi,0x20(%rsp)
    23f0:	83 f8 0a             	cmp    $0xa,%eax
    23f3:	0f 85 a7 f4 ff ff    	jne    18a0 <hidden_triplets.0+0x5c0>
    23f9:	48 81 c4 20 02 00 00 	add    $0x220,%rsp
    2400:	5b                   	pop    %rbx
    2401:	5d                   	pop    %rbp
    2402:	41 5c                	pop    %r12
    2404:	41 5d                	pop    %r13
    2406:	41 5e                	pop    %r14
    2408:	41 5f                	pop    %r15
    240a:	c3                   	ret    
    240b:	48 8b 7c 24 90       	mov    -0x70(%rsp),%rdi
    2410:	4c 8b 04 24          	mov    (%rsp),%r8
    2414:	4c 89 d6             	mov    %r10,%rsi
    2417:	31 c0                	xor    %eax,%eax
    2419:	31 d2                	xor    %edx,%edx
    241b:	0f 1f 44 00 00       	nopl   0x0(%rax,%rax,1)
    2420:	83 3e 01             	cmpl   $0x1,(%rsi)
    2423:	83 d8 ff             	sbb    $0xffffffff,%eax
    2426:	48 83 c2 01          	add    $0x1,%rdx
    242a:	4c 01 c6             	add    %r8,%rsi
    242d:	48 39 d7             	cmp    %rdx,%rdi
    2430:	75 ee                	jne    2420 <hidden_triplets.0+0x1140>
    2432:	e9 04 f6 ff ff       	jmp    1a3b <hidden_triplets.0+0x75b>
    2437:	48 8b 44 24 78       	mov    0x78(%rsp),%rax
    243c:	4c 8b 7c 24 90       	mov    -0x70(%rsp),%r15
    2441:	48 89 6c 24 38       	mov    %rbp,0x38(%rsp)
    2446:	41 ba 01 00 00 00    	mov    $0x1,%r10d
    244c:	48 8b 9c 24 88 00 00 	mov    0x88(%rsp),%rbx
    2453:	00 
    2454:	4c 8d 44 05 fc       	lea    -0x4(%rbp,%rax,1),%r8
    2459:	48 8b 44 24 08       	mov    0x8(%rsp),%rax
    245e:	49 01 c7             	add    %rax,%r15
    2461:	48 c1 e0 02          	shl    $0x2,%rax
    2465:	4c 8d 64 03 04       	lea    0x4(%rbx,%rax,1),%r12
    246a:	48 8b 9c 24 90 00 00 	mov    0x90(%rsp),%rbx
    2471:	00 
    2472:	4c 89 fd             	mov    %r15,%rbp
    2475:	4d 89 cf             	mov    %r9,%r15
    2478:	4c 8d 2c 18          	lea    (%rax,%rbx,1),%r13
    247c:	48 8d 84 24 a8 01 00 	lea    0x1a8(%rsp),%rax
    2483:	00 
    2484:	48 8b 5c 24 d8       	mov    -0x28(%rsp),%rbx
    2489:	4d 89 eb             	mov    %r13,%r11
    248c:	48 89 44 24 58       	mov    %rax,0x58(%rsp)
    2491:	45 89 d5             	mov    %r10d,%r13d
    2494:	4d 89 e2             	mov    %r12,%r10
    2497:	49 89 fc             	mov    %rdi,%r12
    249a:	eb 26                	jmp    24c2 <hidden_triplets.0+0x11e2>
    249c:	0f 1f 40 00          	nopl   0x0(%rax)
    24a0:	4f 8d 34 22          	lea    (%r10,%r12,1),%r14
    24a4:	4b 8d 3c 23          	lea    (%r11,%r12,1),%rdi
    24a8:	4c 03 44 24 88       	add    -0x78(%rsp),%r8
    24ad:	48 03 6c 24 90       	add    -0x70(%rsp),%rbp
    24b2:	4d 89 f2             	mov    %r14,%r10
    24b5:	49 89 fb             	mov    %rdi,%r11
    24b8:	41 83 fd 08          	cmp    $0x8,%r13d
    24bc:	0f 84 ce 0a 00 00    	je     2f90 <hidden_triplets.0+0x1cb0>
    24c2:	48 8b 44 24 e0       	mov    -0x20(%rsp),%rax
    24c7:	41 83 c5 01          	add    $0x1,%r13d
    24cb:	41 8b 04 00          	mov    (%r8,%rax,1),%eax
    24cf:	85 c0                	test   %eax,%eax
    24d1:	75 cd                	jne    24a0 <hidden_triplets.0+0x11c0>
    24d3:	4d 85 ff             	test   %r15,%r15
    24d6:	7e c8                	jle    24a0 <hidden_triplets.0+0x11c0>
    24d8:	48 83 7c 24 a0 01    	cmpq   $0x1,-0x60(%rsp)
    24de:	0f 85 c5 19 00 00    	jne    3ea9 <hidden_triplets.0+0x2bc9>
    24e4:	48 83 7c 24 c8 02    	cmpq   $0x2,-0x38(%rsp)
    24ea:	0f 86 04 1b 00 00    	jbe    3ff4 <hidden_triplets.0+0x2d14>
    24f0:	31 d2                	xor    %edx,%edx
    24f2:	66 0f ef d2          	pxor   %xmm2,%xmm2
    24f6:	66 2e 0f 1f 84 00 00 	cs nopw 0x0(%rax,%rax,1)
    24fd:	00 00 00 
    2500:	48 89 d1             	mov    %rdx,%rcx
    2503:	48 83 c2 01          	add    $0x1,%rdx
    2507:	48 c1 e1 04          	shl    $0x4,%rcx
    250b:	f3 41 0f 6f 04 0a    	movdqu (%r10,%rcx,1),%xmm0
    2511:	66 0f 76 c1          	pcmpeqd %xmm1,%xmm0
    2515:	66 0f 76 c1          	pcmpeqd %xmm1,%xmm0
    2519:	66 0f fa d0          	psubd  %xmm0,%xmm2
    251d:	48 39 da             	cmp    %rbx,%rdx
    2520:	75 de                	jne    2500 <hidden_triplets.0+0x1220>
    2522:	66 0f 6f c2          	movdqa %xmm2,%xmm0
    2526:	66 0f 73 d8 08       	psrldq $0x8,%xmm0
    252b:	66 0f fe d0          	paddd  %xmm0,%xmm2
    252f:	66 0f 6f c2          	movdqa %xmm2,%xmm0
    2533:	66 0f 73 d8 04       	psrldq $0x4,%xmm0
    2538:	66 0f fe d0          	paddd  %xmm0,%xmm2
    253c:	66 0f 7e d2          	movd   %xmm2,%edx
    2540:	4c 3b 7c 24 c0       	cmp    -0x40(%rsp),%r15
    2545:	0f 84 48 19 00 00    	je     3e93 <hidden_triplets.0+0x2bb3>
    254b:	48 8b 4c 24 e8       	mov    -0x18(%rsp),%rcx
    2550:	48 8b 7c 24 b0       	mov    -0x50(%rsp),%rdi
    2555:	48 8d 74 0d 00       	lea    0x0(%rbp,%rcx,1),%rsi
    255a:	83 3c b7 01          	cmpl   $0x1,(%rdi,%rsi,4)
    255e:	48 8d 71 01          	lea    0x1(%rcx),%rsi
    2562:	83 da ff             	sbb    $0xffffffff,%edx
    2565:	49 39 f7             	cmp    %rsi,%r15
    2568:	7c 1d                	jl     2587 <hidden_triplets.0+0x12a7>
    256a:	48 01 ee             	add    %rbp,%rsi
    256d:	83 3c b7 01          	cmpl   $0x1,(%rdi,%rsi,4)
    2571:	83 da ff             	sbb    $0xffffffff,%edx
    2574:	48 83 c1 02          	add    $0x2,%rcx
    2578:	49 39 cf             	cmp    %rcx,%r15
    257b:	7c 0a                	jl     2587 <hidden_triplets.0+0x12a7>
    257d:	48 01 e9             	add    %rbp,%rcx
    2580:	83 3c 8f 01          	cmpl   $0x1,(%rdi,%rcx,4)
    2584:	83 da ff             	sbb    $0xffffffff,%edx
    2587:	4f 8d 34 22          	lea    (%r10,%r12,1),%r14
    258b:	4b 8d 3c 23          	lea    (%r11,%r12,1),%rdi
    258f:	83 fa 01             	cmp    $0x1,%edx
    2592:	0f 8e 10 ff ff ff    	jle    24a8 <hidden_triplets.0+0x11c8>
    2598:	48 83 7c 24 c8 02    	cmpq   $0x2,-0x38(%rsp)
    259e:	0f 86 fc 1e 00 00    	jbe    44a0 <hidden_triplets.0+0x31c0>
    25a4:	31 c0                	xor    %eax,%eax
    25a6:	66 0f ef d2          	pxor   %xmm2,%xmm2
    25aa:	66 0f 1f 44 00 00    	nopw   0x0(%rax,%rax,1)
    25b0:	48 89 c2             	mov    %rax,%rdx
    25b3:	48 83 c0 01          	add    $0x1,%rax
    25b7:	48 c1 e2 04          	shl    $0x4,%rdx
    25bb:	f3 41 0f 6f 04 12    	movdqu (%r10,%rdx,1),%xmm0
    25c1:	66 0f 76 c1          	pcmpeqd %xmm1,%xmm0
    25c5:	66 0f 76 c1          	pcmpeqd %xmm1,%xmm0
    25c9:	66 0f fa d0          	psubd  %xmm0,%xmm2
    25cd:	48 39 d8             	cmp    %rbx,%rax
    25d0:	75 de                	jne    25b0 <hidden_triplets.0+0x12d0>
    25d2:	66 0f 6f c2          	movdqa %xmm2,%xmm0
    25d6:	66 0f 73 d8 08       	psrldq $0x8,%xmm0
    25db:	66 0f fe d0          	paddd  %xmm0,%xmm2
    25df:	66 0f 6f c2          	movdqa %xmm2,%xmm0
    25e3:	66 0f 73 d8 04       	psrldq $0x4,%xmm0
    25e8:	66 0f fe d0          	paddd  %xmm0,%xmm2
    25ec:	66 0f 7e d0          	movd   %xmm2,%eax
    25f0:	4c 3b 7c 24 c0       	cmp    -0x40(%rsp),%r15
    25f5:	74 3c                	je     2633 <hidden_triplets.0+0x1353>
    25f7:	48 8b 54 24 e8       	mov    -0x18(%rsp),%rdx
    25fc:	48 8b 7c 24 b0       	mov    -0x50(%rsp),%rdi
    2601:	48 8d 4c 15 00       	lea    0x0(%rbp,%rdx,1),%rcx
    2606:	83 3c 8f 01          	cmpl   $0x1,(%rdi,%rcx,4)
    260a:	48 8d 4a 01          	lea    0x1(%rdx),%rcx
    260e:	83 d8 ff             	sbb    $0xffffffff,%eax
    2611:	49 39 cf             	cmp    %rcx,%r15
    2614:	7c 1d                	jl     2633 <hidden_triplets.0+0x1353>
    2616:	48 01 e9             	add    %rbp,%rcx
    2619:	83 3c 8f 01          	cmpl   $0x1,(%rdi,%rcx,4)
    261d:	83 d8 ff             	sbb    $0xffffffff,%eax
    2620:	48 83 c2 02          	add    $0x2,%rdx
    2624:	49 39 d7             	cmp    %rdx,%r15
    2627:	7c 0a                	jl     2633 <hidden_triplets.0+0x1353>
    2629:	48 01 ea             	add    %rbp,%rdx
    262c:	83 3c 97 01          	cmpl   $0x1,(%rdi,%rdx,4)
    2630:	83 d8 ff             	sbb    $0xffffffff,%eax
    2633:	4f 8d 34 22          	lea    (%r10,%r12,1),%r14
    2637:	4b 8d 3c 23          	lea    (%r11,%r12,1),%rdi
    263b:	83 f8 03             	cmp    $0x3,%eax
    263e:	0f 8f 64 fe ff ff    	jg     24a8 <hidden_triplets.0+0x11c8>
    2644:	48 8b 44 24 90       	mov    -0x70(%rsp),%rax
    2649:	48 89 7c 24 18       	mov    %rdi,0x18(%rsp)
    264e:	4c 89 f1             	mov    %r14,%rcx
    2651:	44 89 ee             	mov    %r13d,%esi
    2654:	48 8d 94 24 cc 01 00 	lea    0x1cc(%rsp),%rdx
    265b:	00 
    265c:	48 89 bc 24 68 01 00 	mov    %rdi,0x168(%rsp)
    2663:	00 
    2664:	4c 8b 0c 24          	mov    (%rsp),%r9
    2668:	48 89 94 24 10 01 00 	mov    %rdx,0x110(%rsp)
    266f:	00 
    2670:	48 8d 94 24 f0 01 00 	lea    0x1f0(%rsp),%rdx
    2677:	00 
    2678:	48 89 c7             	mov    %rax,%rdi
    267b:	48 89 94 24 18 01 00 	mov    %rdx,0x118(%rsp)
    2682:	00 
    2683:	48 8b 54 24 b0       	mov    -0x50(%rsp),%rdx
    2688:	44 89 ac 24 50 01 00 	mov    %r13d,0x150(%rsp)
    268f:	00 
    2690:	48 89 9c 24 b8 00 00 	mov    %rbx,0xb8(%rsp)
    2697:	00 
    2698:	4c 89 84 24 58 01 00 	mov    %r8,0x158(%rsp)
    269f:	00 
    26a0:	48 89 6c 24 48       	mov    %rbp,0x48(%rsp)
    26a5:	4c 89 94 24 20 01 00 	mov    %r10,0x120(%rsp)
    26ac:	00 
    26ad:	4c 89 5c 24 60       	mov    %r11,0x60(%rsp)
    26b2:	4c 89 b4 24 60 01 00 	mov    %r14,0x160(%rsp)
    26b9:	00 
    26ba:	eb 1f                	jmp    26db <hidden_triplets.0+0x13fb>
    26bc:	0f 1f 40 00          	nopl   0x0(%rax)
    26c0:	4c 01 64 24 18       	add    %r12,0x18(%rsp)
    26c5:	4c 03 44 24 88       	add    -0x78(%rsp),%r8
    26ca:	4c 01 e1             	add    %r12,%rcx
    26cd:	48 03 7c 24 90       	add    -0x70(%rsp),%rdi
    26d2:	83 fe 09             	cmp    $0x9,%esi
    26d5:	0f 84 a4 18 00 00    	je     3f7f <hidden_triplets.0+0x2c9f>
    26db:	41 8b 00             	mov    (%r8),%eax
    26de:	83 c6 01             	add    $0x1,%esi
    26e1:	85 c0                	test   %eax,%eax
    26e3:	75 db                	jne    26c0 <hidden_triplets.0+0x13e0>
    26e5:	48 8b 5c 24 48       	mov    0x48(%rsp),%rbx
    26ea:	48 83 7c 24 a0 01    	cmpq   $0x1,-0x60(%rsp)
    26f0:	4c 8d 34 1f          	lea    (%rdi,%rbx,1),%r14
    26f4:	0f 85 5a 19 00 00    	jne    4054 <hidden_triplets.0+0x2d74>
    26fa:	48 83 7c 24 c8 02    	cmpq   $0x2,-0x38(%rsp)
    2700:	0f 86 bb 1d 00 00    	jbe    44c1 <hidden_triplets.0+0x31e1>
    2706:	48 8b 9c 24 b8 00 00 	mov    0xb8(%rsp),%rbx
    270d:	00 
    270e:	45 31 d2             	xor    %r10d,%r10d
    2711:	66 0f ef d2          	pxor   %xmm2,%xmm2
    2715:	4d 89 d3             	mov    %r10,%r11
    2718:	49 83 c2 01          	add    $0x1,%r10
    271c:	49 c1 e3 04          	shl    $0x4,%r11
    2720:	f3 42 0f 6f 04 19    	movdqu (%rcx,%r11,1),%xmm0
    2726:	66 0f 76 c1          	pcmpeqd %xmm1,%xmm0
    272a:	66 0f 76 c1          	pcmpeqd %xmm1,%xmm0
    272e:	66 0f fa d0          	psubd  %xmm0,%xmm2
    2732:	49 39 da             	cmp    %rbx,%r10
    2735:	75 de                	jne    2715 <hidden_triplets.0+0x1435>
    2737:	66 0f 6f c2          	movdqa %xmm2,%xmm0
    273b:	66 0f 73 d8 08       	psrldq $0x8,%xmm0
    2740:	66 0f fe d0          	paddd  %xmm0,%xmm2
    2744:	66 0f 6f c2          	movdqa %xmm2,%xmm0
    2748:	66 0f 73 d8 04       	psrldq $0x4,%xmm0
    274d:	66 0f fe d0          	paddd  %xmm0,%xmm2
    2751:	66 0f 7e d3          	movd   %xmm2,%ebx
    2755:	4c 3b 7c 24 c0       	cmp    -0x40(%rsp),%r15
    275a:	0f 84 e6 18 00 00    	je     4046 <hidden_triplets.0+0x2d66>
    2760:	4c 8b 54 24 e8       	mov    -0x18(%rsp),%r10
    2765:	4f 8d 1c 32          	lea    (%r10,%r14,1),%r11
    2769:	42 83 3c 9a 01       	cmpl   $0x1,(%rdx,%r11,4)
    276e:	4d 8d 5a 01          	lea    0x1(%r10),%r11
    2772:	83 db ff             	sbb    $0xffffffff,%ebx
    2775:	4d 39 df             	cmp    %r11,%r15
    2778:	7c 1f                	jl     2799 <hidden_triplets.0+0x14b9>
    277a:	4d 01 f3             	add    %r14,%r11
    277d:	42 83 3c 9a 01       	cmpl   $0x1,(%rdx,%r11,4)
    2782:	83 db ff             	sbb    $0xffffffff,%ebx
    2785:	49 83 c2 02          	add    $0x2,%r10
    2789:	4d 39 d7             	cmp    %r10,%r15
    278c:	7c 0b                	jl     2799 <hidden_triplets.0+0x14b9>
    278e:	4d 01 f2             	add    %r14,%r10
    2791:	42 83 3c 92 01       	cmpl   $0x1,(%rdx,%r10,4)
    2796:	83 db ff             	sbb    $0xffffffff,%ebx
    2799:	83 fb 01             	cmp    $0x1,%ebx
    279c:	0f 8e 1e ff ff ff    	jle    26c0 <hidden_triplets.0+0x13e0>
    27a2:	48 83 7c 24 c8 02    	cmpq   $0x2,-0x38(%rsp)
    27a8:	0f 86 2d 1d 00 00    	jbe    44db <hidden_triplets.0+0x31fb>
    27ae:	48 8b 9c 24 b8 00 00 	mov    0xb8(%rsp),%rbx
    27b5:	00 
    27b6:	45 31 d2             	xor    %r10d,%r10d
    27b9:	66 0f ef d2          	pxor   %xmm2,%xmm2
    27bd:	4d 89 d3             	mov    %r10,%r11
    27c0:	49 83 c2 01          	add    $0x1,%r10
    27c4:	49 c1 e3 04          	shl    $0x4,%r11
    27c8:	f3 42 0f 6f 04 19    	movdqu (%rcx,%r11,1),%xmm0
    27ce:	66 0f 76 c1          	pcmpeqd %xmm1,%xmm0
    27d2:	66 0f 76 c1          	pcmpeqd %xmm1,%xmm0
    27d6:	66 0f fa d0          	psubd  %xmm0,%xmm2
    27da:	49 39 da             	cmp    %rbx,%r10
    27dd:	75 de                	jne    27bd <hidden_triplets.0+0x14dd>
    27df:	66 0f 6f c2          	movdqa %xmm2,%xmm0
    27e3:	66 0f 73 d8 08       	psrldq $0x8,%xmm0
    27e8:	66 0f fe d0          	paddd  %xmm0,%xmm2
    27ec:	66 0f 6f c2          	movdqa %xmm2,%xmm0
    27f0:	66 0f 73 d8 04       	psrldq $0x4,%xmm0
    27f5:	66 0f fe d0          	paddd  %xmm0,%xmm2
    27f9:	66 0f 7e d3          	movd   %xmm2,%ebx
    27fd:	4c 3b 7c 24 c0       	cmp    -0x40(%rsp),%r15
    2802:	74 39                	je     283d <hidden_triplets.0+0x155d>
    2804:	4c 8b 54 24 e8       	mov    -0x18(%rsp),%r10
    2809:	4f 8d 1c 32          	lea    (%r10,%r14,1),%r11
    280d:	42 83 3c 9a 01       	cmpl   $0x1,(%rdx,%r11,4)
    2812:	4d 8d 5a 01          	lea    0x1(%r10),%r11
    2816:	83 db ff             	sbb    $0xffffffff,%ebx
    2819:	4d 39 df             	cmp    %r11,%r15
    281c:	7c 1f                	jl     283d <hidden_triplets.0+0x155d>
    281e:	4d 01 f3             	add    %r14,%r11
    2821:	42 83 3c 9a 01       	cmpl   $0x1,(%rdx,%r11,4)
    2826:	83 db ff             	sbb    $0xffffffff,%ebx
    2829:	49 83 c2 02          	add    $0x2,%r10
    282d:	4d 39 d7             	cmp    %r10,%r15
    2830:	7c 0b                	jl     283d <hidden_triplets.0+0x155d>
    2832:	4d 01 f2             	add    %r14,%r10
    2835:	42 83 3c 92 01       	cmpl   $0x1,(%rdx,%r10,4)
    283a:	83 db ff             	sbb    $0xffffffff,%ebx
    283d:	83 fb 03             	cmp    $0x3,%ebx
    2840:	0f 8f 7a fe ff ff    	jg     26c0 <hidden_triplets.0+0x13e0>
    2846:	48 8d 59 fc          	lea    -0x4(%rcx),%rbx
    284a:	41 ba 01 00 00 00    	mov    $0x1,%r10d
    2850:	48 89 9c 24 f8 00 00 	mov    %rbx,0xf8(%rsp)
    2857:	00 
    2858:	48 8b 9c 24 20 01 00 	mov    0x120(%rsp),%rbx
    285f:	00 
    2860:	48 83 eb 04          	sub    $0x4,%rbx
    2864:	48 89 9c 24 08 01 00 	mov    %rbx,0x108(%rsp)
    286b:	00 
    286c:	eb 0f                	jmp    287d <hidden_triplets.0+0x159d>
    286e:	66 90                	xchg   %ax,%ax
    2870:	49 83 c2 01          	add    $0x1,%r10
    2874:	4d 39 d7             	cmp    %r10,%r15
    2877:	0f 8c 43 fe ff ff    	jl     26c0 <hidden_triplets.0+0x13e0>
    287d:	4c 8b 9c 24 08 01 00 	mov    0x108(%rsp),%r11
    2884:	00 
    2885:	48 8b 9c 24 f8 00 00 	mov    0xf8(%rsp),%rbx
    288c:	00 
    288d:	47 8b 1c 93          	mov    (%r11,%r10,4),%r11d
    2891:	46 39 1c 93          	cmp    %r11d,(%rbx,%r10,4)
    2895:	74 d9                	je     2870 <hidden_triplets.0+0x1590>
    2897:	4c 8b 54 24 d0       	mov    -0x30(%rsp),%r10
    289c:	4c 63 de             	movslq %esi,%r11
    289f:	48 8b 5c 24 f8       	mov    -0x8(%rsp),%rbx
    28a4:	41 89 c5             	mov    %eax,%r13d
    28a7:	89 b4 24 98 00 00 00 	mov    %esi,0x98(%rsp)
    28ae:	4d 0f af d3          	imul   %r11,%r10
    28b2:	4c 03 54 24 f0       	add    -0x10(%rsp),%r10
    28b7:	89 b4 24 28 01 00 00 	mov    %esi,0x128(%rsp)
    28be:	4c 0f af 5c 24 90    	imul   -0x70(%rsp),%r11
    28c4:	4a 8d 1c 93          	lea    (%rbx,%r10,4),%rbx
    28c8:	48 89 9c 24 c0 00 00 	mov    %rbx,0xc0(%rsp)
    28cf:	00 
    28d0:	48 8b 5c 24 08       	mov    0x8(%rsp),%rbx
    28d5:	4d 8d 14 1b          	lea    (%r11,%rbx,1),%r10
    28d9:	4d 8d 5c 1b 01       	lea    0x1(%r11,%rbx,1),%r11
    28de:	4a 8d 2c 92          	lea    (%rdx,%r10,4),%rbp
    28e2:	4a 8d 1c 9a          	lea    (%rdx,%r11,4),%rbx
    28e6:	48 89 ac 24 b0 00 00 	mov    %rbp,0xb0(%rsp)
    28ed:	00 
    28ee:	48 89 de             	mov    %rbx,%rsi
    28f1:	eb 35                	jmp    2928 <hidden_triplets.0+0x1648>
    28f3:	83 84 24 98 00 00 00 	addl   $0x1,0x98(%rsp)
    28fa:	01 
    28fb:	8b 84 24 98 00 00 00 	mov    0x98(%rsp),%eax
    2902:	4c 01 e6             	add    %r12,%rsi
    2905:	4c 8b 5c 24 88       	mov    -0x78(%rsp),%r11
    290a:	4c 01 a4 24 b0 00 00 	add    %r12,0xb0(%rsp)
    2911:	00 
    2912:	4c 01 9c 24 c0 00 00 	add    %r11,0xc0(%rsp)
    2919:	00 
    291a:	4c 03 54 24 90       	add    -0x70(%rsp),%r10
    291f:	83 f8 0a             	cmp    $0xa,%eax
    2922:	0f 84 f8 1c 00 00    	je     4620 <hidden_triplets.0+0x3340>
    2928:	48 8b 84 24 c0 00 00 	mov    0xc0(%rsp),%rax
    292f:	00 
    2930:	44 8b 18             	mov    (%rax),%r11d
    2933:	45 85 db             	test   %r11d,%r11d
    2936:	75 bb                	jne    28f3 <hidden_triplets.0+0x1613>
    2938:	4c 89 94 24 a0 00 00 	mov    %r10,0xa0(%rsp)
    293f:	00 
    2940:	49 83 ff 03          	cmp    $0x3,%r15
    2944:	0f 8e a8 1b 00 00    	jle    44f2 <hidden_triplets.0+0x3212>
    294a:	31 c0                	xor    %eax,%eax
    294c:	66 0f ef c0          	pxor   %xmm0,%xmm0
    2950:	48 89 c3             	mov    %rax,%rbx
    2953:	48 83 c0 01          	add    $0x1,%rax
    2957:	48 c1 e3 04          	shl    $0x4,%rbx
    295b:	f3 0f 6f 14 1e       	movdqu (%rsi,%rbx,1),%xmm2
    2960:	66 0f 76 d1          	pcmpeqd %xmm1,%xmm2
    2964:	66 0f 76 d1          	pcmpeqd %xmm1,%xmm2
    2968:	66 0f fa c2          	psubd  %xmm2,%xmm0
    296c:	48 3b 84 24 d0 00 00 	cmp    0xd0(%rsp),%rax
    2973:	00 
    2974:	75 da                	jne    2950 <hidden_triplets.0+0x1670>
    2976:	66 0f 6f d0          	movdqa %xmm0,%xmm2
    297a:	48 8b ac 24 d8 00 00 	mov    0xd8(%rsp),%rbp
    2981:	00 
    2982:	66 0f 73 da 08       	psrldq $0x8,%xmm2
    2987:	66 0f fe c2          	paddd  %xmm2,%xmm0
    298b:	66 0f 6f d0          	movdqa %xmm0,%xmm2
    298f:	66 0f 73 da 04       	psrldq $0x4,%xmm2
    2994:	66 0f fe c2          	paddd  %xmm2,%xmm0
    2998:	66 0f 7e c0          	movd   %xmm0,%eax
    299c:	48 39 ac 24 c8 00 00 	cmp    %rbp,0xc8(%rsp)
    29a3:	00 
    29a4:	74 39                	je     29df <hidden_triplets.0+0x16ff>
    29a6:	48 8b 9c 24 e0 00 00 	mov    0xe0(%rsp),%rbx
    29ad:	00 
    29ae:	49 8d 2c 1a          	lea    (%r10,%rbx,1),%rbp
    29b2:	83 3c aa 01          	cmpl   $0x1,(%rdx,%rbp,4)
    29b6:	48 8d 6b 01          	lea    0x1(%rbx),%rbp
    29ba:	83 d8 ff             	sbb    $0xffffffff,%eax
    29bd:	49 39 ef             	cmp    %rbp,%r15
    29c0:	7c 1d                	jl     29df <hidden_triplets.0+0x16ff>
    29c2:	4c 01 d5             	add    %r10,%rbp
    29c5:	83 3c aa 01          	cmpl   $0x1,(%rdx,%rbp,4)
    29c9:	83 d8 ff             	sbb    $0xffffffff,%eax
    29cc:	48 83 c3 02          	add    $0x2,%rbx
    29d0:	49 39 df             	cmp    %rbx,%r15
    29d3:	7c 0a                	jl     29df <hidden_triplets.0+0x16ff>
    29d5:	4c 01 d3             	add    %r10,%rbx
    29d8:	83 3c 9a 01          	cmpl   $0x1,(%rdx,%rbx,4)
    29dc:	83 d8 ff             	sbb    $0xffffffff,%eax
    29df:	83 f8 01             	cmp    $0x1,%eax
    29e2:	0f 8e 0b ff ff ff    	jle    28f3 <hidden_triplets.0+0x1613>
    29e8:	b8 01 00 00 00       	mov    $0x1,%eax
    29ed:	eb 0d                	jmp    29fc <hidden_triplets.0+0x171c>
    29ef:	48 83 c0 01          	add    $0x1,%rax
    29f3:	49 39 c7             	cmp    %rax,%r15
    29f6:	0f 8c f7 fe ff ff    	jl     28f3 <hidden_triplets.0+0x1613>
    29fc:	48 8b ac 24 b0 00 00 	mov    0xb0(%rsp),%rbp
    2a03:	00 
    2a04:	48 8b 9c 24 08 01 00 	mov    0x108(%rsp),%rbx
    2a0b:	00 
    2a0c:	8b 6c 85 00          	mov    0x0(%rbp,%rax,4),%ebp
    2a10:	39 2c 83             	cmp    %ebp,(%rbx,%rax,4)
    2a13:	74 da                	je     29ef <hidden_triplets.0+0x170f>
    2a15:	b8 01 00 00 00       	mov    $0x1,%eax
    2a1a:	eb 0d                	jmp    2a29 <hidden_triplets.0+0x1749>
    2a1c:	48 83 c0 01          	add    $0x1,%rax
    2a20:	49 39 c7             	cmp    %rax,%r15
    2a23:	0f 8c ca fe ff ff    	jl     28f3 <hidden_triplets.0+0x1613>
    2a29:	48 8b ac 24 b0 00 00 	mov    0xb0(%rsp),%rbp
    2a30:	00 
    2a31:	48 8b 9c 24 f8 00 00 	mov    0xf8(%rsp),%rbx
    2a38:	00 
    2a39:	8b 6c 85 00          	mov    0x0(%rbp,%rax,4),%ebp
    2a3d:	39 2c 83             	cmp    %ebp,(%rbx,%rax,4)
    2a40:	74 da                	je     2a1c <hidden_triplets.0+0x173c>
    2a42:	49 83 ff 03          	cmp    $0x3,%r15
    2a46:	0f 8e 22 1c 00 00    	jle    466e <hidden_triplets.0+0x338e>
    2a4c:	31 c0                	xor    %eax,%eax
    2a4e:	66 0f ef c0          	pxor   %xmm0,%xmm0
    2a52:	48 89 c3             	mov    %rax,%rbx
    2a55:	48 83 c0 01          	add    $0x1,%rax
    2a59:	48 c1 e3 04          	shl    $0x4,%rbx
    2a5d:	f3 0f 6f 14 1e       	movdqu (%rsi,%rbx,1),%xmm2
    2a62:	66 0f 76 d1          	pcmpeqd %xmm1,%xmm2
    2a66:	66 0f 76 d1          	pcmpeqd %xmm1,%xmm2
    2a6a:	66 0f fa c2          	psubd  %xmm2,%xmm0
    2a6e:	48 3b 84 24 d0 00 00 	cmp    0xd0(%rsp),%rax
    2a75:	00 
    2a76:	75 da                	jne    2a52 <hidden_triplets.0+0x1772>
    2a78:	66 0f 6f d0          	movdqa %xmm0,%xmm2
    2a7c:	48 8b ac 24 d8 00 00 	mov    0xd8(%rsp),%rbp
    2a83:	00 
    2a84:	66 0f 73 da 08       	psrldq $0x8,%xmm2
    2a89:	66 0f fe c2          	paddd  %xmm2,%xmm0
    2a8d:	66 0f 6f d0          	movdqa %xmm0,%xmm2
    2a91:	66 0f 73 da 04       	psrldq $0x4,%xmm2
    2a96:	66 0f fe c2          	paddd  %xmm2,%xmm0
    2a9a:	66 0f 7e c0          	movd   %xmm0,%eax
    2a9e:	48 39 ac 24 c8 00 00 	cmp    %rbp,0xc8(%rsp)
    2aa5:	00 
    2aa6:	0f 84 a6 1b 00 00    	je     4652 <hidden_triplets.0+0x3372>
    2aac:	48 8b 9c 24 e0 00 00 	mov    0xe0(%rsp),%rbx
    2ab3:	00 
    2ab4:	49 8d 2c 1a          	lea    (%r10,%rbx,1),%rbp
    2ab8:	83 3c aa 01          	cmpl   $0x1,(%rdx,%rbp,4)
    2abc:	48 8d 6b 01          	lea    0x1(%rbx),%rbp
    2ac0:	83 d8 ff             	sbb    $0xffffffff,%eax
    2ac3:	49 39 ef             	cmp    %rbp,%r15
    2ac6:	7c 1d                	jl     2ae5 <hidden_triplets.0+0x1805>
    2ac8:	4c 01 d5             	add    %r10,%rbp
    2acb:	83 3c aa 01          	cmpl   $0x1,(%rdx,%rbp,4)
    2acf:	83 d8 ff             	sbb    $0xffffffff,%eax
    2ad2:	48 83 c3 02          	add    $0x2,%rbx
    2ad6:	49 39 df             	cmp    %rbx,%r15
    2ad9:	7c 0a                	jl     2ae5 <hidden_triplets.0+0x1805>
    2adb:	4c 01 d3             	add    %r10,%rbx
    2ade:	83 3c 9a 01          	cmpl   $0x1,(%rdx,%rbx,4)
    2ae2:	83 d8 ff             	sbb    $0xffffffff,%eax
    2ae5:	83 f8 03             	cmp    $0x3,%eax
    2ae8:	0f 8f 05 fe ff ff    	jg     28f3 <hidden_triplets.0+0x1613>
    2aee:	49 83 ff 03          	cmp    $0x3,%r15
    2af2:	0f 8e 68 1b 00 00    	jle    4660 <hidden_triplets.0+0x3380>
    2af8:	48 8b 9c 24 20 01 00 	mov    0x120(%rsp),%rbx
    2aff:	00 
    2b00:	31 c0                	xor    %eax,%eax
    2b02:	45 31 db             	xor    %r11d,%r11d
    2b05:	66 0f ef c0          	pxor   %xmm0,%xmm0
    2b09:	f3 0f 6f 14 03       	movdqu (%rbx,%rax,1),%xmm2
    2b0e:	f3 0f 6f 2c 01       	movdqu (%rcx,%rax,1),%xmm5
    2b13:	49 83 c3 01          	add    $0x1,%r11
    2b17:	f3 0f 6f 34 06       	movdqu (%rsi,%rax,1),%xmm6
    2b1c:	48 83 c0 10          	add    $0x10,%rax
    2b20:	66 0f fe d5          	paddd  %xmm5,%xmm2
    2b24:	66 0f fe d6          	paddd  %xmm6,%xmm2
    2b28:	66 0f 76 d1          	pcmpeqd %xmm1,%xmm2
    2b2c:	66 0f 76 d1          	pcmpeqd %xmm1,%xmm2
    2b30:	66 0f fa c2          	psubd  %xmm2,%xmm0
    2b34:	4c 3b 9c 24 d0 00 00 	cmp    0xd0(%rsp),%r11
    2b3b:	00 
    2b3c:	75 cb                	jne    2b09 <hidden_triplets.0+0x1829>
    2b3e:	66 0f 6f d0          	movdqa %xmm0,%xmm2
    2b42:	48 8b 9c 24 d8 00 00 	mov    0xd8(%rsp),%rbx
    2b49:	00 
    2b4a:	66 0f 73 da 08       	psrldq $0x8,%xmm2
    2b4f:	66 0f fe c2          	paddd  %xmm2,%xmm0
    2b53:	66 0f 6f d0          	movdqa %xmm0,%xmm2
    2b57:	66 0f 73 da 04       	psrldq $0x4,%xmm2
    2b5c:	66 0f fe c2          	paddd  %xmm2,%xmm0
    2b60:	66 41 0f 7e c3       	movd   %xmm0,%r11d
    2b65:	48 39 9c 24 c8 00 00 	cmp    %rbx,0xc8(%rsp)
    2b6c:	00 
    2b6d:	0f 84 a3 00 00 00    	je     2c16 <hidden_triplets.0+0x1936>
    2b73:	48 8b 84 24 e0 00 00 	mov    0xe0(%rsp),%rax
    2b7a:	00 
    2b7b:	48 89 44 24 70       	mov    %rax,0x70(%rsp)
    2b80:	48 8b 44 24 48       	mov    0x48(%rsp),%rax
    2b85:	48 8b 6c 24 70       	mov    0x70(%rsp),%rbp
    2b8a:	48 8b 5c 24 70       	mov    0x70(%rsp),%rbx
    2b8f:	48 01 c5             	add    %rax,%rbp
    2b92:	4c 01 f3             	add    %r14,%rbx
    2b95:	8b 1c 9a             	mov    (%rdx,%rbx,4),%ebx
    2b98:	03 1c aa             	add    (%rdx,%rbp,4),%ebx
    2b9b:	48 8b 6c 24 70       	mov    0x70(%rsp),%rbp
    2ba0:	4c 01 d5             	add    %r10,%rbp
    2ba3:	03 1c aa             	add    (%rdx,%rbp,4),%ebx
    2ba6:	83 fb 01             	cmp    $0x1,%ebx
    2ba9:	48 8b 5c 24 70       	mov    0x70(%rsp),%rbx
    2bae:	41 83 db ff          	sbb    $0xffffffff,%r11d
    2bb2:	48 83 c3 01          	add    $0x1,%rbx
    2bb6:	49 39 df             	cmp    %rbx,%r15
    2bb9:	7c 5b                	jl     2c16 <hidden_triplets.0+0x1936>
    2bbb:	4a 8d 2c 33          	lea    (%rbx,%r14,1),%rbp
    2bbf:	48 89 ac 24 48 01 00 	mov    %rbp,0x148(%rsp)
    2bc6:	00 
    2bc7:	48 89 c5             	mov    %rax,%rbp
    2bca:	48 8b 84 24 48 01 00 	mov    0x148(%rsp),%rax
    2bd1:	00 
    2bd2:	48 01 dd             	add    %rbx,%rbp
    2bd5:	4c 01 d3             	add    %r10,%rbx
    2bd8:	8b 2c aa             	mov    (%rdx,%rbp,4),%ebp
    2bdb:	03 2c 82             	add    (%rdx,%rax,4),%ebp
    2bde:	48 8b 44 24 70       	mov    0x70(%rsp),%rax
    2be3:	03 2c 9a             	add    (%rdx,%rbx,4),%ebp
    2be6:	83 fd 01             	cmp    $0x1,%ebp
    2be9:	41 83 db ff          	sbb    $0xffffffff,%r11d
    2bed:	48 83 c0 02          	add    $0x2,%rax
    2bf1:	49 39 c7             	cmp    %rax,%r15
    2bf4:	7c 20                	jl     2c16 <hidden_triplets.0+0x1936>
    2bf6:	48 8b 5c 24 48       	mov    0x48(%rsp),%rbx
    2bfb:	48 8d 2c 03          	lea    (%rbx,%rax,1),%rbp
    2bff:	4a 8d 1c 30          	lea    (%rax,%r14,1),%rbx
    2c03:	4c 01 d0             	add    %r10,%rax
    2c06:	8b 1c 9a             	mov    (%rdx,%rbx,4),%ebx
    2c09:	03 1c aa             	add    (%rdx,%rbp,4),%ebx
    2c0c:	03 1c 82             	add    (%rdx,%rax,4),%ebx
    2c0f:	83 fb 01             	cmp    $0x1,%ebx
    2c12:	41 83 db ff          	sbb    $0xffffffff,%r11d
    2c16:	41 83 fb 03          	cmp    $0x3,%r11d
    2c1a:	0f 85 d3 fc ff ff    	jne    28f3 <hidden_triplets.0+0x1613>
    2c20:	8b b4 24 28 01 00 00 	mov    0x128(%rsp),%esi
    2c27:	44 89 e8             	mov    %r13d,%eax
    2c2a:	4c 8b 5c 24 60       	mov    0x60(%rsp),%r11
    2c2f:	45 31 d2             	xor    %r10d,%r10d
    2c32:	41 8b 1b             	mov    (%r11),%ebx
    2c35:	4c 8b 74 24 58       	mov    0x58(%rsp),%r14
    2c3a:	4d 01 cb             	add    %r9,%r11
    2c3d:	43 89 1c 96          	mov    %ebx,(%r14,%r10,4)
    2c41:	49 83 c2 01          	add    $0x1,%r10
    2c45:	49 83 fa 09          	cmp    $0x9,%r10
    2c49:	75 e7                	jne    2c32 <hidden_triplets.0+0x1952>
    2c4b:	4c 8b 5c 24 18       	mov    0x18(%rsp),%r11
    2c50:	45 31 d2             	xor    %r10d,%r10d
    2c53:	41 8b 1b             	mov    (%r11),%ebx
    2c56:	4c 8b b4 24 10 01 00 	mov    0x110(%rsp),%r14
    2c5d:	00 
    2c5e:	4d 01 cb             	add    %r9,%r11
    2c61:	43 89 1c 16          	mov    %ebx,(%r14,%r10,1)
    2c65:	49 83 c2 04          	add    $0x4,%r10
    2c69:	49 83 fa 24          	cmp    $0x24,%r10
    2c6d:	75 e4                	jne    2c53 <hidden_triplets.0+0x1973>
    2c6f:	4c 8b 94 24 a0 00 00 	mov    0xa0(%rsp),%r10
    2c76:	00 
    2c77:	4c 03 54 24 a0       	add    -0x60(%rsp),%r10
    2c7c:	4a 8d 1c 92          	lea    (%rdx,%r10,4),%rbx
    2c80:	45 31 d2             	xor    %r10d,%r10d
    2c83:	48 89 9c 24 98 00 00 	mov    %rbx,0x98(%rsp)
    2c8a:	00 
    2c8b:	49 89 db             	mov    %rbx,%r11
    2c8e:	41 8b 2b             	mov    (%r11),%ebp
    2c91:	4c 8b b4 24 18 01 00 	mov    0x118(%rsp),%r14
    2c98:	00 
    2c99:	4d 01 cb             	add    %r9,%r11
    2c9c:	43 89 2c 16          	mov    %ebp,(%r14,%r10,1)
    2ca0:	49 83 c2 04          	add    $0x4,%r10
    2ca4:	49 83 fa 24          	cmp    $0x24,%r10
    2ca8:	75 e4                	jne    2c8e <hidden_triplets.0+0x19ae>
    2caa:	4c 8b 5c 24 60       	mov    0x60(%rsp),%r11
    2caf:	bd 01 00 00 00       	mov    $0x1,%ebp
    2cb4:	bb 00 00 00 80       	mov    $0x80000000,%ebx
    2cb9:	4c 8b ac 24 a0 00 00 	mov    0xa0(%rsp),%r13
    2cc0:	00 
    2cc1:	41 be 01 00 00 00    	mov    $0x1,%r14d
    2cc7:	4c 2b 6c 24 48       	sub    0x48(%rsp),%r13
    2ccc:	45 8b 13             	mov    (%r11),%r10d
    2ccf:	45 03 14 bb          	add    (%r11,%rdi,4),%r10d
    2cd3:	47 03 14 ab          	add    (%r11,%r13,4),%r10d
    2cd7:	41 39 da             	cmp    %ebx,%r10d
    2cda:	0f 8f 47 1c 00 00    	jg     4927 <hidden_triplets.0+0x3647>
    2ce0:	48 83 c5 01          	add    $0x1,%rbp
    2ce4:	4d 01 cb             	add    %r9,%r11
    2ce7:	49 39 ef             	cmp    %rbp,%r15
    2cea:	7d e0                	jge    2ccc <hidden_triplets.0+0x19ec>
    2cec:	4d 63 d6             	movslq %r14d,%r10
    2cef:	4c 0f af 54 24 a0    	imul   -0x60(%rsp),%r10
    2cf5:	4c 03 54 24 08       	add    0x8(%rsp),%r10
    2cfa:	31 ed                	xor    %ebp,%ebp
    2cfc:	4c 03 54 24 90       	add    -0x70(%rsp),%r10
    2d01:	44 89 74 24 70       	mov    %r14d,0x70(%rsp)
    2d06:	41 be 01 00 00 00    	mov    $0x1,%r14d
    2d0c:	4e 8d 14 92          	lea    (%rdx,%r10,4),%r10
    2d10:	4d 89 d3             	mov    %r10,%r11
    2d13:	eb 13                	jmp    2d28 <hidden_triplets.0+0x1a48>
    2d15:	8b 5c 24 70          	mov    0x70(%rsp),%ebx
    2d19:	41 39 1b             	cmp    %ebx,(%r11)
    2d1c:	75 03                	jne    2d21 <hidden_triplets.0+0x1a41>
    2d1e:	83 c5 01             	add    $0x1,%ebp
    2d21:	49 83 c6 01          	add    $0x1,%r14
    2d25:	4d 01 e3             	add    %r12,%r11
    2d28:	4c 39 74 24 68       	cmp    %r14,0x68(%rsp)
    2d2d:	7d e6                	jge    2d15 <hidden_triplets.0+0x1a35>
    2d2f:	01 2d 03 b3 02 00    	add    %ebp,0x2b303(%rip)        # 2e038 <__logic_MOD_naked3>
    2d35:	41 bb 01 00 00 00    	mov    $0x1,%r11d
    2d3b:	eb 17                	jmp    2d54 <hidden_triplets.0+0x1a74>
    2d3d:	8b 5c 24 70          	mov    0x70(%rsp),%ebx
    2d41:	41 39 1a             	cmp    %ebx,(%r10)
    2d44:	75 07                	jne    2d4d <hidden_triplets.0+0x1a6d>
    2d46:	41 c7 02 00 00 00 00 	movl   $0x0,(%r10)
    2d4d:	49 83 c3 01          	add    $0x1,%r11
    2d51:	4d 01 e2             	add    %r12,%r10
    2d54:	4c 39 5c 24 68       	cmp    %r11,0x68(%rsp)
    2d59:	7d e2                	jge    2d3d <hidden_triplets.0+0x1a5d>
    2d5b:	4c 8b 5c 24 60       	mov    0x60(%rsp),%r11
    2d60:	bd 01 00 00 00       	mov    $0x1,%ebp
    2d65:	bb 00 00 00 80       	mov    $0x80000000,%ebx
    2d6a:	41 be 01 00 00 00    	mov    $0x1,%r14d
    2d70:	45 8b 13             	mov    (%r11),%r10d
    2d73:	45 03 14 bb          	add    (%r11,%rdi,4),%r10d
    2d77:	47 03 14 ab          	add    (%r11,%r13,4),%r10d
    2d7b:	41 39 da             	cmp    %ebx,%r10d
    2d7e:	0f 8f 71 1c 00 00    	jg     49f5 <hidden_triplets.0+0x3715>
    2d84:	48 83 c5 01          	add    $0x1,%rbp
    2d88:	4d 01 cb             	add    %r9,%r11
    2d8b:	49 39 ef             	cmp    %rbp,%r15
    2d8e:	7d e0                	jge    2d70 <hidden_triplets.0+0x1a90>
    2d90:	4d 63 d6             	movslq %r14d,%r10
    2d93:	4c 0f af 54 24 a0    	imul   -0x60(%rsp),%r10
    2d99:	4c 03 54 24 08       	add    0x8(%rsp),%r10
    2d9e:	31 ed                	xor    %ebp,%ebp
    2da0:	4c 03 54 24 90       	add    -0x70(%rsp),%r10
    2da5:	44 89 74 24 70       	mov    %r14d,0x70(%rsp)
    2daa:	41 be 01 00 00 00    	mov    $0x1,%r14d
    2db0:	4e 8d 14 92          	lea    (%rdx,%r10,4),%r10
    2db4:	4d 89 d3             	mov    %r10,%r11
    2db7:	eb 13                	jmp    2dcc <hidden_triplets.0+0x1aec>
    2db9:	8b 5c 24 70          	mov    0x70(%rsp),%ebx
    2dbd:	41 39 1b             	cmp    %ebx,(%r11)
    2dc0:	75 03                	jne    2dc5 <hidden_triplets.0+0x1ae5>
    2dc2:	83 c5 01             	add    $0x1,%ebp
    2dc5:	49 83 c6 01          	add    $0x1,%r14
    2dc9:	4d 01 e3             	add    %r12,%r11
    2dcc:	4c 39 74 24 68       	cmp    %r14,0x68(%rsp)
    2dd1:	7d e6                	jge    2db9 <hidden_triplets.0+0x1ad9>
    2dd3:	01 2d 5f b2 02 00    	add    %ebp,0x2b25f(%rip)        # 2e038 <__logic_MOD_naked3>
    2dd9:	41 bb 01 00 00 00    	mov    $0x1,%r11d
    2ddf:	eb 17                	jmp    2df8 <hidden_triplets.0+0x1b18>
    2de1:	8b 5c 24 70          	mov    0x70(%rsp),%ebx
    2de5:	41 39 1a             	cmp    %ebx,(%r10)
    2de8:	75 07                	jne    2df1 <hidden_triplets.0+0x1b11>
    2dea:	41 c7 02 00 00 00 00 	movl   $0x0,(%r10)
    2df1:	49 83 c3 01          	add    $0x1,%r11
    2df5:	4d 01 e2             	add    %r12,%r10
    2df8:	4c 39 5c 24 68       	cmp    %r11,0x68(%rsp)
    2dfd:	7d e2                	jge    2de1 <hidden_triplets.0+0x1b01>
    2dff:	4c 8b 5c 24 60       	mov    0x60(%rsp),%r11
    2e04:	bd 01 00 00 00       	mov    $0x1,%ebp
    2e09:	bb 00 00 00 80       	mov    $0x80000000,%ebx
    2e0e:	41 be 01 00 00 00    	mov    $0x1,%r14d
    2e14:	45 8b 13             	mov    (%r11),%r10d
    2e17:	45 03 14 bb          	add    (%r11,%rdi,4),%r10d
    2e1b:	47 03 14 ab          	add    (%r11,%r13,4),%r10d
    2e1f:	41 39 da             	cmp    %ebx,%r10d
    2e22:	0f 8f d8 1b 00 00    	jg     4a00 <hidden_triplets.0+0x3720>
    2e28:	48 83 c5 01          	add    $0x1,%rbp
    2e2c:	4d 01 cb             	add    %r9,%r11
    2e2f:	49 39 ef             	cmp    %rbp,%r15
    2e32:	7d e0                	jge    2e14 <hidden_triplets.0+0x1b34>
    2e34:	4d 63 d6             	movslq %r14d,%r10
    2e37:	44 89 74 24 70       	mov    %r14d,0x70(%rsp)
    2e3c:	45 31 ed             	xor    %r13d,%r13d
    2e3f:	bd 01 00 00 00       	mov    $0x1,%ebp
    2e44:	4c 0f af 54 24 a0    	imul   -0x60(%rsp),%r10
    2e4a:	4c 03 54 24 08       	add    0x8(%rsp),%r10
    2e4f:	4c 03 54 24 90       	add    -0x70(%rsp),%r10
    2e54:	4e 8d 1c 92          	lea    (%rdx,%r10,4),%r11
    2e58:	4d 89 da             	mov    %r11,%r10
    2e5b:	eb 14                	jmp    2e71 <hidden_triplets.0+0x1b91>
    2e5d:	8b 5c 24 70          	mov    0x70(%rsp),%ebx
    2e61:	41 39 1a             	cmp    %ebx,(%r10)
    2e64:	75 04                	jne    2e6a <hidden_triplets.0+0x1b8a>
    2e66:	41 83 c5 01          	add    $0x1,%r13d
    2e6a:	48 83 c5 01          	add    $0x1,%rbp
    2e6e:	4d 01 e2             	add    %r12,%r10
    2e71:	48 39 6c 24 68       	cmp    %rbp,0x68(%rsp)
    2e76:	7d e5                	jge    2e5d <hidden_triplets.0+0x1b7d>
    2e78:	4c 8b 54 24 58       	mov    0x58(%rsp),%r10
    2e7d:	48 8d ac 24 14 02 00 	lea    0x214(%rsp),%rbp
    2e84:	00 
    2e85:	41 83 3a 01          	cmpl   $0x1,(%r10)
    2e89:	83 d8 ff             	sbb    $0xffffffff,%eax
    2e8c:	41 83 7a 04 00       	cmpl   $0x0,0x4(%r10)
    2e91:	74 03                	je     2e96 <hidden_triplets.0+0x1bb6>
    2e93:	83 c0 01             	add    $0x1,%eax
    2e96:	41 83 7a 08 00       	cmpl   $0x0,0x8(%r10)
    2e9b:	74 03                	je     2ea0 <hidden_triplets.0+0x1bc0>
    2e9d:	83 c0 01             	add    $0x1,%eax
    2ea0:	41 83 7a 0c 00       	cmpl   $0x0,0xc(%r10)
    2ea5:	74 03                	je     2eaa <hidden_triplets.0+0x1bca>
    2ea7:	83 c0 01             	add    $0x1,%eax
    2eaa:	41 83 7a 10 00       	cmpl   $0x0,0x10(%r10)
    2eaf:	74 03                	je     2eb4 <hidden_triplets.0+0x1bd4>
    2eb1:	83 c0 01             	add    $0x1,%eax
    2eb4:	41 83 7a 14 00       	cmpl   $0x0,0x14(%r10)
    2eb9:	74 03                	je     2ebe <hidden_triplets.0+0x1bde>
    2ebb:	83 c0 01             	add    $0x1,%eax
    2ebe:	41 83 7a 18 00       	cmpl   $0x0,0x18(%r10)
    2ec3:	74 03                	je     2ec8 <hidden_triplets.0+0x1be8>
    2ec5:	83 c0 01             	add    $0x1,%eax
    2ec8:	41 83 7a 1c 00       	cmpl   $0x0,0x1c(%r10)
    2ecd:	74 03                	je     2ed2 <hidden_triplets.0+0x1bf2>
    2ecf:	83 c0 01             	add    $0x1,%eax
    2ed2:	41 83 7a 20 00       	cmpl   $0x0,0x20(%r10)
    2ed7:	74 03                	je     2edc <hidden_triplets.0+0x1bfc>
    2ed9:	83 c0 01             	add    $0x1,%eax
    2edc:	49 83 c2 24          	add    $0x24,%r10
    2ee0:	49 39 ea             	cmp    %rbp,%r10
    2ee3:	75 a0                	jne    2e85 <hidden_triplets.0+0x1ba5>
    2ee5:	45 89 ea             	mov    %r13d,%r10d
    2ee8:	41 29 c2             	sub    %eax,%r10d
    2eeb:	b8 01 00 00 00       	mov    $0x1,%eax
    2ef0:	44 01 15 41 b1 02 00 	add    %r10d,0x2b141(%rip)        # 2e038 <__logic_MOD_naked3>
    2ef7:	eb 17                	jmp    2f10 <hidden_triplets.0+0x1c30>
    2ef9:	8b 5c 24 70          	mov    0x70(%rsp),%ebx
    2efd:	41 39 1b             	cmp    %ebx,(%r11)
    2f00:	75 07                	jne    2f09 <hidden_triplets.0+0x1c29>
    2f02:	41 c7 03 00 00 00 00 	movl   $0x0,(%r11)
    2f09:	48 83 c0 01          	add    $0x1,%rax
    2f0d:	4d 01 e3             	add    %r12,%r11
    2f10:	48 39 44 24 68       	cmp    %rax,0x68(%rsp)
    2f15:	7d e2                	jge    2ef9 <hidden_triplets.0+0x1c19>
    2f17:	4c 8b 54 24 60       	mov    0x60(%rsp),%r10
    2f1c:	31 c0                	xor    %eax,%eax
    2f1e:	48 8b 5c 24 58       	mov    0x58(%rsp),%rbx
    2f23:	44 8b 1c 83          	mov    (%rbx,%rax,4),%r11d
    2f27:	48 83 c0 01          	add    $0x1,%rax
    2f2b:	45 89 1a             	mov    %r11d,(%r10)
    2f2e:	4d 01 ca             	add    %r9,%r10
    2f31:	48 83 f8 09          	cmp    $0x9,%rax
    2f35:	75 e7                	jne    2f1e <hidden_triplets.0+0x1c3e>
    2f37:	4c 8b 54 24 18       	mov    0x18(%rsp),%r10
    2f3c:	31 c0                	xor    %eax,%eax
    2f3e:	48 8b 9c 24 10 01 00 	mov    0x110(%rsp),%rbx
    2f45:	00 
    2f46:	44 8b 1c 03          	mov    (%rbx,%rax,1),%r11d
    2f4a:	48 83 c0 04          	add    $0x4,%rax
    2f4e:	45 89 1a             	mov    %r11d,(%r10)
    2f51:	4d 01 ca             	add    %r9,%r10
    2f54:	48 83 f8 24          	cmp    $0x24,%rax
    2f58:	75 e4                	jne    2f3e <hidden_triplets.0+0x1c5e>
    2f5a:	31 c0                	xor    %eax,%eax
    2f5c:	48 8b 9c 24 18 01 00 	mov    0x118(%rsp),%rbx
    2f63:	00 
    2f64:	44 8b 14 03          	mov    (%rbx,%rax,1),%r10d
    2f68:	48 8b 9c 24 98 00 00 	mov    0x98(%rsp),%rbx
    2f6f:	00 
    2f70:	48 83 c0 04          	add    $0x4,%rax
    2f74:	44 89 13             	mov    %r10d,(%rbx)
    2f77:	4c 01 cb             	add    %r9,%rbx
    2f7a:	48 89 9c 24 98 00 00 	mov    %rbx,0x98(%rsp)
    2f81:	00 
    2f82:	48 83 f8 24          	cmp    $0x24,%rax
    2f86:	75 d4                	jne    2f5c <hidden_triplets.0+0x1c7c>
    2f88:	e9 33 f7 ff ff       	jmp    26c0 <hidden_triplets.0+0x13e0>
    2f8d:	0f 1f 00             	nopl   (%rax)
    2f90:	48 8b 6c 24 38       	mov    0x38(%rsp),%rbp
    2f95:	4d 89 f9             	mov    %r15,%r9
    2f98:	4c 89 e7             	mov    %r12,%rdi
    2f9b:	e9 e6 e7 ff ff       	jmp    1786 <hidden_triplets.0+0x4a6>
    2fa0:	48 8b 44 24 f0       	mov    -0x10(%rsp),%rax
    2fa5:	48 8b bc 24 a0 00 00 	mov    0xa0(%rsp),%rdi
    2fac:	00 
    2fad:	41 b8 01 00 00 00    	mov    $0x1,%r8d
    2fb3:	48 8d 8c 24 a8 01 00 	lea    0x1a8(%rsp),%rcx
    2fba:	00 
    2fbb:	48 89 4c 24 70       	mov    %rcx,0x70(%rsp)
    2fc0:	4d 8d 3c 02          	lea    (%r10,%rax,1),%r15
    2fc4:	48 c1 e0 02          	shl    $0x2,%rax
    2fc8:	48 8d 5c 07 04       	lea    0x4(%rdi,%rax,1),%rbx
    2fcd:	48 8b bc 24 b0 00 00 	mov    0xb0(%rsp),%rdi
    2fd4:	00 
    2fd5:	4d 89 fc             	mov    %r15,%r12
    2fd8:	4d 89 cf             	mov    %r9,%r15
    2fdb:	4c 8d 2c 38          	lea    (%rax,%rdi,1),%r13
    2fdf:	48 8b 7c 24 10       	mov    0x10(%rsp),%rdi
    2fe4:	48 8b 44 24 b8       	mov    -0x48(%rsp),%rax
    2fe9:	49 89 f9             	mov    %rdi,%r9
    2fec:	4c 89 d7             	mov    %r10,%rdi
    2fef:	4d 89 da             	mov    %r11,%r10
    2ff2:	4d 89 f3             	mov    %r14,%r11
    2ff5:	45 89 c6             	mov    %r8d,%r14d
    2ff8:	49 89 f8             	mov    %rdi,%r8
    2ffb:	eb 25                	jmp    3022 <hidden_triplets.0+0x1d42>
    2ffd:	0f 1f 00             	nopl   (%rax)
    3000:	4c 01 d8             	add    %r11,%rax
    3003:	4a 8d 2c 13          	lea    (%rbx,%r10,1),%rbp
    3007:	4b 8d 7c 15 00       	lea    0x0(%r13,%r10,1),%rdi
    300c:	4d 29 c1             	sub    %r8,%r9
    300f:	4d 01 c4             	add    %r8,%r12
    3012:	48 89 eb             	mov    %rbp,%rbx
    3015:	49 89 fd             	mov    %rdi,%r13
    3018:	41 83 fe 08          	cmp    $0x8,%r14d
    301c:	0f 84 46 0b 00 00    	je     3b68 <hidden_triplets.0+0x2888>
    3022:	8b 10                	mov    (%rax),%edx
    3024:	41 83 c6 01          	add    $0x1,%r14d
    3028:	85 d2                	test   %edx,%edx
    302a:	75 d4                	jne    3000 <hidden_triplets.0+0x1d20>
    302c:	4d 85 ff             	test   %r15,%r15
    302f:	7e cf                	jle    3000 <hidden_triplets.0+0x1d20>
    3031:	48 83 7c 24 a0 01    	cmpq   $0x1,-0x60(%rsp)
    3037:	0f 85 0a 0e 00 00    	jne    3e47 <hidden_triplets.0+0x2b67>
    303d:	48 83 7c 24 c8 02    	cmpq   $0x2,-0x38(%rsp)
    3043:	0f 86 9f 0f 00 00    	jbe    3fe8 <hidden_triplets.0+0x2d08>
    3049:	48 8b 7c 24 d8       	mov    -0x28(%rsp),%rdi
    304e:	31 c9                	xor    %ecx,%ecx
    3050:	66 0f ef d2          	pxor   %xmm2,%xmm2
    3054:	0f 1f 40 00          	nopl   0x0(%rax)
    3058:	48 89 ce             	mov    %rcx,%rsi
    305b:	48 83 c1 01          	add    $0x1,%rcx
    305f:	48 c1 e6 04          	shl    $0x4,%rsi
    3063:	f3 0f 6f 04 33       	movdqu (%rbx,%rsi,1),%xmm0
    3068:	66 0f 76 c1          	pcmpeqd %xmm1,%xmm0
    306c:	66 0f 76 c1          	pcmpeqd %xmm1,%xmm0
    3070:	66 0f fa d0          	psubd  %xmm0,%xmm2
    3074:	48 39 cf             	cmp    %rcx,%rdi
    3077:	75 df                	jne    3058 <hidden_triplets.0+0x1d78>
    3079:	66 0f 6f c2          	movdqa %xmm2,%xmm0
    307d:	66 0f 73 d8 08       	psrldq $0x8,%xmm0
    3082:	66 0f fe d0          	paddd  %xmm0,%xmm2
    3086:	66 0f 6f c2          	movdqa %xmm2,%xmm0
    308a:	66 0f 73 d8 04       	psrldq $0x4,%xmm0
    308f:	66 0f fe d0          	paddd  %xmm0,%xmm2
    3093:	66 0f 7e d1          	movd   %xmm2,%ecx
    3097:	4c 3b 7c 24 c0       	cmp    -0x40(%rsp),%r15
    309c:	0f 84 97 0d 00 00    	je     3e39 <hidden_triplets.0+0x2b59>
    30a2:	48 8b 74 24 e8       	mov    -0x18(%rsp),%rsi
    30a7:	48 8b 6c 24 b0       	mov    -0x50(%rsp),%rbp
    30ac:	49 8d 3c 34          	lea    (%r12,%rsi,1),%rdi
    30b0:	83 7c bd 00 01       	cmpl   $0x1,0x0(%rbp,%rdi,4)
    30b5:	48 8d 7e 01          	lea    0x1(%rsi),%rdi
    30b9:	83 d9 ff             	sbb    $0xffffffff,%ecx
    30bc:	49 39 ff             	cmp    %rdi,%r15
    30bf:	7c 1f                	jl     30e0 <hidden_triplets.0+0x1e00>
    30c1:	4c 01 e7             	add    %r12,%rdi
    30c4:	83 7c bd 00 01       	cmpl   $0x1,0x0(%rbp,%rdi,4)
    30c9:	83 d9 ff             	sbb    $0xffffffff,%ecx
    30cc:	48 83 c6 02          	add    $0x2,%rsi
    30d0:	49 39 f7             	cmp    %rsi,%r15
    30d3:	7c 0b                	jl     30e0 <hidden_triplets.0+0x1e00>
    30d5:	4c 01 e6             	add    %r12,%rsi
    30d8:	83 7c b5 00 01       	cmpl   $0x1,0x0(%rbp,%rsi,4)
    30dd:	83 d9 ff             	sbb    $0xffffffff,%ecx
    30e0:	83 f9 01             	cmp    $0x1,%ecx
    30e3:	0f 8e 17 ff ff ff    	jle    3000 <hidden_triplets.0+0x1d20>
    30e9:	48 83 7c 24 c8 02    	cmpq   $0x2,-0x38(%rsp)
    30ef:	0f 86 b5 13 00 00    	jbe    44aa <hidden_triplets.0+0x31ca>
    30f5:	48 8b 74 24 d8       	mov    -0x28(%rsp),%rsi
    30fa:	31 d2                	xor    %edx,%edx
    30fc:	66 0f ef d2          	pxor   %xmm2,%xmm2
    3100:	48 89 d1             	mov    %rdx,%rcx
    3103:	48 83 c2 01          	add    $0x1,%rdx
    3107:	48 c1 e1 04          	shl    $0x4,%rcx
    310b:	f3 0f 6f 04 0b       	movdqu (%rbx,%rcx,1),%xmm0
    3110:	66 0f 76 c1          	pcmpeqd %xmm1,%xmm0
    3114:	66 0f 76 c1          	pcmpeqd %xmm1,%xmm0
    3118:	66 0f fa d0          	psubd  %xmm0,%xmm2
    311c:	48 39 f2             	cmp    %rsi,%rdx
    311f:	75 df                	jne    3100 <hidden_triplets.0+0x1e20>
    3121:	66 0f 6f c2          	movdqa %xmm2,%xmm0
    3125:	66 0f 73 d8 08       	psrldq $0x8,%xmm0
    312a:	66 0f fe d0          	paddd  %xmm0,%xmm2
    312e:	66 0f 6f c2          	movdqa %xmm2,%xmm0
    3132:	66 0f 73 d8 04       	psrldq $0x4,%xmm0
    3137:	66 0f fe d0          	paddd  %xmm0,%xmm2
    313b:	66 0f 7e d2          	movd   %xmm2,%edx
    313f:	4c 3b 7c 24 c0       	cmp    -0x40(%rsp),%r15
    3144:	74 3b                	je     3181 <hidden_triplets.0+0x1ea1>
    3146:	48 8b 4c 24 e8       	mov    -0x18(%rsp),%rcx
    314b:	48 8b 7c 24 b0       	mov    -0x50(%rsp),%rdi
    3150:	49 8d 34 0c          	lea    (%r12,%rcx,1),%rsi
    3154:	83 3c b7 01          	cmpl   $0x1,(%rdi,%rsi,4)
    3158:	48 8d 71 01          	lea    0x1(%rcx),%rsi
    315c:	83 da ff             	sbb    $0xffffffff,%edx
    315f:	49 39 f7             	cmp    %rsi,%r15
    3162:	7c 1d                	jl     3181 <hidden_triplets.0+0x1ea1>
    3164:	4c 01 e6             	add    %r12,%rsi
    3167:	83 3c b7 01          	cmpl   $0x1,(%rdi,%rsi,4)
    316b:	83 da ff             	sbb    $0xffffffff,%edx
    316e:	48 83 c1 02          	add    $0x2,%rcx
    3172:	49 39 cf             	cmp    %rcx,%r15
    3175:	7c 0a                	jl     3181 <hidden_triplets.0+0x1ea1>
    3177:	4c 01 e1             	add    %r12,%rcx
    317a:	83 3c 8f 01          	cmpl   $0x1,(%rdi,%rcx,4)
    317e:	83 da ff             	sbb    $0xffffffff,%edx
    3181:	83 fa 03             	cmp    $0x3,%edx
    3184:	0f 8f 76 fe ff ff    	jg     3000 <hidden_triplets.0+0x1d20>
    318a:	4b 8d 3c 2a          	lea    (%r10,%r13,1),%rdi
    318e:	4c 01 d8             	add    %r11,%rax
    3191:	4a 8d 2c 13          	lea    (%rbx,%r10,1),%rbp
    3195:	4c 89 6c 24 60       	mov    %r13,0x60(%rsp)
    319a:	48 89 7c 24 30       	mov    %rdi,0x30(%rsp)
    319f:	49 89 c5             	mov    %rax,%r13
    31a2:	4c 89 c6             	mov    %r8,%rsi
    31a5:	44 89 f2             	mov    %r14d,%edx
    31a8:	48 8d 8c 24 cc 01 00 	lea    0x1cc(%rsp),%rcx
    31af:	00 
    31b0:	48 89 bc 24 58 01 00 	mov    %rdi,0x158(%rsp)
    31b7:	00 
    31b8:	48 8b 3c 24          	mov    (%rsp),%rdi
    31bc:	48 89 8c 24 08 01 00 	mov    %rcx,0x108(%rsp)
    31c3:	00 
    31c4:	4b 8d 0c 01          	lea    (%r9,%r8,1),%rcx
    31c8:	48 89 8c 24 30 01 00 	mov    %rcx,0x130(%rsp)
    31cf:	00 
    31d0:	48 89 e9             	mov    %rbp,%rcx
    31d3:	48 89 84 24 60 01 00 	mov    %rax,0x160(%rsp)
    31da:	00 
    31db:	48 8b 44 24 b0       	mov    -0x50(%rsp),%rax
    31e0:	4c 89 4c 24 58       	mov    %r9,0x58(%rsp)
    31e5:	44 89 b4 24 38 01 00 	mov    %r14d,0x138(%rsp)
    31ec:	00 
    31ed:	4c 89 8c 24 48 01 00 	mov    %r9,0x148(%rsp)
    31f4:	00 
    31f5:	4c 89 64 24 78       	mov    %r12,0x78(%rsp)
    31fa:	48 89 9c 24 10 01 00 	mov    %rbx,0x110(%rsp)
    3201:	00 
    3202:	4c 89 5c 24 48       	mov    %r11,0x48(%rsp)
    3207:	48 89 ac 24 50 01 00 	mov    %rbp,0x150(%rsp)
    320e:	00 
    320f:	eb 25                	jmp    3236 <hidden_triplets.0+0x1f56>
    3211:	0f 1f 80 00 00 00 00 	nopl   0x0(%rax)
    3218:	4c 01 54 24 30       	add    %r10,0x30(%rsp)
    321d:	4c 03 6c 24 48       	add    0x48(%rsp),%r13
    3222:	4c 01 d1             	add    %r10,%rcx
    3225:	4c 01 c6             	add    %r8,%rsi
    3228:	4c 29 44 24 58       	sub    %r8,0x58(%rsp)
    322d:	83 fa 09             	cmp    $0x9,%edx
    3230:	0f 84 7b 0d 00 00    	je     3fb1 <hidden_triplets.0+0x2cd1>
    3236:	45 8b 4d 00          	mov    0x0(%r13),%r9d
    323a:	83 c2 01             	add    $0x1,%edx
    323d:	45 85 c9             	test   %r9d,%r9d
    3240:	75 d6                	jne    3218 <hidden_triplets.0+0x1f38>
    3242:	48 8b 5c 24 78       	mov    0x78(%rsp),%rbx
    3247:	48 01 f3             	add    %rsi,%rbx
    324a:	48 83 7c 24 a0 01    	cmpq   $0x1,-0x60(%rsp)
    3250:	48 89 9c 24 98 00 00 	mov    %rbx,0x98(%rsp)
    3257:	00 
    3258:	0f 85 24 10 00 00    	jne    4282 <hidden_triplets.0+0x2fa2>
    325e:	48 83 7c 24 c8 02    	cmpq   $0x2,-0x38(%rsp)
    3264:	0f 86 4a 12 00 00    	jbe    44b4 <hidden_triplets.0+0x31d4>
    326a:	48 8b 6c 24 d8       	mov    -0x28(%rsp),%rbp
    326f:	45 31 db             	xor    %r11d,%r11d
    3272:	66 0f ef d2          	pxor   %xmm2,%xmm2
    3276:	4c 89 db             	mov    %r11,%rbx
    3279:	49 83 c3 01          	add    $0x1,%r11
    327d:	48 c1 e3 04          	shl    $0x4,%rbx
    3281:	f3 0f 6f 04 19       	movdqu (%rcx,%rbx,1),%xmm0
    3286:	66 0f 76 c1          	pcmpeqd %xmm1,%xmm0
    328a:	66 0f 76 c1          	pcmpeqd %xmm1,%xmm0
    328e:	66 0f fa d0          	psubd  %xmm0,%xmm2
    3292:	49 39 eb             	cmp    %rbp,%r11
    3295:	75 df                	jne    3276 <hidden_triplets.0+0x1f96>
    3297:	66 0f 6f c2          	movdqa %xmm2,%xmm0
    329b:	66 0f 73 d8 08       	psrldq $0x8,%xmm0
    32a0:	66 0f fe d0          	paddd  %xmm0,%xmm2
    32a4:	66 0f 6f c2          	movdqa %xmm2,%xmm0
    32a8:	66 0f 73 d8 04       	psrldq $0x4,%xmm0
    32ad:	66 0f fe d0          	paddd  %xmm0,%xmm2
    32b1:	66 0f 7e d5          	movd   %xmm2,%ebp
    32b5:	4c 3b 7c 24 c0       	cmp    -0x40(%rsp),%r15
    32ba:	74 3f                	je     32fb <hidden_triplets.0+0x201b>
    32bc:	4c 8b 5c 24 e8       	mov    -0x18(%rsp),%r11
    32c1:	4c 8b b4 24 98 00 00 	mov    0x98(%rsp),%r14
    32c8:	00 
    32c9:	4b 8d 1c 33          	lea    (%r11,%r14,1),%rbx
    32cd:	83 3c 98 01          	cmpl   $0x1,(%rax,%rbx,4)
    32d1:	49 8d 5b 01          	lea    0x1(%r11),%rbx
    32d5:	83 dd ff             	sbb    $0xffffffff,%ebp
    32d8:	49 39 df             	cmp    %rbx,%r15
    32db:	7c 1e                	jl     32fb <hidden_triplets.0+0x201b>
    32dd:	4c 01 f3             	add    %r14,%rbx
    32e0:	83 3c 98 01          	cmpl   $0x1,(%rax,%rbx,4)
    32e4:	83 dd ff             	sbb    $0xffffffff,%ebp
    32e7:	49 83 c3 02          	add    $0x2,%r11
    32eb:	4d 39 df             	cmp    %r11,%r15
    32ee:	7c 0b                	jl     32fb <hidden_triplets.0+0x201b>
    32f0:	4d 01 f3             	add    %r14,%r11
    32f3:	42 83 3c 98 01       	cmpl   $0x1,(%rax,%r11,4)
    32f8:	83 dd ff             	sbb    $0xffffffff,%ebp
    32fb:	83 fd 01             	cmp    $0x1,%ebp
    32fe:	0f 8e 14 ff ff ff    	jle    3218 <hidden_triplets.0+0x1f38>
    3304:	4c 8b b4 24 10 01 00 	mov    0x110(%rsp),%r14
    330b:	00 
    330c:	48 8d 59 fc          	lea    -0x4(%rcx),%rbx
    3310:	41 bb 01 00 00 00    	mov    $0x1,%r11d
    3316:	48 89 9c 24 20 01 00 	mov    %rbx,0x120(%rsp)
    331d:	00 
    331e:	49 8d 6e fc          	lea    -0x4(%r14),%rbp
    3322:	48 89 ac 24 28 01 00 	mov    %rbp,0x128(%rsp)
    3329:	00 
    332a:	eb 0d                	jmp    3339 <hidden_triplets.0+0x2059>
    332c:	49 83 c3 01          	add    $0x1,%r11
    3330:	4d 39 df             	cmp    %r11,%r15
    3333:	0f 8c df fe ff ff    	jl     3218 <hidden_triplets.0+0x1f38>
    3339:	46 8b 74 9d 00       	mov    0x0(%rbp,%r11,4),%r14d
    333e:	46 39 34 9b          	cmp    %r14d,(%rbx,%r11,4)
    3342:	74 e8                	je     332c <hidden_triplets.0+0x204c>
    3344:	48 83 7c 24 c8 02    	cmpq   $0x2,-0x38(%rsp)
    334a:	0f 86 dc 12 00 00    	jbe    462c <hidden_triplets.0+0x334c>
    3350:	31 db                	xor    %ebx,%ebx
    3352:	66 0f ef c0          	pxor   %xmm0,%xmm0
    3356:	49 89 db             	mov    %rbx,%r11
    3359:	48 83 c3 01          	add    $0x1,%rbx
    335d:	49 c1 e3 04          	shl    $0x4,%r11
    3361:	f3 42 0f 6f 14 19    	movdqu (%rcx,%r11,1),%xmm2
    3367:	66 0f 76 d1          	pcmpeqd %xmm1,%xmm2
    336b:	66 0f 76 d1          	pcmpeqd %xmm1,%xmm2
    336f:	66 0f fa c2          	psubd  %xmm2,%xmm0
    3373:	48 3b 5c 24 d8       	cmp    -0x28(%rsp),%rbx
    3378:	75 dc                	jne    3356 <hidden_triplets.0+0x2076>
    337a:	66 0f 6f d0          	movdqa %xmm0,%xmm2
    337e:	66 0f 73 da 08       	psrldq $0x8,%xmm2
    3383:	66 0f fe c2          	paddd  %xmm2,%xmm0
    3387:	66 0f 6f d0          	movdqa %xmm0,%xmm2
    338b:	66 0f 73 da 04       	psrldq $0x4,%xmm2
    3390:	66 0f fe c2          	paddd  %xmm2,%xmm0
    3394:	66 0f 7e c5          	movd   %xmm0,%ebp
    3398:	4c 3b 7c 24 c0       	cmp    -0x40(%rsp),%r15
    339d:	74 3f                	je     33de <hidden_triplets.0+0x20fe>
    339f:	4c 8b 5c 24 e8       	mov    -0x18(%rsp),%r11
    33a4:	4c 8b b4 24 98 00 00 	mov    0x98(%rsp),%r14
    33ab:	00 
    33ac:	4b 8d 1c 33          	lea    (%r11,%r14,1),%rbx
    33b0:	83 3c 98 01          	cmpl   $0x1,(%rax,%rbx,4)
    33b4:	49 8d 5b 01          	lea    0x1(%r11),%rbx
    33b8:	83 dd ff             	sbb    $0xffffffff,%ebp
    33bb:	49 39 df             	cmp    %rbx,%r15
    33be:	7c 1e                	jl     33de <hidden_triplets.0+0x20fe>
    33c0:	4c 01 f3             	add    %r14,%rbx
    33c3:	83 3c 98 01          	cmpl   $0x1,(%rax,%rbx,4)
    33c7:	83 dd ff             	sbb    $0xffffffff,%ebp
    33ca:	49 83 c3 02          	add    $0x2,%r11
    33ce:	4d 39 df             	cmp    %r11,%r15
    33d1:	7c 0b                	jl     33de <hidden_triplets.0+0x20fe>
    33d3:	4d 01 f3             	add    %r14,%r11
    33d6:	42 83 3c 98 01       	cmpl   $0x1,(%rax,%r11,4)
    33db:	83 dd ff             	sbb    $0xffffffff,%ebp
    33de:	83 fd 03             	cmp    $0x3,%ebp
    33e1:	0f 8f 31 fe ff ff    	jg     3218 <hidden_triplets.0+0x1f38>
    33e7:	48 8b 5c 24 98       	mov    -0x68(%rsp),%rbx
    33ec:	4c 63 da             	movslq %edx,%r11
    33ef:	4c 8b 74 24 f8       	mov    -0x8(%rsp),%r14
    33f4:	45 89 cc             	mov    %r9d,%r12d
    33f7:	89 94 24 c0 00 00 00 	mov    %edx,0xc0(%rsp)
    33fe:	49 0f af db          	imul   %r11,%rbx
    3402:	48 03 5c 24 08       	add    0x8(%rsp),%rbx
    3407:	89 94 24 18 01 00 00 	mov    %edx,0x118(%rsp)
    340e:	4d 0f af d8          	imul   %r8,%r11
    3412:	49 8d 1c 9e          	lea    (%r14,%rbx,4),%rbx
    3416:	48 89 9c 24 f8 00 00 	mov    %rbx,0xf8(%rsp)
    341d:	00 
    341e:	48 8b 5c 24 f0       	mov    -0x10(%rsp),%rbx
    3423:	4d 8d 34 1b          	lea    (%r11,%rbx,1),%r14
    3427:	4d 8d 5c 1b 01       	lea    0x1(%r11,%rbx,1),%r11
    342c:	4a 8d 1c 98          	lea    (%rax,%r11,4),%rbx
    3430:	48 89 da             	mov    %rbx,%rdx
    3433:	eb 2e                	jmp    3463 <hidden_triplets.0+0x2183>
    3435:	0f 1f 00             	nopl   (%rax)
    3438:	83 84 24 c0 00 00 00 	addl   $0x1,0xc0(%rsp)
    343f:	01 
    3440:	8b 9c 24 c0 00 00 00 	mov    0xc0(%rsp),%ebx
    3447:	4d 01 c6             	add    %r8,%r14
    344a:	4c 01 d2             	add    %r10,%rdx
    344d:	4c 8b 5c 24 48       	mov    0x48(%rsp),%r11
    3452:	4c 01 9c 24 f8 00 00 	add    %r11,0xf8(%rsp)
    3459:	00 
    345a:	83 fb 0a             	cmp    $0xa,%ebx
    345d:	0f 84 d6 11 00 00    	je     4639 <hidden_triplets.0+0x3359>
    3463:	48 8b 9c 24 f8 00 00 	mov    0xf8(%rsp),%rbx
    346a:	00 
    346b:	44 8b 1b             	mov    (%rbx),%r11d
    346e:	45 85 db             	test   %r11d,%r11d
    3471:	75 c5                	jne    3438 <hidden_triplets.0+0x2158>
    3473:	4c 89 b4 24 b8 00 00 	mov    %r14,0xb8(%rsp)
    347a:	00 
    347b:	49 83 ff 03          	cmp    $0x3,%r15
    347f:	0f 8e 79 10 00 00    	jle    44fe <hidden_triplets.0+0x321e>
    3485:	45 31 c9             	xor    %r9d,%r9d
    3488:	66 0f ef c0          	pxor   %xmm0,%xmm0
    348c:	4c 89 cb             	mov    %r9,%rbx
    348f:	49 83 c1 01          	add    $0x1,%r9
    3493:	48 c1 e3 04          	shl    $0x4,%rbx
    3497:	f3 0f 6f 14 1a       	movdqu (%rdx,%rbx,1),%xmm2
    349c:	66 0f 76 d1          	pcmpeqd %xmm1,%xmm2
    34a0:	66 0f 76 d1          	pcmpeqd %xmm1,%xmm2
    34a4:	66 0f fa c2          	psubd  %xmm2,%xmm0
    34a8:	4c 39 8c 24 d0 00 00 	cmp    %r9,0xd0(%rsp)
    34af:	00 
    34b0:	75 da                	jne    348c <hidden_triplets.0+0x21ac>
    34b2:	66 0f 6f d0          	movdqa %xmm0,%xmm2
    34b6:	48 8b ac 24 d8 00 00 	mov    0xd8(%rsp),%rbp
    34bd:	00 
    34be:	66 0f 73 da 08       	psrldq $0x8,%xmm2
    34c3:	66 0f fe c2          	paddd  %xmm2,%xmm0
    34c7:	66 0f 6f d0          	movdqa %xmm0,%xmm2
    34cb:	66 0f 73 da 04       	psrldq $0x4,%xmm2
    34d0:	66 0f fe c2          	paddd  %xmm2,%xmm0
    34d4:	66 41 0f 7e c1       	movd   %xmm0,%r9d
    34d9:	48 39 ac 24 c8 00 00 	cmp    %rbp,0xc8(%rsp)
    34e0:	00 
    34e1:	74 3c                	je     351f <hidden_triplets.0+0x223f>
    34e3:	48 8b 9c 24 e0 00 00 	mov    0xe0(%rsp),%rbx
    34ea:	00 
    34eb:	49 8d 2c 1e          	lea    (%r14,%rbx,1),%rbp
    34ef:	83 3c a8 01          	cmpl   $0x1,(%rax,%rbp,4)
    34f3:	48 8d 6b 01          	lea    0x1(%rbx),%rbp
    34f7:	41 83 d9 ff          	sbb    $0xffffffff,%r9d
    34fb:	49 39 ef             	cmp    %rbp,%r15
    34fe:	7c 1f                	jl     351f <hidden_triplets.0+0x223f>
    3500:	4c 01 f5             	add    %r14,%rbp
    3503:	83 3c a8 01          	cmpl   $0x1,(%rax,%rbp,4)
    3507:	41 83 d9 ff          	sbb    $0xffffffff,%r9d
    350b:	48 83 c3 02          	add    $0x2,%rbx
    350f:	49 39 df             	cmp    %rbx,%r15
    3512:	7c 0b                	jl     351f <hidden_triplets.0+0x223f>
    3514:	4c 01 f3             	add    %r14,%rbx
    3517:	83 3c 98 01          	cmpl   $0x1,(%rax,%rbx,4)
    351b:	41 83 d9 ff          	sbb    $0xffffffff,%r9d
    351f:	41 83 f9 01          	cmp    $0x1,%r9d
    3523:	0f 8e 0f ff ff ff    	jle    3438 <hidden_triplets.0+0x2158>
    3529:	41 b9 01 00 00 00    	mov    $0x1,%r9d
    352f:	48 8d 5a fc          	lea    -0x4(%rdx),%rbx
    3533:	eb 0d                	jmp    3542 <hidden_triplets.0+0x2262>
    3535:	49 83 c1 01          	add    $0x1,%r9
    3539:	4d 39 cf             	cmp    %r9,%r15
    353c:	0f 8c f6 fe ff ff    	jl     3438 <hidden_triplets.0+0x2158>
    3542:	48 8b ac 24 28 01 00 	mov    0x128(%rsp),%rbp
    3549:	00 
    354a:	42 8b 6c 8d 00       	mov    0x0(%rbp,%r9,4),%ebp
    354f:	42 39 2c 8b          	cmp    %ebp,(%rbx,%r9,4)
    3553:	74 e0                	je     3535 <hidden_triplets.0+0x2255>
    3555:	41 b9 01 00 00 00    	mov    $0x1,%r9d
    355b:	eb 0d                	jmp    356a <hidden_triplets.0+0x228a>
    355d:	49 83 c1 01          	add    $0x1,%r9
    3561:	4d 39 cf             	cmp    %r9,%r15
    3564:	0f 8c ce fe ff ff    	jl     3438 <hidden_triplets.0+0x2158>
    356a:	48 8b ac 24 20 01 00 	mov    0x120(%rsp),%rbp
    3571:	00 
    3572:	42 8b 6c 8d 00       	mov    0x0(%rbp,%r9,4),%ebp
    3577:	42 39 2c 8b          	cmp    %ebp,(%rbx,%r9,4)
    357b:	74 e0                	je     355d <hidden_triplets.0+0x227d>
    357d:	49 83 ff 03          	cmp    $0x3,%r15
    3581:	0f 8e a9 14 00 00    	jle    4a30 <hidden_triplets.0+0x3750>
    3587:	45 31 c9             	xor    %r9d,%r9d
    358a:	66 0f ef c0          	pxor   %xmm0,%xmm0
    358e:	4c 89 cb             	mov    %r9,%rbx
    3591:	49 83 c1 01          	add    $0x1,%r9
    3595:	48 c1 e3 04          	shl    $0x4,%rbx
    3599:	f3 0f 6f 14 1a       	movdqu (%rdx,%rbx,1),%xmm2
    359e:	66 0f 76 d1          	pcmpeqd %xmm1,%xmm2
    35a2:	66 0f 76 d1          	pcmpeqd %xmm1,%xmm2
    35a6:	66 0f fa c2          	psubd  %xmm2,%xmm0
    35aa:	4c 3b 8c 24 d0 00 00 	cmp    0xd0(%rsp),%r9
    35b1:	00 
    35b2:	75 da                	jne    358e <hidden_triplets.0+0x22ae>
    35b4:	66 0f 6f d0          	movdqa %xmm0,%xmm2
    35b8:	48 8b ac 24 d8 00 00 	mov    0xd8(%rsp),%rbp
    35bf:	00 
    35c0:	66 0f 73 da 08       	psrldq $0x8,%xmm2
    35c5:	66 0f fe c2          	paddd  %xmm2,%xmm0
    35c9:	66 0f 6f d0          	movdqa %xmm0,%xmm2
    35cd:	66 0f 73 da 04       	psrldq $0x4,%xmm2
    35d2:	66 0f fe c2          	paddd  %xmm2,%xmm0
    35d6:	66 41 0f 7e c1       	movd   %xmm0,%r9d
    35db:	48 39 ac 24 c8 00 00 	cmp    %rbp,0xc8(%rsp)
    35e2:	00 
    35e3:	0f 84 27 14 00 00    	je     4a10 <hidden_triplets.0+0x3730>
    35e9:	48 8b 9c 24 e0 00 00 	mov    0xe0(%rsp),%rbx
    35f0:	00 
    35f1:	49 8d 2c 1e          	lea    (%r14,%rbx,1),%rbp
    35f5:	83 3c a8 01          	cmpl   $0x1,(%rax,%rbp,4)
    35f9:	48 8d 6b 01          	lea    0x1(%rbx),%rbp
    35fd:	41 83 d9 ff          	sbb    $0xffffffff,%r9d
    3601:	49 39 ef             	cmp    %rbp,%r15
    3604:	7c 1f                	jl     3625 <hidden_triplets.0+0x2345>
    3606:	4c 01 f5             	add    %r14,%rbp
    3609:	83 3c a8 01          	cmpl   $0x1,(%rax,%rbp,4)
    360d:	41 83 d9 ff          	sbb    $0xffffffff,%r9d
    3611:	48 83 c3 02          	add    $0x2,%rbx
    3615:	49 39 df             	cmp    %rbx,%r15
    3618:	7c 0b                	jl     3625 <hidden_triplets.0+0x2345>
    361a:	4c 01 f3             	add    %r14,%rbx
    361d:	83 3c 98 01          	cmpl   $0x1,(%rax,%rbx,4)
    3621:	41 83 d9 ff          	sbb    $0xffffffff,%r9d
    3625:	41 83 f9 03          	cmp    $0x3,%r9d
    3629:	0f 8f 09 fe ff ff    	jg     3438 <hidden_triplets.0+0x2158>
    362f:	49 83 ff 03          	cmp    $0x3,%r15
    3633:	0f 8e e6 13 00 00    	jle    4a1f <hidden_triplets.0+0x373f>
    3639:	48 8b 9c 24 10 01 00 	mov    0x110(%rsp),%rbx
    3640:	00 
    3641:	45 31 c9             	xor    %r9d,%r9d
    3644:	45 31 db             	xor    %r11d,%r11d
    3647:	66 0f ef c0          	pxor   %xmm0,%xmm0
    364b:	f3 42 0f 6f 14 0b    	movdqu (%rbx,%r9,1),%xmm2
    3651:	f3 42 0f 6f 1c 09    	movdqu (%rcx,%r9,1),%xmm3
    3657:	49 83 c3 01          	add    $0x1,%r11
    365b:	f3 42 0f 6f 24 0a    	movdqu (%rdx,%r9,1),%xmm4
    3661:	49 83 c1 10          	add    $0x10,%r9
    3665:	66 0f fe d3          	paddd  %xmm3,%xmm2
    3669:	66 0f fe d4          	paddd  %xmm4,%xmm2
    366d:	66 0f 76 d1          	pcmpeqd %xmm1,%xmm2
    3671:	66 0f 76 d1          	pcmpeqd %xmm1,%xmm2
    3675:	66 0f fa c2          	psubd  %xmm2,%xmm0
    3679:	4c 3b 9c 24 d0 00 00 	cmp    0xd0(%rsp),%r11
    3680:	00 
    3681:	75 c8                	jne    364b <hidden_triplets.0+0x236b>
    3683:	66 0f 6f d0          	movdqa %xmm0,%xmm2
    3687:	4c 8b 8c 24 d8 00 00 	mov    0xd8(%rsp),%r9
    368e:	00 
    368f:	66 0f 73 da 08       	psrldq $0x8,%xmm2
    3694:	66 0f fe c2          	paddd  %xmm2,%xmm0
    3698:	66 0f 6f d0          	movdqa %xmm0,%xmm2
    369c:	66 0f 73 da 04       	psrldq $0x4,%xmm2
    36a1:	66 0f fe c2          	paddd  %xmm2,%xmm0
    36a5:	66 41 0f 7e c3       	movd   %xmm0,%r11d
    36aa:	4c 39 8c 24 c8 00 00 	cmp    %r9,0xc8(%rsp)
    36b1:	00 
    36b2:	0f 84 c0 00 00 00    	je     3778 <hidden_triplets.0+0x2498>
    36b8:	48 8b 9c 24 e0 00 00 	mov    0xe0(%rsp),%rbx
    36bf:	00 
    36c0:	48 89 9c 24 90 00 00 	mov    %rbx,0x90(%rsp)
    36c7:	00 
    36c8:	48 8b 9c 24 98 00 00 	mov    0x98(%rsp),%rbx
    36cf:	00 
    36d0:	4c 8b 8c 24 90 00 00 	mov    0x90(%rsp),%r9
    36d7:	00 
    36d8:	49 8d 2c 19          	lea    (%r9,%rbx,1),%rbp
    36dc:	4c 8b 4c 24 78       	mov    0x78(%rsp),%r9
    36e1:	48 8b 9c 24 90 00 00 	mov    0x90(%rsp),%rbx
    36e8:	00 
    36e9:	4c 01 cb             	add    %r9,%rbx
    36ec:	8b 1c 98             	mov    (%rax,%rbx,4),%ebx
    36ef:	03 1c a8             	add    (%rax,%rbp,4),%ebx
    36f2:	48 8b ac 24 90 00 00 	mov    0x90(%rsp),%rbp
    36f9:	00 
    36fa:	4c 01 f5             	add    %r14,%rbp
    36fd:	03 1c a8             	add    (%rax,%rbp,4),%ebx
    3700:	83 fb 01             	cmp    $0x1,%ebx
    3703:	48 8b 9c 24 90 00 00 	mov    0x90(%rsp),%rbx
    370a:	00 
    370b:	41 83 db ff          	sbb    $0xffffffff,%r11d
    370f:	48 83 c3 01          	add    $0x1,%rbx
    3713:	49 39 df             	cmp    %rbx,%r15
    3716:	7c 60                	jl     3778 <hidden_triplets.0+0x2498>
    3718:	4c 89 cd             	mov    %r9,%rbp
    371b:	48 01 dd             	add    %rbx,%rbp
    371e:	49 89 e9             	mov    %rbp,%r9
    3721:	48 8b ac 24 98 00 00 	mov    0x98(%rsp),%rbp
    3728:	00 
    3729:	48 01 dd             	add    %rbx,%rbp
    372c:	4c 01 f3             	add    %r14,%rbx
    372f:	8b 2c a8             	mov    (%rax,%rbp,4),%ebp
    3732:	42 03 2c 88          	add    (%rax,%r9,4),%ebp
    3736:	4c 8b 8c 24 90 00 00 	mov    0x90(%rsp),%r9
    373d:	00 
    373e:	03 2c 98             	add    (%rax,%rbx,4),%ebp
    3741:	83 fd 01             	cmp    $0x1,%ebp
    3744:	41 83 db ff          	sbb    $0xffffffff,%r11d
    3748:	49 83 c1 02          	add    $0x2,%r9
    374c:	4d 39 cf             	cmp    %r9,%r15
    374f:	7c 27                	jl     3778 <hidden_triplets.0+0x2498>
    3751:	48 8b 6c 24 78       	mov    0x78(%rsp),%rbp
    3756:	48 8b 9c 24 98 00 00 	mov    0x98(%rsp),%rbx
    375d:	00 
    375e:	4c 01 cd             	add    %r9,%rbp
    3761:	4c 01 cb             	add    %r9,%rbx
    3764:	4d 01 f1             	add    %r14,%r9
    3767:	8b 1c 98             	mov    (%rax,%rbx,4),%ebx
    376a:	03 1c a8             	add    (%rax,%rbp,4),%ebx
    376d:	42 03 1c 88          	add    (%rax,%r9,4),%ebx
    3771:	83 fb 01             	cmp    $0x1,%ebx
    3774:	41 83 db ff          	sbb    $0xffffffff,%r11d
    3778:	41 83 fb 03          	cmp    $0x3,%r11d
    377c:	0f 85 b6 fc ff ff    	jne    3438 <hidden_triplets.0+0x2158>
    3782:	8b 94 24 18 01 00 00 	mov    0x118(%rsp),%edx
    3789:	45 89 e1             	mov    %r12d,%r9d
    378c:	48 8b 5c 24 60       	mov    0x60(%rsp),%rbx
    3791:	45 31 db             	xor    %r11d,%r11d
    3794:	8b 2b                	mov    (%rbx),%ebp
    3796:	4c 8b 74 24 70       	mov    0x70(%rsp),%r14
    379b:	48 01 fb             	add    %rdi,%rbx
    379e:	43 89 2c 9e          	mov    %ebp,(%r14,%r11,4)
    37a2:	49 83 c3 01          	add    $0x1,%r11
    37a6:	49 83 fb 09          	cmp    $0x9,%r11
    37aa:	75 e8                	jne    3794 <hidden_triplets.0+0x24b4>
    37ac:	48 8b 5c 24 30       	mov    0x30(%rsp),%rbx
    37b1:	45 31 db             	xor    %r11d,%r11d
    37b4:	8b 2b                	mov    (%rbx),%ebp
    37b6:	4c 8b b4 24 08 01 00 	mov    0x108(%rsp),%r14
    37bd:	00 
    37be:	48 01 fb             	add    %rdi,%rbx
    37c1:	43 89 2c 1e          	mov    %ebp,(%r14,%r11,1)
    37c5:	49 83 c3 04          	add    $0x4,%r11
    37c9:	49 83 fb 24          	cmp    $0x24,%r11
    37cd:	75 e5                	jne    37b4 <hidden_triplets.0+0x24d4>
    37cf:	4c 8b 9c 24 b8 00 00 	mov    0xb8(%rsp),%r11
    37d6:	00 
    37d7:	4c 03 5c 24 a0       	add    -0x60(%rsp),%r11
    37dc:	4c 8d b4 24 f0 01 00 	lea    0x1f0(%rsp),%r14
    37e3:	00 
    37e4:	4a 8d 1c 98          	lea    (%rax,%r11,4),%rbx
    37e8:	4c 89 b4 24 f8 00 00 	mov    %r14,0xf8(%rsp)
    37ef:	00 
    37f0:	45 31 db             	xor    %r11d,%r11d
    37f3:	48 89 9c 24 c0 00 00 	mov    %rbx,0xc0(%rsp)
    37fa:	00 
    37fb:	8b 2b                	mov    (%rbx),%ebp
    37fd:	4c 8b b4 24 f8 00 00 	mov    0xf8(%rsp),%r14
    3804:	00 
    3805:	48 01 fb             	add    %rdi,%rbx
    3808:	43 89 2c 1e          	mov    %ebp,(%r14,%r11,1)
    380c:	49 83 c3 04          	add    $0x4,%r11
    3810:	49 83 fb 24          	cmp    $0x24,%r11
    3814:	75 e5                	jne    37fb <hidden_triplets.0+0x251b>
    3816:	48 8b 5c 24 60       	mov    0x60(%rsp),%rbx
    381b:	bd 01 00 00 00       	mov    $0x1,%ebp
    3820:	c7 84 24 90 00 00 00 	movl   $0x80000000,0x90(%rsp)
    3827:	00 00 00 80 
    382b:	41 bc 01 00 00 00    	mov    $0x1,%r12d
    3831:	4c 8b b4 24 b8 00 00 	mov    0xb8(%rsp),%r14
    3838:	00 
    3839:	4c 2b 74 24 78       	sub    0x78(%rsp),%r14
    383e:	44 8b 1c b3          	mov    (%rbx,%rsi,4),%r11d
    3842:	44 03 1b             	add    (%rbx),%r11d
    3845:	46 03 1c b3          	add    (%rbx,%r14,4),%r11d
    3849:	44 39 9c 24 90 00 00 	cmp    %r11d,0x90(%rsp)
    3850:	00 
    3851:	0f 8c e6 11 00 00    	jl     4a3d <hidden_triplets.0+0x375d>
    3857:	48 83 c5 01          	add    $0x1,%rbp
    385b:	48 01 fb             	add    %rdi,%rbx
    385e:	49 39 ef             	cmp    %rbp,%r15
    3861:	7d db                	jge    383e <hidden_triplets.0+0x255e>
    3863:	4d 63 dc             	movslq %r12d,%r11
    3866:	4c 0f af 5c 24 a0    	imul   -0x60(%rsp),%r11
    386c:	4c 03 5c 24 f0       	add    -0x10(%rsp),%r11
    3871:	31 ed                	xor    %ebp,%ebp
    3873:	4d 01 c3             	add    %r8,%r11
    3876:	44 89 a4 24 90 00 00 	mov    %r12d,0x90(%rsp)
    387d:	00 
    387e:	48 c7 84 24 98 00 00 	movq   $0x1,0x98(%rsp)
    3885:	00 01 00 00 00 
    388a:	4e 8d 1c 98          	lea    (%rax,%r11,4),%r11
    388e:	4c 89 db             	mov    %r11,%rbx
    3891:	eb 1c                	jmp    38af <hidden_triplets.0+0x25cf>
    3893:	44 8b a4 24 90 00 00 	mov    0x90(%rsp),%r12d
    389a:	00 
    389b:	44 39 23             	cmp    %r12d,(%rbx)
    389e:	75 03                	jne    38a3 <hidden_triplets.0+0x25c3>
    38a0:	83 c5 01             	add    $0x1,%ebp
    38a3:	48 83 84 24 98 00 00 	addq   $0x1,0x98(%rsp)
    38aa:	00 01 
    38ac:	4c 01 d3             	add    %r10,%rbx
    38af:	4c 8b a4 24 98 00 00 	mov    0x98(%rsp),%r12
    38b6:	00 
    38b7:	4c 39 a4 24 88 00 00 	cmp    %r12,0x88(%rsp)
    38be:	00 
    38bf:	7d d2                	jge    3893 <hidden_triplets.0+0x25b3>
    38c1:	01 2d 71 a7 02 00    	add    %ebp,0x2a771(%rip)        # 2e038 <__logic_MOD_naked3>
    38c7:	bb 01 00 00 00       	mov    $0x1,%ebx
    38cc:	eb 1a                	jmp    38e8 <hidden_triplets.0+0x2608>
    38ce:	8b ac 24 90 00 00 00 	mov    0x90(%rsp),%ebp
    38d5:	41 39 2b             	cmp    %ebp,(%r11)
    38d8:	75 07                	jne    38e1 <hidden_triplets.0+0x2601>
    38da:	41 c7 03 00 00 00 00 	movl   $0x0,(%r11)
    38e1:	48 83 c3 01          	add    $0x1,%rbx
    38e5:	4d 01 d3             	add    %r10,%r11
    38e8:	48 39 9c 24 88 00 00 	cmp    %rbx,0x88(%rsp)
    38ef:	00 
    38f0:	7d dc                	jge    38ce <hidden_triplets.0+0x25ee>
    38f2:	48 8b 5c 24 60       	mov    0x60(%rsp),%rbx
    38f7:	bd 01 00 00 00       	mov    $0x1,%ebp
    38fc:	48 c7 84 24 90 00 00 	movq   $0x1,0x90(%rsp)
    3903:	00 01 00 00 00 
    3908:	41 bc 00 00 00 80    	mov    $0x80000000,%r12d
    390e:	44 8b 1c b3          	mov    (%rbx,%rsi,4),%r11d
    3912:	44 03 1b             	add    (%rbx),%r11d
    3915:	46 03 1c b3          	add    (%rbx,%r14,4),%r11d
    3919:	45 39 dc             	cmp    %r11d,%r12d
    391c:	0f 8c 2b 11 00 00    	jl     4a4d <hidden_triplets.0+0x376d>
    3922:	48 83 c5 01          	add    $0x1,%rbp
    3926:	48 01 fb             	add    %rdi,%rbx
    3929:	49 39 ef             	cmp    %rbp,%r15
    392c:	7d e0                	jge    390e <hidden_triplets.0+0x262e>
    392e:	48 8b 9c 24 90 00 00 	mov    0x90(%rsp),%rbx
    3935:	00 
    3936:	c7 84 24 90 00 00 00 	movl   $0x0,0x90(%rsp)
    393d:	00 00 00 00 
    3941:	4c 63 db             	movslq %ebx,%r11
    3944:	4c 0f af 5c 24 a0    	imul   -0x60(%rsp),%r11
    394a:	4c 03 5c 24 f0       	add    -0x10(%rsp),%r11
    394f:	89 9c 24 98 00 00 00 	mov    %ebx,0x98(%rsp)
    3956:	4d 01 c3             	add    %r8,%r11
    3959:	bb 01 00 00 00       	mov    $0x1,%ebx
    395e:	4a 8d 2c 98          	lea    (%rax,%r11,4),%rbp
    3962:	49 89 eb             	mov    %rbp,%r11
    3965:	eb 1c                	jmp    3983 <hidden_triplets.0+0x26a3>
    3967:	44 8b a4 24 98 00 00 	mov    0x98(%rsp),%r12d
    396e:	00 
    396f:	45 39 23             	cmp    %r12d,(%r11)
    3972:	75 08                	jne    397c <hidden_triplets.0+0x269c>
    3974:	83 84 24 90 00 00 00 	addl   $0x1,0x90(%rsp)
    397b:	01 
    397c:	48 83 c3 01          	add    $0x1,%rbx
    3980:	4d 01 d3             	add    %r10,%r11
    3983:	48 39 9c 24 88 00 00 	cmp    %rbx,0x88(%rsp)
    398a:	00 
    398b:	7d da                	jge    3967 <hidden_triplets.0+0x2687>
    398d:	4c 8d 9c 24 14 02 00 	lea    0x214(%rsp),%r11
    3994:	00 
    3995:	48 8b 5c 24 70       	mov    0x70(%rsp),%rbx
    399a:	4d 89 dc             	mov    %r11,%r12
    399d:	45 31 db             	xor    %r11d,%r11d
    39a0:	83 3b 01             	cmpl   $0x1,(%rbx)
    39a3:	41 83 db ff          	sbb    $0xffffffff,%r11d
    39a7:	83 7b 04 00          	cmpl   $0x0,0x4(%rbx)
    39ab:	74 04                	je     39b1 <hidden_triplets.0+0x26d1>
    39ad:	41 83 c3 01          	add    $0x1,%r11d
    39b1:	83 7b 08 00          	cmpl   $0x0,0x8(%rbx)
    39b5:	74 04                	je     39bb <hidden_triplets.0+0x26db>
    39b7:	41 83 c3 01          	add    $0x1,%r11d
    39bb:	83 7b 0c 00          	cmpl   $0x0,0xc(%rbx)
    39bf:	74 04                	je     39c5 <hidden_triplets.0+0x26e5>
    39c1:	41 83 c3 01          	add    $0x1,%r11d
    39c5:	83 7b 10 00          	cmpl   $0x0,0x10(%rbx)
    39c9:	74 04                	je     39cf <hidden_triplets.0+0x26ef>
    39cb:	41 83 c3 01          	add    $0x1,%r11d
    39cf:	83 7b 14 00          	cmpl   $0x0,0x14(%rbx)
    39d3:	74 04                	je     39d9 <hidden_triplets.0+0x26f9>
    39d5:	41 83 c3 01          	add    $0x1,%r11d
    39d9:	83 7b 18 00          	cmpl   $0x0,0x18(%rbx)
    39dd:	74 04                	je     39e3 <hidden_triplets.0+0x2703>
    39df:	41 83 c3 01          	add    $0x1,%r11d
    39e3:	83 7b 1c 00          	cmpl   $0x0,0x1c(%rbx)
    39e7:	74 04                	je     39ed <hidden_triplets.0+0x270d>
    39e9:	41 83 c3 01          	add    $0x1,%r11d
    39ed:	83 7b 20 00          	cmpl   $0x0,0x20(%rbx)
    39f1:	74 04                	je     39f7 <hidden_triplets.0+0x2717>
    39f3:	41 83 c3 01          	add    $0x1,%r11d
    39f7:	48 83 c3 24          	add    $0x24,%rbx
    39fb:	4c 39 e3             	cmp    %r12,%rbx
    39fe:	75 a0                	jne    39a0 <hidden_triplets.0+0x26c0>
    3a00:	8b 9c 24 90 00 00 00 	mov    0x90(%rsp),%ebx
    3a07:	44 29 db             	sub    %r11d,%ebx
    3a0a:	41 bb 01 00 00 00    	mov    $0x1,%r11d
    3a10:	01 1d 22 a6 02 00    	add    %ebx,0x2a622(%rip)        # 2e038 <__logic_MOD_naked3>
    3a16:	eb 1a                	jmp    3a32 <hidden_triplets.0+0x2752>
    3a18:	8b 9c 24 98 00 00 00 	mov    0x98(%rsp),%ebx
    3a1f:	39 5d 00             	cmp    %ebx,0x0(%rbp)
    3a22:	75 07                	jne    3a2b <hidden_triplets.0+0x274b>
    3a24:	c7 45 00 00 00 00 00 	movl   $0x0,0x0(%rbp)
    3a2b:	49 83 c3 01          	add    $0x1,%r11
    3a2f:	4c 01 d5             	add    %r10,%rbp
    3a32:	4c 39 9c 24 88 00 00 	cmp    %r11,0x88(%rsp)
    3a39:	00 
    3a3a:	7d dc                	jge    3a18 <hidden_triplets.0+0x2738>
    3a3c:	48 8b 5c 24 60       	mov    0x60(%rsp),%rbx
    3a41:	bd 01 00 00 00       	mov    $0x1,%ebp
    3a46:	48 c7 84 24 90 00 00 	movq   $0x1,0x90(%rsp)
    3a4d:	00 01 00 00 00 
    3a52:	41 bc 00 00 00 80    	mov    $0x80000000,%r12d
    3a58:	44 8b 1c b3          	mov    (%rbx,%rsi,4),%r11d
    3a5c:	44 03 1b             	add    (%rbx),%r11d
    3a5f:	46 03 1c b3          	add    (%rbx,%r14,4),%r11d
    3a63:	45 39 dc             	cmp    %r11d,%r12d
    3a66:	0f 8c f1 0f 00 00    	jl     4a5d <hidden_triplets.0+0x377d>
    3a6c:	48 83 c5 01          	add    $0x1,%rbp
    3a70:	48 01 fb             	add    %rdi,%rbx
    3a73:	49 39 ef             	cmp    %rbp,%r15
    3a76:	7d e0                	jge    3a58 <hidden_triplets.0+0x2778>
    3a78:	48 8b 9c 24 90 00 00 	mov    0x90(%rsp),%rbx
    3a7f:	00 
    3a80:	bd 01 00 00 00       	mov    $0x1,%ebp
    3a85:	4c 63 db             	movslq %ebx,%r11
    3a88:	4c 0f af 5c 24 a0    	imul   -0x60(%rsp),%r11
    3a8e:	4c 03 5c 24 f0       	add    -0x10(%rsp),%r11
    3a93:	41 89 de             	mov    %ebx,%r14d
    3a96:	4d 01 c3             	add    %r8,%r11
    3a99:	4e 8d 1c 98          	lea    (%rax,%r11,4),%r11
    3a9d:	4c 89 db             	mov    %r11,%rbx
    3aa0:	eb 10                	jmp    3ab2 <hidden_triplets.0+0x27d2>
    3aa2:	44 39 33             	cmp    %r14d,(%rbx)
    3aa5:	75 04                	jne    3aab <hidden_triplets.0+0x27cb>
    3aa7:	41 83 c1 01          	add    $0x1,%r9d
    3aab:	48 83 c5 01          	add    $0x1,%rbp
    3aaf:	4c 01 d3             	add    %r10,%rbx
    3ab2:	48 39 ac 24 88 00 00 	cmp    %rbp,0x88(%rsp)
    3ab9:	00 
    3aba:	7d e6                	jge    3aa2 <hidden_triplets.0+0x27c2>
    3abc:	44 01 0d 75 a5 02 00 	add    %r9d,0x2a575(%rip)        # 2e038 <__logic_MOD_naked3>
    3ac3:	41 b9 01 00 00 00    	mov    $0x1,%r9d
    3ac9:	eb 13                	jmp    3ade <hidden_triplets.0+0x27fe>
    3acb:	45 39 33             	cmp    %r14d,(%r11)
    3ace:	75 07                	jne    3ad7 <hidden_triplets.0+0x27f7>
    3ad0:	41 c7 03 00 00 00 00 	movl   $0x0,(%r11)
    3ad7:	49 83 c1 01          	add    $0x1,%r9
    3adb:	4d 01 d3             	add    %r10,%r11
    3ade:	4c 39 8c 24 88 00 00 	cmp    %r9,0x88(%rsp)
    3ae5:	00 
    3ae6:	7d e3                	jge    3acb <hidden_triplets.0+0x27eb>
    3ae8:	4c 8b 5c 24 60       	mov    0x60(%rsp),%r11
    3aed:	45 31 c9             	xor    %r9d,%r9d
    3af0:	48 8b 5c 24 70       	mov    0x70(%rsp),%rbx
    3af5:	42 8b 1c 8b          	mov    (%rbx,%r9,4),%ebx
    3af9:	49 83 c1 01          	add    $0x1,%r9
    3afd:	41 89 1b             	mov    %ebx,(%r11)
    3b00:	49 01 fb             	add    %rdi,%r11
    3b03:	49 83 f9 09          	cmp    $0x9,%r9
    3b07:	75 e7                	jne    3af0 <hidden_triplets.0+0x2810>
    3b09:	4c 8b 5c 24 30       	mov    0x30(%rsp),%r11
    3b0e:	45 31 c9             	xor    %r9d,%r9d
    3b11:	48 8b 9c 24 08 01 00 	mov    0x108(%rsp),%rbx
    3b18:	00 
    3b19:	42 8b 1c 0b          	mov    (%rbx,%r9,1),%ebx
    3b1d:	49 83 c1 04          	add    $0x4,%r9
    3b21:	41 89 1b             	mov    %ebx,(%r11)
    3b24:	49 01 fb             	add    %rdi,%r11
    3b27:	49 83 f9 24          	cmp    $0x24,%r9
    3b2b:	75 e4                	jne    3b11 <hidden_triplets.0+0x2831>
    3b2d:	45 31 c9             	xor    %r9d,%r9d
    3b30:	48 8b 9c 24 f8 00 00 	mov    0xf8(%rsp),%rbx
    3b37:	00 
    3b38:	46 8b 1c 0b          	mov    (%rbx,%r9,1),%r11d
    3b3c:	48 8b 9c 24 c0 00 00 	mov    0xc0(%rsp),%rbx
    3b43:	00 
    3b44:	49 83 c1 04          	add    $0x4,%r9
    3b48:	44 89 1b             	mov    %r11d,(%rbx)
    3b4b:	48 01 fb             	add    %rdi,%rbx
    3b4e:	48 89 9c 24 c0 00 00 	mov    %rbx,0xc0(%rsp)
    3b55:	00 
    3b56:	49 83 f9 24          	cmp    $0x24,%r9
    3b5a:	75 d4                	jne    3b30 <hidden_triplets.0+0x2850>
    3b5c:	e9 b7 f6 ff ff       	jmp    3218 <hidden_triplets.0+0x1f38>
    3b61:	0f 1f 80 00 00 00 00 	nopl   0x0(%rax)
    3b68:	4d 89 de             	mov    %r11,%r14
    3b6b:	4d 89 f9             	mov    %r15,%r9
    3b6e:	4d 89 d3             	mov    %r10,%r11
    3b71:	4d 89 c2             	mov    %r8,%r10
    3b74:	e9 1c da ff ff       	jmp    1595 <hidden_triplets.0+0x2b5>
    3b79:	ba 01 00 00 00       	mov    $0x1,%edx
    3b7e:	31 c0                	xor    %eax,%eax
    3b80:	e9 7b de ff ff       	jmp    1a00 <hidden_triplets.0+0x720>
    3b85:	48 8b 4c 24 b8       	mov    -0x48(%rsp),%rcx
    3b8a:	48 8b 74 24 90       	mov    -0x70(%rsp),%rsi
    3b8f:	31 d2                	xor    %edx,%edx
    3b91:	31 c0                	xor    %eax,%eax
    3b93:	0f 1f 44 00 00       	nopl   0x0(%rax,%rax,1)
    3b98:	83 39 01             	cmpl   $0x1,(%rcx)
    3b9b:	83 d0 00             	adc    $0x0,%eax
    3b9e:	48 83 c2 01          	add    $0x1,%rdx
    3ba2:	4c 01 f1             	add    %r14,%rcx
    3ba5:	48 39 d6             	cmp    %rdx,%rsi
    3ba8:	75 ee                	jne    3b98 <hidden_triplets.0+0x28b8>
    3baa:	e9 dd d9 ff ff       	jmp    158c <hidden_triplets.0+0x2ac>
    3baf:	4c 8b 44 24 88       	mov    -0x78(%rsp),%r8
    3bb4:	48 8b 74 24 b8       	mov    -0x48(%rsp),%rsi
    3bb9:	31 d2                	xor    %edx,%edx
    3bbb:	31 c0                	xor    %eax,%eax
    3bbd:	4a 8d 4c 05 fc       	lea    -0x4(%rbp,%r8,1),%rcx
    3bc2:	66 0f 1f 44 00 00    	nopw   0x0(%rax,%rax,1)
    3bc8:	83 39 01             	cmpl   $0x1,(%rcx)
    3bcb:	83 d0 00             	adc    $0x0,%eax
    3bce:	48 83 c2 01          	add    $0x1,%rdx
    3bd2:	4c 01 c1             	add    %r8,%rcx
    3bd5:	48 39 d6             	cmp    %rdx,%rsi
    3bd8:	75 ee                	jne    3bc8 <hidden_triplets.0+0x28e8>
    3bda:	e9 9e db ff ff       	jmp    177d <hidden_triplets.0+0x49d>
    3bdf:	48 8b 74 24 f0       	mov    -0x10(%rsp),%rsi
    3be4:	4c 8b 44 24 f8       	mov    -0x8(%rsp),%r8
    3be9:	89 8c 24 20 01 00 00 	mov    %ecx,0x120(%rsp)
    3bf0:	4c 89 b4 24 28 01 00 	mov    %r14,0x128(%rsp)
    3bf7:	00 
    3bf8:	48 8b 8c 24 a8 00 00 	mov    0xa8(%rsp),%rcx
    3bff:	00 
    3c00:	48 8d 46 07          	lea    0x7(%rsi),%rax
    3c04:	48 8d 56 04          	lea    0x4(%rsi),%rdx
    3c08:	48 89 9c 24 30 01 00 	mov    %rbx,0x130(%rsp)
    3c0f:	00 
    3c10:	48 89 84 24 98 00 00 	mov    %rax,0x98(%rsp)
    3c17:	00 
    3c18:	48 0f af 44 24 d0    	imul   -0x30(%rsp),%rax
    3c1e:	48 03 44 24 48       	add    0x48(%rsp),%rax
    3c23:	48 89 54 24 60       	mov    %rdx,0x60(%rsp)
    3c28:	48 8d 56 05          	lea    0x5(%rsi),%rdx
    3c2c:	49 8d 04 80          	lea    (%r8,%rax,4),%rax
    3c30:	48 89 54 24 68       	mov    %rdx,0x68(%rsp)
    3c35:	48 8d 56 06          	lea    0x6(%rsi),%rdx
    3c39:	48 89 84 24 08 01 00 	mov    %rax,0x108(%rsp)
    3c40:	00 
    3c41:	8b 44 24 50          	mov    0x50(%rsp),%eax
    3c45:	48 89 94 24 90 00 00 	mov    %rdx,0x90(%rsp)
    3c4c:	00 
    3c4d:	48 8b 54 24 d0       	mov    -0x30(%rsp),%rdx
    3c52:	44 8d 40 04          	lea    0x4(%rax),%r8d
    3c56:	48 8d 46 01          	lea    0x1(%rsi),%rax
    3c5a:	48 89 ac 24 38 01 00 	mov    %rbp,0x138(%rsp)
    3c61:	00 
    3c62:	48 8b 6c 24 e0       	mov    -0x20(%rsp),%rbp
    3c67:	48 89 84 24 f8 00 00 	mov    %rax,0xf8(%rsp)
    3c6e:	00 
    3c6f:	48 8d 46 02          	lea    0x2(%rsi),%rax
    3c73:	48 f7 da             	neg    %rdx
    3c76:	48 89 84 24 88 00 00 	mov    %rax,0x88(%rsp)
    3c7d:	00 
    3c7e:	48 8d 46 03          	lea    0x3(%rsi),%rax
    3c82:	48 83 c6 08          	add    $0x8,%rsi
    3c86:	48 89 84 24 00 01 00 	mov    %rax,0x100(%rsp)
    3c8d:	00 
    3c8e:	4c 8b b4 24 00 01 00 	mov    0x100(%rsp),%r14
    3c95:	00 
    3c96:	31 c0                	xor    %eax,%eax
    3c98:	48 89 b4 24 c0 00 00 	mov    %rsi,0xc0(%rsp)
    3c9f:	00 
    3ca0:	48 8b 74 24 08       	mov    0x8(%rsp),%rsi
    3ca5:	48 89 94 24 a0 00 00 	mov    %rdx,0xa0(%rsp)
    3cac:	00 
    3cad:	48 8b 94 24 08 01 00 	mov    0x108(%rsp),%rdx
    3cb4:	00 
    3cb5:	4c 89 94 24 40 01 00 	mov    %r10,0x140(%rsp)
    3cbc:	00 
    3cbd:	44 89 9c 24 08 01 00 	mov    %r11d,0x108(%rsp)
    3cc4:	00 
    3cc5:	4c 89 ac 24 48 01 00 	mov    %r13,0x148(%rsp)
    3ccc:	00 
    3ccd:	4c 8b ac 24 f8 00 00 	mov    0xf8(%rsp),%r13
    3cd4:	00 
    3cd5:	44 89 a4 24 00 01 00 	mov    %r12d,0x100(%rsp)
    3cdc:	00 
    3cdd:	4c 89 8c 24 f8 00 00 	mov    %r9,0xf8(%rsp)
    3ce4:	00 
    3ce5:	4c 89 bc 24 50 01 00 	mov    %r15,0x150(%rsp)
    3cec:	00 
    3ced:	4c 8b bc 24 88 00 00 	mov    0x88(%rsp),%r15
    3cf4:	00 
    3cf5:	48 8b 9c 24 60 01 00 	mov    0x160(%rsp),%rbx
    3cfc:	00 
    3cfd:	4c 8b 94 24 58 01 00 	mov    0x158(%rsp),%r10
    3d04:	00 
    3d05:	4c 8b 9c 24 68 01 00 	mov    0x168(%rsp),%r11
    3d0c:	00 
    3d0d:	4c 8b 4c 24 f0       	mov    -0x10(%rsp),%r9
    3d12:	48 89 9c 24 88 00 00 	mov    %rbx,0x88(%rsp)
    3d19:	00 
    3d1a:	48 8b 9c 24 70 01 00 	mov    0x170(%rsp),%rbx
    3d21:	00 
    3d22:	66 0f 1f 44 00 00    	nopw   0x0(%rax,%rax,1)
    3d28:	49 39 f9             	cmp    %rdi,%r9
    3d2b:	0f 8f a4 00 00 00    	jg     3dd5 <hidden_triplets.0+0x2af5>
    3d31:	42 83 3c 92 01       	cmpl   $0x1,(%rdx,%r10,4)
    3d36:	83 d0 00             	adc    $0x0,%eax
    3d39:	4c 39 ef             	cmp    %r13,%rdi
    3d3c:	0f 8c 93 00 00 00    	jl     3dd5 <hidden_triplets.0+0x2af5>
    3d42:	42 83 3c 9a 01       	cmpl   $0x1,(%rdx,%r11,4)
    3d47:	83 d0 00             	adc    $0x0,%eax
    3d4a:	49 39 ff             	cmp    %rdi,%r15
    3d4d:	0f 8f 82 00 00 00    	jg     3dd5 <hidden_triplets.0+0x2af5>
    3d53:	83 3c 9a 01          	cmpl   $0x1,(%rdx,%rbx,4)
    3d57:	83 d0 00             	adc    $0x0,%eax
    3d5a:	4c 39 f7             	cmp    %r14,%rdi
    3d5d:	7c 76                	jl     3dd5 <hidden_triplets.0+0x2af5>
    3d5f:	83 3c aa 01          	cmpl   $0x1,(%rdx,%rbp,4)
    3d63:	83 d0 00             	adc    $0x0,%eax
    3d66:	48 3b 7c 24 60       	cmp    0x60(%rsp),%rdi
    3d6b:	7c 68                	jl     3dd5 <hidden_triplets.0+0x2af5>
    3d6d:	4c 8b a4 24 88 00 00 	mov    0x88(%rsp),%r12
    3d74:	00 
    3d75:	42 83 3c a2 01       	cmpl   $0x1,(%rdx,%r12,4)
    3d7a:	83 d0 00             	adc    $0x0,%eax
    3d7d:	48 39 7c 24 68       	cmp    %rdi,0x68(%rsp)
    3d82:	7f 51                	jg     3dd5 <hidden_triplets.0+0x2af5>
    3d84:	4c 8b a4 24 b8 00 00 	mov    0xb8(%rsp),%r12
    3d8b:	00 
    3d8c:	42 83 3c a2 01       	cmpl   $0x1,(%rdx,%r12,4)
    3d91:	83 d0 00             	adc    $0x0,%eax
    3d94:	48 3b bc 24 90 00 00 	cmp    0x90(%rsp),%rdi
    3d9b:	00 
    3d9c:	7c 37                	jl     3dd5 <hidden_triplets.0+0x2af5>
    3d9e:	4c 8b a4 24 a0 00 00 	mov    0xa0(%rsp),%r12
    3da5:	00 
    3da6:	42 83 3c a2 01       	cmpl   $0x1,(%rdx,%r12,4)
    3dab:	83 d0 00             	adc    $0x0,%eax
    3dae:	48 3b bc 24 98 00 00 	cmp    0x98(%rsp),%rdi
    3db5:	00 
    3db6:	7c 1d                	jl     3dd5 <hidden_triplets.0+0x2af5>
    3db8:	83 3a 01             	cmpl   $0x1,(%rdx)
    3dbb:	83 d0 00             	adc    $0x0,%eax
    3dbe:	48 39 bc 24 c0 00 00 	cmp    %rdi,0xc0(%rsp)
    3dc5:	00 
    3dc6:	7f 0d                	jg     3dd5 <hidden_triplets.0+0x2af5>
    3dc8:	4c 8b 64 24 d0       	mov    -0x30(%rsp),%r12
    3dcd:	42 83 3c a2 01       	cmpl   $0x1,(%rdx,%r12,4)
    3dd2:	83 d0 00             	adc    $0x0,%eax
    3dd5:	48 83 c6 01          	add    $0x1,%rsi
    3dd9:	48 01 ca             	add    %rcx,%rdx
    3ddc:	4c 39 c6             	cmp    %r8,%rsi
    3ddf:	0f 85 43 ff ff ff    	jne    3d28 <hidden_triplets.0+0x2a48>
    3de5:	8b 8c 24 20 01 00 00 	mov    0x120(%rsp),%ecx
    3dec:	44 8b 9c 24 08 01 00 	mov    0x108(%rsp),%r11d
    3df3:	00 
    3df4:	4c 8b b4 24 28 01 00 	mov    0x128(%rsp),%r14
    3dfb:	00 
    3dfc:	44 8b a4 24 00 01 00 	mov    0x100(%rsp),%r12d
    3e03:	00 
    3e04:	48 8b 9c 24 30 01 00 	mov    0x130(%rsp),%rbx
    3e0b:	00 
    3e0c:	48 8b ac 24 38 01 00 	mov    0x138(%rsp),%rbp
    3e13:	00 
    3e14:	4c 8b 94 24 40 01 00 	mov    0x140(%rsp),%r10
    3e1b:	00 
    3e1c:	4c 8b ac 24 48 01 00 	mov    0x148(%rsp),%r13
    3e23:	00 
    3e24:	4c 8b 8c 24 f8 00 00 	mov    0xf8(%rsp),%r9
    3e2b:	00 
    3e2c:	4c 8b bc 24 50 01 00 	mov    0x150(%rsp),%r15
    3e33:	00 
    3e34:	e9 0d dd ff ff       	jmp    1b46 <hidden_triplets.0+0x866>
    3e39:	83 f9 01             	cmp    $0x1,%ecx
    3e3c:	0f 8e be f1 ff ff    	jle    3000 <hidden_triplets.0+0x1d20>
    3e42:	e9 ae f2 ff ff       	jmp    30f5 <hidden_triplets.0+0x1e15>
    3e47:	48 8b 2c 24          	mov    (%rsp),%rbp
    3e4b:	4c 89 ee             	mov    %r13,%rsi
    3e4e:	31 ff                	xor    %edi,%edi
    3e50:	31 c9                	xor    %ecx,%ecx
    3e52:	66 0f 1f 44 00 00    	nopw   0x0(%rax,%rax,1)
    3e58:	83 3e 01             	cmpl   $0x1,(%rsi)
    3e5b:	83 df ff             	sbb    $0xffffffff,%edi
    3e5e:	48 83 c1 01          	add    $0x1,%rcx
    3e62:	48 01 ee             	add    %rbp,%rsi
    3e65:	49 39 cf             	cmp    %rcx,%r15
    3e68:	75 ee                	jne    3e58 <hidden_triplets.0+0x2b78>
    3e6a:	83 ff 01             	cmp    $0x1,%edi
    3e6d:	0f 8e 8d f1 ff ff    	jle    3000 <hidden_triplets.0+0x1d20>
    3e73:	48 8b 3c 24          	mov    (%rsp),%rdi
    3e77:	4c 89 ee             	mov    %r13,%rsi
    3e7a:	31 c9                	xor    %ecx,%ecx
    3e7c:	83 3e 01             	cmpl   $0x1,(%rsi)
    3e7f:	83 da ff             	sbb    $0xffffffff,%edx
    3e82:	48 83 c1 01          	add    $0x1,%rcx
    3e86:	48 01 fe             	add    %rdi,%rsi
    3e89:	49 39 cf             	cmp    %rcx,%r15
    3e8c:	75 ee                	jne    3e7c <hidden_triplets.0+0x2b9c>
    3e8e:	e9 ee f2 ff ff       	jmp    3181 <hidden_triplets.0+0x1ea1>
    3e93:	4f 8d 34 22          	lea    (%r10,%r12,1),%r14
    3e97:	4b 8d 3c 23          	lea    (%r11,%r12,1),%rdi
    3e9b:	83 fa 01             	cmp    $0x1,%edx
    3e9e:	0f 8e 04 e6 ff ff    	jle    24a8 <hidden_triplets.0+0x11c8>
    3ea4:	e9 fb e6 ff ff       	jmp    25a4 <hidden_triplets.0+0x12c4>
    3ea9:	48 8b 3c 24          	mov    (%rsp),%rdi
    3ead:	4c 89 d9             	mov    %r11,%rcx
    3eb0:	31 f6                	xor    %esi,%esi
    3eb2:	31 d2                	xor    %edx,%edx
    3eb4:	0f 1f 40 00          	nopl   0x0(%rax)
    3eb8:	83 39 01             	cmpl   $0x1,(%rcx)
    3ebb:	83 de ff             	sbb    $0xffffffff,%esi
    3ebe:	48 83 c2 01          	add    $0x1,%rdx
    3ec2:	48 01 f9             	add    %rdi,%rcx
    3ec5:	49 39 d7             	cmp    %rdx,%r15
    3ec8:	75 ee                	jne    3eb8 <hidden_triplets.0+0x2bd8>
    3eca:	83 fe 01             	cmp    $0x1,%esi
    3ecd:	0f 8e cd e5 ff ff    	jle    24a0 <hidden_triplets.0+0x11c0>
    3ed3:	48 8b 34 24          	mov    (%rsp),%rsi
    3ed7:	4c 89 d9             	mov    %r11,%rcx
    3eda:	31 d2                	xor    %edx,%edx
    3edc:	83 39 01             	cmpl   $0x1,(%rcx)
    3edf:	83 d8 ff             	sbb    $0xffffffff,%eax
    3ee2:	48 83 c2 01          	add    $0x1,%rdx
    3ee6:	48 01 f1             	add    %rsi,%rcx
    3ee9:	49 39 d7             	cmp    %rdx,%r15
    3eec:	75 ee                	jne    3edc <hidden_triplets.0+0x2bfc>
    3eee:	e9 40 e7 ff ff       	jmp    2633 <hidden_triplets.0+0x1353>
    3ef3:	48 8b 74 24 90       	mov    -0x70(%rsp),%rsi
    3ef8:	4c 8b 04 24          	mov    (%rsp),%r8
    3efc:	4c 89 d2             	mov    %r10,%rdx
    3eff:	31 c0                	xor    %eax,%eax
    3f01:	83 3a 01             	cmpl   $0x1,(%rdx)
    3f04:	83 d9 ff             	sbb    $0xffffffff,%ecx
    3f07:	48 83 c0 01          	add    $0x1,%rax
    3f0b:	4c 01 c2             	add    %r8,%rdx
    3f0e:	48 39 c6             	cmp    %rax,%rsi
    3f11:	75 ee                	jne    3f01 <hidden_triplets.0+0x2c21>
    3f13:	e9 f3 dc ff ff       	jmp    1c0b <hidden_triplets.0+0x92b>
    3f18:	ba 01 00 00 00       	mov    $0x1,%edx
    3f1d:	31 c0                	xor    %eax,%eax
    3f1f:	e9 19 d8 ff ff       	jmp    173d <hidden_triplets.0+0x45d>
    3f24:	ba 01 00 00 00       	mov    $0x1,%edx
    3f29:	31 c0                	xor    %eax,%eax
    3f2b:	e9 1c d6 ff ff       	jmp    154c <hidden_triplets.0+0x26c>
    3f30:	44 8b 9c 24 28 01 00 	mov    0x128(%rsp),%r11d
    3f37:	00 
    3f38:	e9 7b dd ff ff       	jmp    1cb8 <hidden_triplets.0+0x9d8>
    3f3d:	4d 89 e1             	mov    %r12,%r9
    3f40:	44 8b 9c 24 a0 01 00 	mov    0x1a0(%rsp),%r11d
    3f47:	00 
    3f48:	4c 8b b4 24 98 01 00 	mov    0x198(%rsp),%r14
    3f4f:	00 
    3f50:	48 8b 9c 24 f8 00 00 	mov    0xf8(%rsp),%rbx
    3f57:	00 
    3f58:	48 8b ac 24 20 01 00 	mov    0x120(%rsp),%rbp
    3f5f:	00 
    3f60:	4c 8b 94 24 98 00 00 	mov    0x98(%rsp),%r10
    3f67:	00 
    3f68:	4c 8b ac 24 00 01 00 	mov    0x100(%rsp),%r13
    3f6f:	00 
    3f70:	44 8b 64 24 68       	mov    0x68(%rsp),%r12d
    3f75:	4c 8b 7c 24 60       	mov    0x60(%rsp),%r15
    3f7a:	e9 d1 d9 ff ff       	jmp    1950 <hidden_triplets.0+0x670>
    3f7f:	44 8b ac 24 50 01 00 	mov    0x150(%rsp),%r13d
    3f86:	00 
    3f87:	48 8b 9c 24 b8 00 00 	mov    0xb8(%rsp),%rbx
    3f8e:	00 
    3f8f:	4c 8b 84 24 58 01 00 	mov    0x158(%rsp),%r8
    3f96:	00 
    3f97:	48 8b 6c 24 48       	mov    0x48(%rsp),%rbp
    3f9c:	4c 8b b4 24 60 01 00 	mov    0x160(%rsp),%r14
    3fa3:	00 
    3fa4:	48 8b bc 24 68 01 00 	mov    0x168(%rsp),%rdi
    3fab:	00 
    3fac:	e9 f7 e4 ff ff       	jmp    24a8 <hidden_triplets.0+0x11c8>
    3fb1:	44 8b b4 24 38 01 00 	mov    0x138(%rsp),%r14d
    3fb8:	00 
    3fb9:	4c 8b 8c 24 48 01 00 	mov    0x148(%rsp),%r9
    3fc0:	00 
    3fc1:	4c 8b 64 24 78       	mov    0x78(%rsp),%r12
    3fc6:	4c 8b 5c 24 48       	mov    0x48(%rsp),%r11
    3fcb:	48 8b ac 24 50 01 00 	mov    0x150(%rsp),%rbp
    3fd2:	00 
    3fd3:	48 8b bc 24 58 01 00 	mov    0x158(%rsp),%rdi
    3fda:	00 
    3fdb:	48 8b 84 24 60 01 00 	mov    0x160(%rsp),%rax
    3fe2:	00 
    3fe3:	e9 24 f0 ff ff       	jmp    300c <hidden_triplets.0+0x1d2c>
    3fe8:	be 01 00 00 00       	mov    $0x1,%esi
    3fed:	31 c9                	xor    %ecx,%ecx
    3fef:	e9 b3 f0 ff ff       	jmp    30a7 <hidden_triplets.0+0x1dc7>
    3ff4:	b9 01 00 00 00       	mov    $0x1,%ecx
    3ff9:	31 d2                	xor    %edx,%edx
    3ffb:	e9 50 e5 ff ff       	jmp    2550 <hidden_triplets.0+0x1270>
    4000:	4c 8b 1c 24          	mov    (%rsp),%r11
    4004:	4c 89 d6             	mov    %r10,%rsi
    4007:	45 31 c0             	xor    %r8d,%r8d
    400a:	31 c0                	xor    %eax,%eax
    400c:	83 3e 01             	cmpl   $0x1,(%rsi)
    400f:	41 83 d8 ff          	sbb    $0xffffffff,%r8d
    4013:	48 83 c0 01          	add    $0x1,%rax
    4017:	4c 01 de             	add    %r11,%rsi
    401a:	4c 39 c8             	cmp    %r9,%rax
    401d:	75 ed                	jne    400c <hidden_triplets.0+0x2d2c>
    401f:	4c 89 d0             	mov    %r10,%rax
    4022:	31 f6                	xor    %esi,%esi
    4024:	41 83 f8 01          	cmp    $0x1,%r8d
    4028:	0f 8e 2a dd ff ff    	jle    1d58 <hidden_triplets.0+0xa78>
    402e:	83 38 01             	cmpl   $0x1,(%rax)
    4031:	83 da ff             	sbb    $0xffffffff,%edx
    4034:	48 83 c6 01          	add    $0x1,%rsi
    4038:	48 03 04 24          	add    (%rsp),%rax
    403c:	4c 39 ce             	cmp    %r9,%rsi
    403f:	75 ed                	jne    402e <hidden_triplets.0+0x2d4e>
    4041:	e9 c1 de ff ff       	jmp    1f07 <hidden_triplets.0+0xc27>
    4046:	83 fb 01             	cmp    $0x1,%ebx
    4049:	0f 8e 71 e6 ff ff    	jle    26c0 <hidden_triplets.0+0x13e0>
    404f:	e9 5a e7 ff ff       	jmp    27ae <hidden_triplets.0+0x14ce>
    4054:	4c 8b 5c 24 18       	mov    0x18(%rsp),%r11
    4059:	31 db                	xor    %ebx,%ebx
    405b:	45 31 d2             	xor    %r10d,%r10d
    405e:	41 83 3b 01          	cmpl   $0x1,(%r11)
    4062:	83 db ff             	sbb    $0xffffffff,%ebx
    4065:	49 83 c2 01          	add    $0x1,%r10
    4069:	4d 01 cb             	add    %r9,%r11
    406c:	4d 39 d7             	cmp    %r10,%r15
    406f:	75 ed                	jne    405e <hidden_triplets.0+0x2d7e>
    4071:	83 fb 01             	cmp    $0x1,%ebx
    4074:	0f 8e 46 e6 ff ff    	jle    26c0 <hidden_triplets.0+0x13e0>
    407a:	4c 8b 54 24 18       	mov    0x18(%rsp),%r10
    407f:	31 db                	xor    %ebx,%ebx
    4081:	45 31 db             	xor    %r11d,%r11d
    4084:	41 83 3a 01          	cmpl   $0x1,(%r10)
    4088:	83 db ff             	sbb    $0xffffffff,%ebx
    408b:	49 83 c3 01          	add    $0x1,%r11
    408f:	4d 01 ca             	add    %r9,%r10
    4092:	4d 39 df             	cmp    %r11,%r15
    4095:	75 ed                	jne    4084 <hidden_triplets.0+0x2da4>
    4097:	83 fb 03             	cmp    $0x3,%ebx
    409a:	0f 8f 20 e6 ff ff    	jg     26c0 <hidden_triplets.0+0x13e0>
    40a0:	4c 8b 54 24 60       	mov    0x60(%rsp),%r10
    40a5:	41 bb 01 00 00 00    	mov    $0x1,%r11d
    40ab:	eb 13                	jmp    40c0 <hidden_triplets.0+0x2de0>
    40ad:	0f 1f 00             	nopl   (%rax)
    40b0:	49 83 c3 01          	add    $0x1,%r11
    40b4:	4d 01 ca             	add    %r9,%r10
    40b7:	4d 39 df             	cmp    %r11,%r15
    40ba:	0f 8c 00 e6 ff ff    	jl     26c0 <hidden_triplets.0+0x13e0>
    40c0:	41 8b 1c ba          	mov    (%r10,%rdi,4),%ebx
    40c4:	41 39 1a             	cmp    %ebx,(%r10)
    40c7:	74 e7                	je     40b0 <hidden_triplets.0+0x2dd0>
    40c9:	4c 8b 54 24 d0       	mov    -0x30(%rsp),%r10
    40ce:	4c 63 de             	movslq %esi,%r11
    40d1:	48 8b 5c 24 f8       	mov    -0x8(%rsp),%rbx
    40d6:	89 74 24 70          	mov    %esi,0x70(%rsp)
    40da:	48 8b 6c 24 48       	mov    0x48(%rsp),%rbp
    40df:	4d 0f af d3          	imul   %r11,%r10
    40e3:	4c 03 54 24 f0       	add    -0x10(%rsp),%r10
    40e8:	4c 0f af 5c 24 90    	imul   -0x70(%rsp),%r11
    40ee:	4a 8d 1c 93          	lea    (%rbx,%r10,4),%rbx
    40f2:	4c 8b 54 24 a0       	mov    -0x60(%rsp),%r10
    40f7:	48 89 9c 24 b0 00 00 	mov    %rbx,0xb0(%rsp)
    40fe:	00 
    40ff:	48 8b 5c 24 08       	mov    0x8(%rsp),%rbx
    4104:	49 01 da             	add    %rbx,%r10
    4107:	4d 01 da             	add    %r11,%r10
    410a:	4e 8d 2c 92          	lea    (%rdx,%r10,4),%r13
    410e:	49 89 ea             	mov    %rbp,%r10
    4111:	49 29 da             	sub    %rbx,%r10
    4114:	48 29 eb             	sub    %rbp,%rbx
    4117:	4d 89 d6             	mov    %r10,%r14
    411a:	4a 8d 1c 1b          	lea    (%rbx,%r11,1),%rbx
    411e:	48 89 9c 24 98 00 00 	mov    %rbx,0x98(%rsp)
    4125:	00 
    4126:	4d 29 de             	sub    %r11,%r14
    4129:	eb 32                	jmp    415d <hidden_triplets.0+0x2e7d>
    412b:	4c 8b 5c 24 88       	mov    -0x78(%rsp),%r11
    4130:	83 44 24 70 01       	addl   $0x1,0x70(%rsp)
    4135:	4d 01 e5             	add    %r12,%r13
    4138:	4c 01 9c 24 b0 00 00 	add    %r11,0xb0(%rsp)
    413f:	00 
    4140:	8b 5c 24 70          	mov    0x70(%rsp),%ebx
    4144:	4c 8b 5c 24 90       	mov    -0x70(%rsp),%r11
    4149:	4c 01 9c 24 98 00 00 	add    %r11,0x98(%rsp)
    4150:	00 
    4151:	4d 29 de             	sub    %r11,%r14
    4154:	83 fb 0a             	cmp    $0xa,%ebx
    4157:	0f 84 63 e5 ff ff    	je     26c0 <hidden_triplets.0+0x13e0>
    415d:	48 8b 9c 24 b0 00 00 	mov    0xb0(%rsp),%rbx
    4164:	00 
    4165:	8b 1b                	mov    (%rbx),%ebx
    4167:	85 db                	test   %ebx,%ebx
    4169:	75 c0                	jne    412b <hidden_triplets.0+0x2e4b>
    416b:	4c 8b 94 24 98 00 00 	mov    0x98(%rsp),%r10
    4172:	00 
    4173:	4c 03 54 24 48       	add    0x48(%rsp),%r10
    4178:	4c 89 ed             	mov    %r13,%rbp
    417b:	45 31 db             	xor    %r11d,%r11d
    417e:	4c 89 94 24 a0 00 00 	mov    %r10,0xa0(%rsp)
    4185:	00 
    4186:	45 31 d2             	xor    %r10d,%r10d
    4189:	83 7d 00 01          	cmpl   $0x1,0x0(%rbp)
    418d:	41 83 da ff          	sbb    $0xffffffff,%r10d
    4191:	49 83 c3 01          	add    $0x1,%r11
    4195:	4c 01 cd             	add    %r9,%rbp
    4198:	4d 39 df             	cmp    %r11,%r15
    419b:	75 ec                	jne    4189 <hidden_triplets.0+0x2ea9>
    419d:	41 83 fa 01          	cmp    $0x1,%r10d
    41a1:	7e 88                	jle    412b <hidden_triplets.0+0x2e4b>
    41a3:	4d 89 ea             	mov    %r13,%r10
    41a6:	41 bb 01 00 00 00    	mov    $0x1,%r11d
    41ac:	eb 10                	jmp    41be <hidden_triplets.0+0x2ede>
    41ae:	49 83 c3 01          	add    $0x1,%r11
    41b2:	4d 01 ca             	add    %r9,%r10
    41b5:	4d 39 df             	cmp    %r11,%r15
    41b8:	0f 8c 6d ff ff ff    	jl     412b <hidden_triplets.0+0x2e4b>
    41be:	43 8b 2c b2          	mov    (%r10,%r14,4),%ebp
    41c2:	41 39 2a             	cmp    %ebp,(%r10)
    41c5:	74 e7                	je     41ae <hidden_triplets.0+0x2ece>
    41c7:	89 9c 24 c0 00 00 00 	mov    %ebx,0xc0(%rsp)
    41ce:	4d 89 ea             	mov    %r13,%r10
    41d1:	41 bb 01 00 00 00    	mov    $0x1,%r11d
    41d7:	49 8d 2c 3e          	lea    (%r14,%rdi,1),%rbp
    41db:	eb 10                	jmp    41ed <hidden_triplets.0+0x2f0d>
    41dd:	49 83 c3 01          	add    $0x1,%r11
    41e1:	4d 01 ca             	add    %r9,%r10
    41e4:	4d 39 df             	cmp    %r11,%r15
    41e7:	0f 8c 3e ff ff ff    	jl     412b <hidden_triplets.0+0x2e4b>
    41ed:	41 8b 1c aa          	mov    (%r10,%rbp,4),%ebx
    41f1:	41 39 1a             	cmp    %ebx,(%r10)
    41f4:	74 e7                	je     41dd <hidden_triplets.0+0x2efd>
    41f6:	8b 9c 24 c0 00 00 00 	mov    0xc0(%rsp),%ebx
    41fd:	4c 89 ed             	mov    %r13,%rbp
    4200:	45 31 d2             	xor    %r10d,%r10d
    4203:	41 bb 01 00 00 00    	mov    $0x1,%r11d
    4209:	83 7d 00 01          	cmpl   $0x1,0x0(%rbp)
    420d:	41 83 da ff          	sbb    $0xffffffff,%r10d
    4211:	49 83 c3 01          	add    $0x1,%r11
    4215:	4c 01 cd             	add    %r9,%rbp
    4218:	4d 39 df             	cmp    %r11,%r15
    421b:	7d ec                	jge    4209 <hidden_triplets.0+0x2f29>
    421d:	41 83 fa 03          	cmp    $0x3,%r10d
    4221:	0f 8f 04 ff ff ff    	jg     412b <hidden_triplets.0+0x2e4b>
    4227:	89 84 24 c0 00 00 00 	mov    %eax,0xc0(%rsp)
    422e:	4c 8b 54 24 60       	mov    0x60(%rsp),%r10
    4233:	bd 01 00 00 00       	mov    $0x1,%ebp
    4238:	48 8b 84 24 98 00 00 	mov    0x98(%rsp),%rax
    423f:	00 
    4240:	45 8b 1a             	mov    (%r10),%r11d
    4243:	45 03 1c ba          	add    (%r10,%rdi,4),%r11d
    4247:	45 03 1c 82          	add    (%r10,%rax,4),%r11d
    424b:	41 83 fb 01          	cmp    $0x1,%r11d
    424f:	83 db ff             	sbb    $0xffffffff,%ebx
    4252:	48 83 c5 01          	add    $0x1,%rbp
    4256:	4d 01 ca             	add    %r9,%r10
    4259:	49 39 ef             	cmp    %rbp,%r15
    425c:	7d da                	jge    4238 <hidden_triplets.0+0x2f58>
    425e:	8b 84 24 c0 00 00 00 	mov    0xc0(%rsp),%eax
    4265:	83 fb 03             	cmp    $0x3,%ebx
    4268:	0f 85 bd fe ff ff    	jne    412b <hidden_triplets.0+0x2e4b>
    426e:	e9 b7 e9 ff ff       	jmp    2c2a <hidden_triplets.0+0x194a>
    4273:	0f 1f 44 00 00       	nopl   0x0(%rax,%rax,1)
    4278:	b8 01 00 00 00       	mov    $0x1,%eax
    427d:	e9 4e d9 ff ff       	jmp    1bd0 <hidden_triplets.0+0x8f0>
    4282:	48 8b 5c 24 30       	mov    0x30(%rsp),%rbx
    4287:	31 ed                	xor    %ebp,%ebp
    4289:	45 31 db             	xor    %r11d,%r11d
    428c:	83 3b 01             	cmpl   $0x1,(%rbx)
    428f:	83 dd ff             	sbb    $0xffffffff,%ebp
    4292:	49 83 c3 01          	add    $0x1,%r11
    4296:	48 01 fb             	add    %rdi,%rbx
    4299:	4d 39 df             	cmp    %r11,%r15
    429c:	75 ee                	jne    428c <hidden_triplets.0+0x2fac>
    429e:	83 fd 01             	cmp    $0x1,%ebp
    42a1:	0f 8e 71 ef ff ff    	jle    3218 <hidden_triplets.0+0x1f38>
    42a7:	4c 8b 5c 24 60       	mov    0x60(%rsp),%r11
    42ac:	bb 01 00 00 00       	mov    $0x1,%ebx
    42b1:	eb 10                	jmp    42c3 <hidden_triplets.0+0x2fe3>
    42b3:	48 83 c3 01          	add    $0x1,%rbx
    42b7:	49 01 fb             	add    %rdi,%r11
    42ba:	49 39 df             	cmp    %rbx,%r15
    42bd:	0f 8c 55 ef ff ff    	jl     3218 <hidden_triplets.0+0x1f38>
    42c3:	45 8b 34 b3          	mov    (%r11,%rsi,4),%r14d
    42c7:	45 39 33             	cmp    %r14d,(%r11)
    42ca:	74 e7                	je     42b3 <hidden_triplets.0+0x2fd3>
    42cc:	4c 8b 5c 24 30       	mov    0x30(%rsp),%r11
    42d1:	31 ed                	xor    %ebp,%ebp
    42d3:	31 db                	xor    %ebx,%ebx
    42d5:	41 83 3b 01          	cmpl   $0x1,(%r11)
    42d9:	83 dd ff             	sbb    $0xffffffff,%ebp
    42dc:	48 83 c3 01          	add    $0x1,%rbx
    42e0:	49 01 fb             	add    %rdi,%r11
    42e3:	49 39 df             	cmp    %rbx,%r15
    42e6:	75 ed                	jne    42d5 <hidden_triplets.0+0x2ff5>
    42e8:	83 fd 03             	cmp    $0x3,%ebp
    42eb:	0f 8f 27 ef ff ff    	jg     3218 <hidden_triplets.0+0x1f38>
    42f1:	48 8b 5c 24 98       	mov    -0x68(%rsp),%rbx
    42f6:	4c 8b 74 24 f8       	mov    -0x8(%rsp),%r14
    42fb:	4c 63 da             	movslq %edx,%r11
    42fe:	89 94 24 90 00 00 00 	mov    %edx,0x90(%rsp)
    4305:	48 89 84 24 f8 00 00 	mov    %rax,0xf8(%rsp)
    430c:	00 
    430d:	49 0f af db          	imul   %r11,%rbx
    4311:	48 03 5c 24 08       	add    0x8(%rsp),%rbx
    4316:	4d 0f af d8          	imul   %r8,%r11
    431a:	49 8d 1c 9e          	lea    (%r14,%rbx,4),%rbx
    431e:	48 89 9c 24 c0 00 00 	mov    %rbx,0xc0(%rsp)
    4325:	00 
    4326:	48 8b 5c 24 f0       	mov    -0x10(%rsp),%rbx
    432b:	4d 8d 34 1b          	lea    (%r11,%rbx,1),%r14
    432f:	eb 2f                	jmp    4360 <hidden_triplets.0+0x3080>
    4331:	0f 1f 80 00 00 00 00 	nopl   0x0(%rax)
    4338:	83 84 24 90 00 00 00 	addl   $0x1,0x90(%rsp)
    433f:	01 
    4340:	4c 8b 5c 24 48       	mov    0x48(%rsp),%r11
    4345:	4d 01 c6             	add    %r8,%r14
    4348:	8b 84 24 90 00 00 00 	mov    0x90(%rsp),%eax
    434f:	4c 01 9c 24 c0 00 00 	add    %r11,0xc0(%rsp)
    4356:	00 
    4357:	83 f8 0a             	cmp    $0xa,%eax
    435a:	0f 84 e5 02 00 00    	je     4645 <hidden_triplets.0+0x3365>
    4360:	48 8b 84 24 c0 00 00 	mov    0xc0(%rsp),%rax
    4367:	00 
    4368:	44 8b 18             	mov    (%rax),%r11d
    436b:	45 85 db             	test   %r11d,%r11d
    436e:	75 c8                	jne    4338 <hidden_triplets.0+0x3058>
    4370:	48 8b 84 24 80 00 00 	mov    0x80(%rsp),%rax
    4377:	00 
    4378:	4c 89 b4 24 b8 00 00 	mov    %r14,0xb8(%rsp)
    437f:	00 
    4380:	31 ed                	xor    %ebp,%ebp
    4382:	4a 8d 1c b0          	lea    (%rax,%r14,4),%rbx
    4386:	31 c0                	xor    %eax,%eax
    4388:	49 89 dc             	mov    %rbx,%r12
    438b:	41 83 3c 24 01       	cmpl   $0x1,(%r12)
    4390:	83 d8 ff             	sbb    $0xffffffff,%eax
    4393:	48 83 c5 01          	add    $0x1,%rbp
    4397:	49 01 fc             	add    %rdi,%r12
    439a:	49 39 ef             	cmp    %rbp,%r15
    439d:	75 ec                	jne    438b <hidden_triplets.0+0x30ab>
    439f:	83 f8 01             	cmp    $0x1,%eax
    43a2:	7e 94                	jle    4338 <hidden_triplets.0+0x3058>
    43a4:	48 8b 84 24 30 01 00 	mov    0x130(%rsp),%rax
    43ab:	00 
    43ac:	44 89 9c 24 98 00 00 	mov    %r11d,0x98(%rsp)
    43b3:	00 
    43b4:	41 bc 01 00 00 00    	mov    $0x1,%r12d
    43ba:	48 8b 6c 24 60       	mov    0x60(%rsp),%rbp
    43bf:	4c 01 f0             	add    %r14,%rax
    43c2:	eb 10                	jmp    43d4 <hidden_triplets.0+0x30f4>
    43c4:	49 83 c4 01          	add    $0x1,%r12
    43c8:	48 01 fd             	add    %rdi,%rbp
    43cb:	4d 39 e7             	cmp    %r12,%r15
    43ce:	0f 8c 64 ff ff ff    	jl     4338 <hidden_triplets.0+0x3058>
    43d4:	44 8b 5c 85 00       	mov    0x0(%rbp,%rax,4),%r11d
    43d9:	44 39 5d 00          	cmp    %r11d,0x0(%rbp)
    43dd:	74 e5                	je     43c4 <hidden_triplets.0+0x30e4>
    43df:	4c 8b 64 24 58       	mov    0x58(%rsp),%r12
    43e4:	44 8b 9c 24 98 00 00 	mov    0x98(%rsp),%r11d
    43eb:	00 
    43ec:	48 c7 84 24 98 00 00 	movq   $0x1,0x98(%rsp)
    43f3:	00 01 00 00 00 
    43f8:	48 8b 6c 24 30       	mov    0x30(%rsp),%rbp
    43fd:	4d 01 f4             	add    %r14,%r12
    4400:	4c 89 a4 24 18 01 00 	mov    %r12,0x118(%rsp)
    4407:	00 
    4408:	eb 1d                	jmp    4427 <hidden_triplets.0+0x3147>
    440a:	48 83 84 24 98 00 00 	addq   $0x1,0x98(%rsp)
    4411:	00 01 
    4413:	48 01 fd             	add    %rdi,%rbp
    4416:	4c 8b a4 24 98 00 00 	mov    0x98(%rsp),%r12
    441d:	00 
    441e:	4d 39 e7             	cmp    %r12,%r15
    4421:	0f 8c 11 ff ff ff    	jl     4338 <hidden_triplets.0+0x3058>
    4427:	4c 8b a4 24 18 01 00 	mov    0x118(%rsp),%r12
    442e:	00 
    442f:	46 8b 64 a5 00       	mov    0x0(%rbp,%r12,4),%r12d
    4434:	44 39 65 00          	cmp    %r12d,0x0(%rbp)
    4438:	74 d0                	je     440a <hidden_triplets.0+0x312a>
    443a:	31 ed                	xor    %ebp,%ebp
    443c:	41 bc 01 00 00 00    	mov    $0x1,%r12d
    4442:	83 3b 01             	cmpl   $0x1,(%rbx)
    4445:	83 dd ff             	sbb    $0xffffffff,%ebp
    4448:	49 83 c4 01          	add    $0x1,%r12
    444c:	48 01 fb             	add    %rdi,%rbx
    444f:	4d 39 e7             	cmp    %r12,%r15
    4452:	7d ee                	jge    4442 <hidden_triplets.0+0x3162>
    4454:	83 fd 03             	cmp    $0x3,%ebp
    4457:	0f 8f db fe ff ff    	jg     4338 <hidden_triplets.0+0x3058>
    445d:	48 8b 5c 24 60       	mov    0x60(%rsp),%rbx
    4462:	41 bc 01 00 00 00    	mov    $0x1,%r12d
    4468:	8b 2c b3             	mov    (%rbx,%rsi,4),%ebp
    446b:	03 2b                	add    (%rbx),%ebp
    446d:	03 2c 83             	add    (%rbx,%rax,4),%ebp
    4470:	83 fd 01             	cmp    $0x1,%ebp
    4473:	41 83 db ff          	sbb    $0xffffffff,%r11d
    4477:	49 83 c4 01          	add    $0x1,%r12
    447b:	48 01 fb             	add    %rdi,%rbx
    447e:	4d 39 e7             	cmp    %r12,%r15
    4481:	7d e5                	jge    4468 <hidden_triplets.0+0x3188>
    4483:	41 83 fb 03          	cmp    $0x3,%r11d
    4487:	0f 85 ab fe ff ff    	jne    4338 <hidden_triplets.0+0x3058>
    448d:	48 8b 84 24 f8 00 00 	mov    0xf8(%rsp),%rax
    4494:	00 
    4495:	e9 f2 f2 ff ff       	jmp    378c <hidden_triplets.0+0x24ac>
    449a:	66 0f 1f 44 00 00    	nopw   0x0(%rax,%rax,1)
    44a0:	ba 01 00 00 00       	mov    $0x1,%edx
    44a5:	e9 52 e1 ff ff       	jmp    25fc <hidden_triplets.0+0x131c>
    44aa:	b9 01 00 00 00       	mov    $0x1,%ecx
    44af:	e9 97 ec ff ff       	jmp    314b <hidden_triplets.0+0x1e6b>
    44b4:	31 ed                	xor    %ebp,%ebp
    44b6:	41 bb 01 00 00 00    	mov    $0x1,%r11d
    44bc:	e9 00 ee ff ff       	jmp    32c1 <hidden_triplets.0+0x1fe1>
    44c1:	41 ba 01 00 00 00    	mov    $0x1,%r10d
    44c7:	31 db                	xor    %ebx,%ebx
    44c9:	e9 97 e2 ff ff       	jmp    2765 <hidden_triplets.0+0x1485>
    44ce:	b8 01 00 00 00       	mov    $0x1,%eax
    44d3:	45 31 c0             	xor    %r8d,%r8d
    44d6:	e9 3a d9 ff ff       	jmp    1e15 <hidden_triplets.0+0xb35>
    44db:	41 ba 01 00 00 00    	mov    $0x1,%r10d
    44e1:	31 db                	xor    %ebx,%ebx
    44e3:	e9 21 e3 ff ff       	jmp    2809 <hidden_triplets.0+0x1529>
    44e8:	b8 01 00 00 00       	mov    $0x1,%eax
    44ed:	e9 df d9 ff ff       	jmp    1ed1 <hidden_triplets.0+0xbf1>
    44f2:	bb 01 00 00 00       	mov    $0x1,%ebx
    44f7:	31 c0                	xor    %eax,%eax
    44f9:	e9 b0 e4 ff ff       	jmp    29ae <hidden_triplets.0+0x16ce>
    44fe:	bb 01 00 00 00       	mov    $0x1,%ebx
    4503:	45 31 c9             	xor    %r9d,%r9d
    4506:	e9 e0 ef ff ff       	jmp    34eb <hidden_triplets.0+0x220b>
    450b:	48 8b 84 24 98 00 00 	mov    0x98(%rsp),%rax
    4512:	00 
    4513:	ba 01 00 00 00       	mov    $0x1,%edx
    4518:	eb 11                	jmp    452b <hidden_triplets.0+0x324b>
    451a:	48 83 c2 01          	add    $0x1,%rdx
    451e:	48 03 04 24          	add    (%rsp),%rax
    4522:	49 39 d1             	cmp    %rdx,%r9
    4525:	0f 8c 2d d8 ff ff    	jl     1d58 <hidden_triplets.0+0xa78>
    452b:	8b 0c a8             	mov    (%rax,%rbp,4),%ecx
    452e:	39 08                	cmp    %ecx,(%rax)
    4530:	74 e8                	je     451a <hidden_triplets.0+0x323a>
    4532:	e9 27 da ff ff       	jmp    1f5e <hidden_triplets.0+0xc7e>
    4537:	4c 8b 94 24 78 01 00 	mov    0x178(%rsp),%r10
    453e:	00 
    453f:	4c 8b ac 24 80 01 00 	mov    0x180(%rsp),%r13
    4546:	00 
    4547:	8b bc 24 08 01 00 00 	mov    0x108(%rsp),%edi
    454e:	4c 8b bc 24 88 01 00 	mov    0x188(%rsp),%r15
    4555:	00 
    4556:	e9 fd d7 ff ff       	jmp    1d58 <hidden_triplets.0+0xa78>
    455b:	8b b4 24 a4 01 00 00 	mov    0x1a4(%rsp),%esi
    4562:	e9 51 da ff ff       	jmp    1fb8 <hidden_triplets.0+0xcd8>
    4567:	ba 01 00 00 00       	mov    $0x1,%edx
    456c:	31 c0                	xor    %eax,%eax
    456e:	e9 b9 db ff ff       	jmp    212c <hidden_triplets.0+0xe4c>
    4573:	48 89 cb             	mov    %rcx,%rbx
    4576:	31 c0                	xor    %eax,%eax
    4578:	ba 01 00 00 00       	mov    $0x1,%edx
    457d:	83 3b 01             	cmpl   $0x1,(%rbx)
    4580:	83 d8 ff             	sbb    $0xffffffff,%eax
    4583:	48 83 c2 01          	add    $0x1,%rdx
    4587:	48 03 1c 24          	add    (%rsp),%rbx
    458b:	4c 39 ca             	cmp    %r9,%rdx
    458e:	7e ed                	jle    457d <hidden_triplets.0+0x329d>
    4590:	83 f8 01             	cmp    $0x1,%eax
    4593:	0f 8e be da ff ff    	jle    2057 <hidden_triplets.0+0xd77>
    4599:	48 8b 84 24 98 00 00 	mov    0x98(%rsp),%rax
    45a0:	00 
    45a1:	ba 01 00 00 00       	mov    $0x1,%edx
    45a6:	eb 11                	jmp    45b9 <hidden_triplets.0+0x32d9>
    45a8:	48 83 c2 01          	add    $0x1,%rdx
    45ac:	48 03 04 24          	add    (%rsp),%rax
    45b0:	49 39 d1             	cmp    %rdx,%r9
    45b3:	0f 8c 9e da ff ff    	jl     2057 <hidden_triplets.0+0xd77>
    45b9:	42 8b 34 b8          	mov    (%rax,%r15,4),%esi
    45bd:	39 30                	cmp    %esi,(%rax)
    45bf:	74 e7                	je     45a8 <hidden_triplets.0+0x32c8>
    45c1:	48 89 c8             	mov    %rcx,%rax
    45c4:	ba 01 00 00 00       	mov    $0x1,%edx
    45c9:	eb 11                	jmp    45dc <hidden_triplets.0+0x32fc>
    45cb:	48 83 c2 01          	add    $0x1,%rdx
    45cf:	48 03 04 24          	add    (%rsp),%rax
    45d3:	49 39 d1             	cmp    %rdx,%r9
    45d6:	0f 8c 7b da ff ff    	jl     2057 <hidden_triplets.0+0xd77>
    45dc:	8b 34 b8             	mov    (%rax,%rdi,4),%esi
    45df:	39 30                	cmp    %esi,(%rax)
    45e1:	74 e8                	je     45cb <hidden_triplets.0+0x32eb>
    45e3:	44 89 c0             	mov    %r8d,%eax
    45e6:	be 03 00 00 00       	mov    $0x3,%esi
    45eb:	99                   	cltd   
    45ec:	f7 fe                	idiv   %esi
    45ee:	39 84 24 b0 00 00 00 	cmp    %eax,0xb0(%rsp)
    45f5:	0f 85 5c da ff ff    	jne    2057 <hidden_triplets.0+0xd77>
    45fb:	48 89 cb             	mov    %rcx,%rbx
    45fe:	31 c0                	xor    %eax,%eax
    4600:	ba 01 00 00 00       	mov    $0x1,%edx
    4605:	83 3b 01             	cmpl   $0x1,(%rbx)
    4608:	83 d8 ff             	sbb    $0xffffffff,%eax
    460b:	48 83 c2 01          	add    $0x1,%rdx
    460f:	48 03 1c 24          	add    (%rsp),%rbx
    4613:	4c 39 ca             	cmp    %r9,%rdx
    4616:	7e ed                	jle    4605 <hidden_triplets.0+0x3325>
    4618:	e9 c3 db ff ff       	jmp    21e0 <hidden_triplets.0+0xf00>
    461d:	0f 1f 00             	nopl   (%rax)
    4620:	8b b4 24 28 01 00 00 	mov    0x128(%rsp),%esi
    4627:	e9 94 e0 ff ff       	jmp    26c0 <hidden_triplets.0+0x13e0>
    462c:	41 bb 01 00 00 00    	mov    $0x1,%r11d
    4632:	31 ed                	xor    %ebp,%ebp
    4634:	e9 6b ed ff ff       	jmp    33a4 <hidden_triplets.0+0x20c4>
    4639:	8b 94 24 18 01 00 00 	mov    0x118(%rsp),%edx
    4640:	e9 d3 eb ff ff       	jmp    3218 <hidden_triplets.0+0x1f38>
    4645:	48 8b 84 24 f8 00 00 	mov    0xf8(%rsp),%rax
    464c:	00 
    464d:	e9 c6 eb ff ff       	jmp    3218 <hidden_triplets.0+0x1f38>
    4652:	83 f8 03             	cmp    $0x3,%eax
    4655:	0f 8f 98 e2 ff ff    	jg     28f3 <hidden_triplets.0+0x1613>
    465b:	e9 98 e4 ff ff       	jmp    2af8 <hidden_triplets.0+0x1818>
    4660:	48 c7 44 24 70 01 00 	movq   $0x1,0x70(%rsp)
    4667:	00 00 
    4669:	e9 12 e5 ff ff       	jmp    2b80 <hidden_triplets.0+0x18a0>
    466e:	bb 01 00 00 00       	mov    $0x1,%ebx
    4673:	31 c0                	xor    %eax,%eax
    4675:	e9 3a e4 ff ff       	jmp    2ab4 <hidden_triplets.0+0x17d4>
    467a:	01 1d b8 99 02 00    	add    %ebx,0x299b8(%rip)        # 2e038 <__logic_MOD_naked3>
    4680:	4c 8b 5c 24 08       	mov    0x8(%rsp),%r11
    4685:	4c 3b 5c 24 58       	cmp    0x58(%rsp),%r11
    468a:	7f 40                	jg     46cc <hidden_triplets.0+0x33ec>
    468c:	48 8b 84 24 a0 00 00 	mov    0xa0(%rsp),%rax
    4693:	00 
    4694:	48 8b 54 24 f0       	mov    -0x10(%rsp),%rdx
    4699:	4a 8d 04 80          	lea    (%rax,%r8,4),%rax
    469d:	eb 18                	jmp    46b7 <hidden_triplets.0+0x33d7>
    469f:	8b 9c 24 30 01 00 00 	mov    0x130(%rsp),%ebx
    46a6:	39 18                	cmp    %ebx,(%rax)
    46a8:	75 06                	jne    46b0 <hidden_triplets.0+0x33d0>
    46aa:	c7 00 00 00 00 00    	movl   $0x0,(%rax)
    46b0:	48 83 c2 01          	add    $0x1,%rdx
    46b4:	4c 01 e0             	add    %r12,%rax
    46b7:	48 3b 94 24 c0 00 00 	cmp    0xc0(%rsp),%rdx
    46be:	00 
    46bf:	7e de                	jle    469f <hidden_triplets.0+0x33bf>
    46c1:	49 83 c3 01          	add    $0x1,%r11
    46c5:	4c 03 44 24 a8       	add    -0x58(%rsp),%r8
    46ca:	eb b9                	jmp    4685 <hidden_triplets.0+0x33a5>
    46cc:	48 89 8c 24 30 01 00 	mov    %rcx,0x130(%rsp)
    46d3:	00 
    46d4:	41 b8 01 00 00 00    	mov    $0x1,%r8d
    46da:	bb 00 00 00 80       	mov    $0x80000000,%ebx
    46df:	48 8b 94 24 98 00 00 	mov    0x98(%rsp),%rdx
    46e6:	00 
    46e7:	41 bb 01 00 00 00    	mov    $0x1,%r11d
    46ed:	48 8b 8c 24 08 01 00 	mov    0x108(%rsp),%rcx
    46f4:	00 
    46f5:	8b 02                	mov    (%rdx),%eax
    46f7:	03 04 aa             	add    (%rdx,%rbp,4),%eax
    46fa:	03 04 8a             	add    (%rdx,%rcx,4),%eax
    46fd:	39 d8                	cmp    %ebx,%eax
    46ff:	0f 8f 0d 02 00 00    	jg     4912 <hidden_triplets.0+0x3632>
    4705:	49 83 c0 01          	add    $0x1,%r8
    4709:	48 03 14 24          	add    (%rsp),%rdx
    470d:	4d 39 c1             	cmp    %r8,%r9
    4710:	7d db                	jge    46ed <hidden_triplets.0+0x340d>
    4712:	48 8b 5c 24 78       	mov    0x78(%rsp),%rbx
    4717:	49 63 c3             	movslq %r11d,%rax
    471a:	48 0f af 44 24 a0    	imul   -0x60(%rsp),%rax
    4720:	48 03 84 24 e8 00 00 	add    0xe8(%rsp),%rax
    4727:	00 
    4728:	48 8b 8c 24 30 01 00 	mov    0x130(%rsp),%rcx
    472f:	00 
    4730:	44 89 9c 24 30 01 00 	mov    %r11d,0x130(%rsp)
    4737:	00 
    4738:	4c 8d 04 18          	lea    (%rax,%rbx,1),%r8
    473c:	48 8b 44 24 08       	mov    0x8(%rsp),%rax
    4741:	31 db                	xor    %ebx,%ebx
    4743:	4d 89 c3             	mov    %r8,%r11
    4746:	48 89 84 24 38 01 00 	mov    %rax,0x138(%rsp)
    474d:	00 
    474e:	48 8b 94 24 38 01 00 	mov    0x138(%rsp),%rdx
    4755:	00 
    4756:	48 39 54 24 58       	cmp    %rdx,0x58(%rsp)
    475b:	7c 5c                	jl     47b9 <hidden_triplets.0+0x34d9>
    475d:	48 8b 84 24 a0 00 00 	mov    0xa0(%rsp),%rax
    4764:	00 
    4765:	48 89 8c 24 78 01 00 	mov    %rcx,0x178(%rsp)
    476c:	00 
    476d:	4a 8d 14 98          	lea    (%rax,%r11,4),%rdx
    4771:	48 8b 44 24 f0       	mov    -0x10(%rsp),%rax
    4776:	eb 15                	jmp    478d <hidden_triplets.0+0x34ad>
    4778:	8b 8c 24 30 01 00 00 	mov    0x130(%rsp),%ecx
    477f:	39 0a                	cmp    %ecx,(%rdx)
    4781:	75 03                	jne    4786 <hidden_triplets.0+0x34a6>
    4783:	83 c3 01             	add    $0x1,%ebx
    4786:	48 83 c0 01          	add    $0x1,%rax
    478a:	4c 01 e2             	add    %r12,%rdx
    478d:	48 39 84 24 c0 00 00 	cmp    %rax,0xc0(%rsp)
    4794:	00 
    4795:	7d e1                	jge    4778 <hidden_triplets.0+0x3498>
    4797:	48 83 84 24 38 01 00 	addq   $0x1,0x138(%rsp)
    479e:	00 01 
    47a0:	48 8b 8c 24 78 01 00 	mov    0x178(%rsp),%rcx
    47a7:	00 
    47a8:	4c 03 5c 24 a8       	add    -0x58(%rsp),%r11
    47ad:	eb 9f                	jmp    474e <hidden_triplets.0+0x346e>
    47af:	89 c3                	mov    %eax,%ebx
    47b1:	4d 89 c3             	mov    %r8,%r11
    47b4:	e9 5c db ff ff       	jmp    2315 <hidden_triplets.0+0x1035>
    47b9:	01 1d 79 98 02 00    	add    %ebx,0x29879(%rip)        # 2e038 <__logic_MOD_naked3>
    47bf:	4c 8b 5c 24 08       	mov    0x8(%rsp),%r11
    47c4:	4c 39 5c 24 58       	cmp    %r11,0x58(%rsp)
    47c9:	7c 40                	jl     480b <hidden_triplets.0+0x352b>
    47cb:	48 8b 84 24 a0 00 00 	mov    0xa0(%rsp),%rax
    47d2:	00 
    47d3:	48 8b 54 24 f0       	mov    -0x10(%rsp),%rdx
    47d8:	4a 8d 04 80          	lea    (%rax,%r8,4),%rax
    47dc:	eb 18                	jmp    47f6 <hidden_triplets.0+0x3516>
    47de:	8b 9c 24 30 01 00 00 	mov    0x130(%rsp),%ebx
    47e5:	39 18                	cmp    %ebx,(%rax)
    47e7:	75 06                	jne    47ef <hidden_triplets.0+0x350f>
    47e9:	c7 00 00 00 00 00    	movl   $0x0,(%rax)
    47ef:	48 83 c2 01          	add    $0x1,%rdx
    47f3:	4c 01 e0             	add    %r12,%rax
    47f6:	48 3b 94 24 c0 00 00 	cmp    0xc0(%rsp),%rdx
    47fd:	00 
    47fe:	7e de                	jle    47de <hidden_triplets.0+0x34fe>
    4800:	49 83 c3 01          	add    $0x1,%r11
    4804:	4c 03 44 24 a8       	add    -0x58(%rsp),%r8
    4809:	eb b9                	jmp    47c4 <hidden_triplets.0+0x34e4>
    480b:	48 89 8c 24 30 01 00 	mov    %rcx,0x130(%rsp)
    4812:	00 
    4813:	48 8b 94 24 98 00 00 	mov    0x98(%rsp),%rdx
    481a:	00 
    481b:	bb 01 00 00 00       	mov    $0x1,%ebx
    4820:	41 b8 01 00 00 00    	mov    $0x1,%r8d
    4826:	41 bb 00 00 00 80    	mov    $0x80000000,%r11d
    482c:	48 8b 8c 24 08 01 00 	mov    0x108(%rsp),%rcx
    4833:	00 
    4834:	8b 02                	mov    (%rdx),%eax
    4836:	03 04 aa             	add    (%rdx,%rbp,4),%eax
    4839:	03 04 8a             	add    (%rdx,%rcx,4),%eax
    483c:	44 39 d8             	cmp    %r11d,%eax
    483f:	0f 8f d7 00 00 00    	jg     491c <hidden_triplets.0+0x363c>
    4845:	49 83 c0 01          	add    $0x1,%r8
    4849:	48 03 14 24          	add    (%rsp),%rdx
    484d:	4d 39 c1             	cmp    %r8,%r9
    4850:	7d da                	jge    482c <hidden_triplets.0+0x354c>
    4852:	48 8b 8c 24 30 01 00 	mov    0x130(%rsp),%rcx
    4859:	00 
    485a:	41 89 db             	mov    %ebx,%r11d
    485d:	49 83 c8 ff          	or     $0xffffffffffffffff,%r8
    4861:	c7 84 24 08 01 00 00 	movl   $0x0,0x108(%rsp)
    4868:	00 00 00 00 
    486c:	48 89 ca             	mov    %rcx,%rdx
    486f:	31 c0                	xor    %eax,%eax
    4871:	83 7c 82 dc 00       	cmpl   $0x0,-0x24(%rdx,%rax,4)
    4876:	74 08                	je     4880 <hidden_triplets.0+0x35a0>
    4878:	83 84 24 08 01 00 00 	addl   $0x1,0x108(%rsp)
    487f:	01 
    4880:	48 83 c0 01          	add    $0x1,%rax
    4884:	48 83 f8 09          	cmp    $0x9,%rax
    4888:	75 e7                	jne    4871 <hidden_triplets.0+0x3591>
    488a:	49 83 c0 09          	add    $0x9,%r8
    488e:	48 83 c2 24          	add    $0x24,%rdx
    4892:	49 83 f8 1a          	cmp    $0x1a,%r8
    4896:	75 d7                	jne    486f <hidden_triplets.0+0x358f>
    4898:	48 8b 5c 24 78       	mov    0x78(%rsp),%rbx
    489d:	49 63 c3             	movslq %r11d,%rax
    48a0:	48 0f af 44 24 a0    	imul   -0x60(%rsp),%rax
    48a6:	48 03 84 24 e8 00 00 	add    0xe8(%rsp),%rax
    48ad:	00 
    48ae:	4c 8d 04 18          	lea    (%rax,%rbx,1),%r8
    48b2:	48 8b 44 24 08       	mov    0x8(%rsp),%rax
    48b7:	4c 89 c3             	mov    %r8,%rbx
    48ba:	48 89 84 24 30 01 00 	mov    %rax,0x130(%rsp)
    48c1:	00 
    48c2:	48 8b 94 24 30 01 00 	mov    0x130(%rsp),%rdx
    48c9:	00 
    48ca:	48 39 54 24 58       	cmp    %rdx,0x58(%rsp)
    48cf:	7c 61                	jl     4932 <hidden_triplets.0+0x3652>
    48d1:	48 8b 84 24 a0 00 00 	mov    0xa0(%rsp),%rax
    48d8:	00 
    48d9:	48 8d 14 98          	lea    (%rax,%rbx,4),%rdx
    48dd:	48 8b 44 24 f0       	mov    -0x10(%rsp),%rax
    48e2:	eb 14                	jmp    48f8 <hidden_triplets.0+0x3618>
    48e4:	44 39 1a             	cmp    %r11d,(%rdx)
    48e7:	75 08                	jne    48f1 <hidden_triplets.0+0x3611>
    48e9:	83 84 24 40 01 00 00 	addl   $0x1,0x140(%rsp)
    48f0:	01 
    48f1:	48 83 c0 01          	add    $0x1,%rax
    48f5:	4c 01 e2             	add    %r12,%rdx
    48f8:	48 3b 84 24 c0 00 00 	cmp    0xc0(%rsp),%rax
    48ff:	00 
    4900:	7e e2                	jle    48e4 <hidden_triplets.0+0x3604>
    4902:	48 83 84 24 30 01 00 	addq   $0x1,0x130(%rsp)
    4909:	00 01 
    490b:	48 03 5c 24 a8       	add    -0x58(%rsp),%rbx
    4910:	eb b0                	jmp    48c2 <hidden_triplets.0+0x35e2>
    4912:	89 c3                	mov    %eax,%ebx
    4914:	4d 89 c3             	mov    %r8,%r11
    4917:	e9 e9 fd ff ff       	jmp    4705 <hidden_triplets.0+0x3425>
    491c:	41 89 c3             	mov    %eax,%r11d
    491f:	4c 89 c3             	mov    %r8,%rbx
    4922:	e9 1e ff ff ff       	jmp    4845 <hidden_triplets.0+0x3565>
    4927:	44 89 d3             	mov    %r10d,%ebx
    492a:	49 89 ee             	mov    %rbp,%r14
    492d:	e9 ae e3 ff ff       	jmp    2ce0 <hidden_triplets.0+0x1a00>
    4932:	8b 84 24 40 01 00 00 	mov    0x140(%rsp),%eax
    4939:	03 05 f9 96 02 00    	add    0x296f9(%rip),%eax        # 2e038 <__logic_MOD_naked3>
    493f:	2b 84 24 08 01 00 00 	sub    0x108(%rsp),%eax
    4946:	48 8b 5c 24 08       	mov    0x8(%rsp),%rbx
    494b:	89 05 e7 96 02 00    	mov    %eax,0x296e7(%rip)        # 2e038 <__logic_MOD_naked3>
    4951:	48 3b 5c 24 58       	cmp    0x58(%rsp),%rbx
    4956:	7f 3a                	jg     4992 <hidden_triplets.0+0x36b2>
    4958:	48 8b 84 24 a0 00 00 	mov    0xa0(%rsp),%rax
    495f:	00 
    4960:	48 8b 54 24 f0       	mov    -0x10(%rsp),%rdx
    4965:	4a 8d 04 80          	lea    (%rax,%r8,4),%rax
    4969:	eb 12                	jmp    497d <hidden_triplets.0+0x369d>
    496b:	44 39 18             	cmp    %r11d,(%rax)
    496e:	75 06                	jne    4976 <hidden_triplets.0+0x3696>
    4970:	c7 00 00 00 00 00    	movl   $0x0,(%rax)
    4976:	48 83 c2 01          	add    $0x1,%rdx
    497a:	4c 01 e0             	add    %r12,%rax
    497d:	48 39 94 24 c0 00 00 	cmp    %rdx,0xc0(%rsp)
    4984:	00 
    4985:	7d e4                	jge    496b <hidden_triplets.0+0x368b>
    4987:	48 83 c3 01          	add    $0x1,%rbx
    498b:	4c 03 44 24 a8       	add    -0x58(%rsp),%r8
    4990:	eb bf                	jmp    4951 <hidden_triplets.0+0x3671>
    4992:	48 8b 94 24 98 00 00 	mov    0x98(%rsp),%rdx
    4999:	00 
    499a:	4c 8b 9c 24 50 01 00 	mov    0x150(%rsp),%r11
    49a1:	00 
    49a2:	31 c0                	xor    %eax,%eax
    49a4:	45 8b 04 83          	mov    (%r11,%rax,4),%r8d
    49a8:	48 83 c0 01          	add    $0x1,%rax
    49ac:	44 89 02             	mov    %r8d,(%rdx)
    49af:	48 03 14 24          	add    (%rsp),%rdx
    49b3:	48 83 f8 09          	cmp    $0x9,%rax
    49b7:	75 eb                	jne    49a4 <hidden_triplets.0+0x36c4>
    49b9:	4c 89 d2             	mov    %r10,%rdx
    49bc:	31 c0                	xor    %eax,%eax
    49be:	44 8b 04 01          	mov    (%rcx,%rax,1),%r8d
    49c2:	48 83 c0 04          	add    $0x4,%rax
    49c6:	44 89 02             	mov    %r8d,(%rdx)
    49c9:	48 03 14 24          	add    (%rsp),%rdx
    49cd:	48 83 f8 24          	cmp    $0x24,%rax
    49d1:	75 eb                	jne    49be <hidden_triplets.0+0x36de>
    49d3:	48 8b 8c 24 48 01 00 	mov    0x148(%rsp),%rcx
    49da:	00 
    49db:	31 c0                	xor    %eax,%eax
    49dd:	8b 14 01             	mov    (%rcx,%rax,1),%edx
    49e0:	48 83 c0 04          	add    $0x4,%rax
    49e4:	89 16                	mov    %edx,(%rsi)
    49e6:	48 03 34 24          	add    (%rsp),%rsi
    49ea:	48 83 f8 24          	cmp    $0x24,%rax
    49ee:	75 ed                	jne    49dd <hidden_triplets.0+0x36fd>
    49f0:	e9 63 d3 ff ff       	jmp    1d58 <hidden_triplets.0+0xa78>
    49f5:	44 89 d3             	mov    %r10d,%ebx
    49f8:	49 89 ee             	mov    %rbp,%r14
    49fb:	e9 84 e3 ff ff       	jmp    2d84 <hidden_triplets.0+0x1aa4>
    4a00:	44 89 d3             	mov    %r10d,%ebx
    4a03:	49 89 ee             	mov    %rbp,%r14
    4a06:	e9 1d e4 ff ff       	jmp    2e28 <hidden_triplets.0+0x1b48>
    4a0b:	0f 1f 44 00 00       	nopl   0x0(%rax,%rax,1)
    4a10:	41 83 f9 03          	cmp    $0x3,%r9d
    4a14:	0f 8f 1e ea ff ff    	jg     3438 <hidden_triplets.0+0x2158>
    4a1a:	e9 1a ec ff ff       	jmp    3639 <hidden_triplets.0+0x2359>
    4a1f:	48 c7 84 24 90 00 00 	movq   $0x1,0x90(%rsp)
    4a26:	00 01 00 00 00 
    4a2b:	e9 98 ec ff ff       	jmp    36c8 <hidden_triplets.0+0x23e8>
    4a30:	bb 01 00 00 00       	mov    $0x1,%ebx
    4a35:	45 31 c9             	xor    %r9d,%r9d
    4a38:	e9 b4 eb ff ff       	jmp    35f1 <hidden_triplets.0+0x2311>
    4a3d:	44 89 9c 24 90 00 00 	mov    %r11d,0x90(%rsp)
    4a44:	00 
    4a45:	49 89 ec             	mov    %rbp,%r12
    4a48:	e9 0a ee ff ff       	jmp    3857 <hidden_triplets.0+0x2577>
    4a4d:	48 89 ac 24 90 00 00 	mov    %rbp,0x90(%rsp)
    4a54:	00 
    4a55:	45 89 dc             	mov    %r11d,%r12d
    4a58:	e9 c5 ee ff ff       	jmp    3922 <hidden_triplets.0+0x2642>
    4a5d:	48 89 ac 24 90 00 00 	mov    %rbp,0x90(%rsp)
    4a64:	00 
    4a65:	45 89 dc             	mov    %r11d,%r12d
    4a68:	e9 ff ef ff ff       	jmp    3a6c <hidden_triplets.0+0x278c>
    4a6d:	0f 1f 00             	nopl   (%rax)

0000000000004a70 <naked_triplets.1>:
    4a70:	41 57                	push   %r15
    4a72:	41 56                	push   %r14
    4a74:	41 55                	push   %r13
    4a76:	41 54                	push   %r12
    4a78:	55                   	push   %rbp
    4a79:	53                   	push   %rbx
    4a7a:	48 81 ec f0 02 00 00 	sub    $0x2f0,%rsp
    4a81:	49 8b 72 60          	mov    0x60(%r10),%rsi
    4a85:	49 8b 52 58          	mov    0x58(%r10),%rdx
    4a89:	41 c7 42 7c 01 00 00 	movl   $0x1,0x7c(%r10)
    4a90:	00 
    4a91:	49 8b 42 70          	mov    0x70(%r10),%rax
    4a95:	4d 8b 62 50          	mov    0x50(%r10),%r12
    4a99:	4c 89 94 24 e8 00 00 	mov    %r10,0xe8(%rsp)
    4aa0:	00 
    4aa1:	4c 8d 34 95 00 00 00 	lea    0x0(,%rdx,4),%r14
    4aa8:	00 
    4aa9:	49 8b 6a 30          	mov    0x30(%r10),%rbp
    4aad:	4d 8b 7a 48          	mov    0x48(%r10),%r15
    4ab1:	48 89 74 24 c0       	mov    %rsi,-0x40(%rsp)
    4ab6:	49 8b 4a 28          	mov    0x28(%r10),%rcx
    4aba:	49 8b 7a 68          	mov    0x68(%r10),%rdi
    4abe:	48 89 84 24 a0 00 00 	mov    %rax,0xa0(%rsp)
    4ac5:	00 
    4ac6:	48 01 f0             	add    %rsi,%rax
    4ac9:	49 8b 5a 40          	mov    0x40(%r10),%rbx
    4acd:	4d 8b 4a 38          	mov    0x38(%r10),%r9
    4ad1:	4c 89 74 24 88       	mov    %r14,-0x78(%rsp)
    4ad6:	49 89 f6             	mov    %rsi,%r14
    4ad9:	48 89 c6             	mov    %rax,%rsi
    4adc:	4d 8b 5a 20          	mov    0x20(%r10),%r11
    4ae0:	4d 8b 6a 18          	mov    0x18(%r10),%r13
    4ae4:	48 89 6c 24 98       	mov    %rbp,-0x68(%rsp)
    4ae9:	48 89 84 24 48 01 00 	mov    %rax,0x148(%rsp)
    4af0:	00 
    4af1:	48 89 d0             	mov    %rdx,%rax
    4af4:	4e 8d 34 b5 00 00 00 	lea    0x0(,%r14,4),%r14
    4afb:	00 
    4afc:	48 01 f0             	add    %rsi,%rax
    4aff:	48 89 ee             	mov    %rbp,%rsi
    4b02:	4c 01 fd             	add    %r15,%rbp
    4b05:	48 89 7c 24 a0       	mov    %rdi,-0x60(%rsp)
    4b0a:	49 8d 04 84          	lea    (%r12,%rax,4),%rax
    4b0e:	48 89 5c 24 d8       	mov    %rbx,-0x28(%rsp)
    4b13:	48 89 4c 24 c8       	mov    %rcx,-0x38(%rsp)
    4b18:	48 89 54 24 e0       	mov    %rdx,-0x20(%rsp)
    4b1d:	4c 89 7c 24 e8       	mov    %r15,-0x18(%rsp)
    4b22:	4c 89 0c 24          	mov    %r9,(%rsp)
    4b26:	48 89 44 24 a8       	mov    %rax,-0x58(%rsp)
    4b2b:	48 89 e8             	mov    %rbp,%rax
    4b2e:	66 0f 6f 1d ba 66 02 	movdqa 0x266ba(%rip),%xmm3        # 2b1f0 <A.361.27+0x1a8>
    4b35:	00 
    4b36:	48 89 ac 24 60 01 00 	mov    %rbp,0x160(%rsp)
    4b3d:	00 
    4b3e:	48 89 f5             	mov    %rsi,%rbp
    4b41:	48 f7 dd             	neg    %rbp
    4b44:	4c 89 b4 24 40 01 00 	mov    %r14,0x140(%rsp)
    4b4b:	00 
    4b4c:	48 89 ac 24 00 02 00 	mov    %rbp,0x200(%rsp)
    4b53:	00 
    4b54:	48 89 c5             	mov    %rax,%rbp
    4b57:	48 01 c8             	add    %rcx,%rax
    4b5a:	48 f7 d8             	neg    %rax
    4b5d:	48 89 54 24 b0       	mov    %rdx,-0x50(%rsp)
    4b62:	49 89 e8             	mov    %rbp,%r8
    4b65:	48 89 44 24 f8       	mov    %rax,-0x8(%rsp)
    4b6a:	48 8d 47 ff          	lea    -0x1(%rdi),%rax
    4b6e:	48 89 84 24 90 00 00 	mov    %rax,0x90(%rsp)
    4b75:	00 
    4b76:	48 89 f8             	mov    %rdi,%rax
    4b79:	48 c1 ef 02          	shr    $0x2,%rdi
    4b7d:	48 89 bc 24 98 00 00 	mov    %rdi,0x98(%rsp)
    4b84:	00 
    4b85:	48 89 c7             	mov    %rax,%rdi
    4b88:	48 83 e7 fc          	and    $0xfffffffffffffffc,%rdi
    4b8c:	49 83 f9 01          	cmp    $0x1,%r9
    4b90:	4c 89 6c 24 d0       	mov    %r13,-0x30(%rsp)
    4b95:	48 8d 47 01          	lea    0x1(%rdi),%rax
    4b99:	0f 95 44 24 60       	setne  0x60(%rsp)
    4b9e:	48 83 f9 01          	cmp    $0x1,%rcx
    4ba2:	0f b6 74 24 60       	movzbl 0x60(%rsp),%esi
    4ba7:	48 89 84 24 d8 00 00 	mov    %rax,0xd8(%rsp)
    4bae:	00 
    4baf:	0f 95 c0             	setne  %al
    4bb2:	09 f0                	or     %esi,%eax
    4bb4:	48 89 bc 24 a8 00 00 	mov    %rdi,0xa8(%rsp)
    4bbb:	00 
    4bbc:	88 84 24 d0 00 00 00 	mov    %al,0xd0(%rsp)
    4bc3:	48 8d 04 8d 00 00 00 	lea    0x0(,%rcx,4),%rax
    4bca:	00 
    4bcb:	4c 01 c9             	add    %r9,%rcx
    4bce:	48 89 84 24 58 01 00 	mov    %rax,0x158(%rsp)
    4bd5:	00 
    4bd6:	49 8d 04 8b          	lea    (%r11,%rcx,4),%rax
    4bda:	48 89 84 24 50 01 00 	mov    %rax,0x150(%rsp)
    4be1:	00 
    4be2:	4a 8d 04 8d 00 00 00 	lea    0x0(,%r9,4),%rax
    4be9:	00 
    4bea:	48 89 84 24 80 00 00 	mov    %rax,0x80(%rsp)
    4bf1:	00 
    4bf2:	4c 01 d8             	add    %r11,%rax
    4bf5:	48 89 84 24 38 01 00 	mov    %rax,0x138(%rsp)
    4bfc:	00 
    4bfd:	48 8d 43 ff          	lea    -0x1(%rbx),%rax
    4c01:	48 89 44 24 30       	mov    %rax,0x30(%rsp)
    4c06:	48 89 d8             	mov    %rbx,%rax
    4c09:	48 c1 eb 02          	shr    $0x2,%rbx
    4c0d:	48 89 c6             	mov    %rax,%rsi
    4c10:	48 89 5c 24 38       	mov    %rbx,0x38(%rsp)
    4c15:	48 83 e6 fc          	and    $0xfffffffffffffffc,%rsi
    4c19:	c7 44 24 10 09 00 00 	movl   $0x9,0x10(%rsp)
    4c20:	00 
    4c21:	48 89 74 24 40       	mov    %rsi,0x40(%rsp)
    4c26:	48 83 c6 01          	add    $0x1,%rsi
    4c2a:	48 85 c0             	test   %rax,%rax
    4c2d:	48 89 74 24 58       	mov    %rsi,0x58(%rsp)
    4c32:	48 89 c6             	mov    %rax,%rsi
    4c35:	b8 01 00 00 00       	mov    $0x1,%eax
    4c3a:	48 0f 4f c6          	cmovg  %rsi,%rax
    4c3e:	4c 89 64 24 20       	mov    %r12,0x20(%rsp)
    4c43:	4d 89 f4             	mov    %r14,%r12
    4c46:	48 89 c3             	mov    %rax,%rbx
    4c49:	48 89 84 24 08 01 00 	mov    %rax,0x108(%rsp)
    4c50:	00 
    4c51:	48 83 e0 fc          	and    $0xfffffffffffffffc,%rax
    4c55:	48 89 84 24 18 01 00 	mov    %rax,0x118(%rsp)
    4c5c:	00 
    4c5d:	48 83 c0 01          	add    $0x1,%rax
    4c61:	48 c1 eb 02          	shr    $0x2,%rbx
    4c65:	48 89 84 24 20 01 00 	mov    %rax,0x120(%rsp)
    4c6c:	00 
    4c6d:	49 8d 45 ff          	lea    -0x1(%r13),%rax
    4c71:	48 89 44 24 68       	mov    %rax,0x68(%rsp)
    4c76:	4c 89 e8             	mov    %r13,%rax
    4c79:	48 c1 e8 02          	shr    $0x2,%rax
    4c7d:	48 89 9c 24 10 01 00 	mov    %rbx,0x110(%rsp)
    4c84:	00 
    4c85:	4c 89 db             	mov    %r11,%rbx
    4c88:	49 89 f3             	mov    %rsi,%r11
    4c8b:	48 89 44 24 70       	mov    %rax,0x70(%rsp)
    4c90:	4c 89 e8             	mov    %r13,%rax
    4c93:	48 83 e0 fc          	and    $0xfffffffffffffffc,%rax
    4c97:	48 89 44 24 78       	mov    %rax,0x78(%rsp)
    4c9c:	48 83 c0 01          	add    $0x1,%rax
    4ca0:	48 89 84 24 88 00 00 	mov    %rax,0x88(%rsp)
    4ca7:	00 
    4ca8:	48 8b 84 24 a0 00 00 	mov    0xa0(%rsp),%rax
    4caf:	00 
    4cb0:	48 03 44 24 b0       	add    -0x50(%rsp),%rax
    4cb5:	48 83 7c 24 a0 00    	cmpq   $0x0,-0x60(%rsp)
    4cbb:	48 89 44 24 b8       	mov    %rax,-0x48(%rsp)
    4cc0:	0f 8e c9 0b 00 00    	jle    588f <naked_triplets.1+0xe1f>
    4cc6:	48 83 7c 24 c0 01    	cmpq   $0x1,-0x40(%rsp)
    4ccc:	0f 85 7c 16 00 00    	jne    634e <naked_triplets.1+0x18de>
    4cd2:	48 83 bc 24 90 00 00 	cmpq   $0x2,0x90(%rsp)
    4cd9:	00 02 
    4cdb:	0f 86 28 1a 00 00    	jbe    6709 <naked_triplets.1+0x1c99>
    4ce1:	48 8b 44 24 a8       	mov    -0x58(%rsp),%rax
    4ce6:	66 0f ef c9          	pxor   %xmm1,%xmm1
    4cea:	48 8b b4 24 98 00 00 	mov    0x98(%rsp),%rsi
    4cf1:	00 
    4cf2:	66 0f 6f d1          	movdqa %xmm1,%xmm2
    4cf6:	4c 29 e0             	sub    %r12,%rax
    4cf9:	48 8d 48 04          	lea    0x4(%rax),%rcx
    4cfd:	31 c0                	xor    %eax,%eax
    4cff:	90                   	nop
    4d00:	48 89 c2             	mov    %rax,%rdx
    4d03:	48 83 c0 01          	add    $0x1,%rax
    4d07:	48 c1 e2 04          	shl    $0x4,%rdx
    4d0b:	f3 0f 6f 04 11       	movdqu (%rcx,%rdx,1),%xmm0
    4d10:	66 0f 76 c2          	pcmpeqd %xmm2,%xmm0
    4d14:	66 0f fa c8          	psubd  %xmm0,%xmm1
    4d18:	48 39 c6             	cmp    %rax,%rsi
    4d1b:	75 e3                	jne    4d00 <naked_triplets.1+0x290>
    4d1d:	66 0f 6f c1          	movdqa %xmm1,%xmm0
    4d21:	48 8b bc 24 a8 00 00 	mov    0xa8(%rsp),%rdi
    4d28:	00 
    4d29:	66 0f 73 d8 08       	psrldq $0x8,%xmm0
    4d2e:	66 0f fe c8          	paddd  %xmm0,%xmm1
    4d32:	66 0f 6f c1          	movdqa %xmm1,%xmm0
    4d36:	66 0f 73 d8 04       	psrldq $0x4,%xmm0
    4d3b:	66 0f fe c8          	paddd  %xmm0,%xmm1
    4d3f:	66 0f 7e c8          	movd   %xmm1,%eax
    4d43:	48 39 7c 24 a0       	cmp    %rdi,-0x60(%rsp)
    4d48:	74 48                	je     4d92 <naked_triplets.1+0x322>
    4d4a:	48 8b 94 24 d8 00 00 	mov    0xd8(%rsp),%rdx
    4d51:	00 
    4d52:	48 8b 74 24 b8       	mov    -0x48(%rsp),%rsi
    4d57:	48 8b 7c 24 20       	mov    0x20(%rsp),%rdi
    4d5c:	4c 8b 4c 24 a0       	mov    -0x60(%rsp),%r9
    4d61:	48 8d 0c 32          	lea    (%rdx,%rsi,1),%rcx
    4d65:	83 3c 8f 01          	cmpl   $0x1,(%rdi,%rcx,4)
    4d69:	48 8d 4a 01          	lea    0x1(%rdx),%rcx
    4d6d:	83 d0 00             	adc    $0x0,%eax
    4d70:	49 39 c9             	cmp    %rcx,%r9
    4d73:	7c 1d                	jl     4d92 <naked_triplets.1+0x322>
    4d75:	48 01 f1             	add    %rsi,%rcx
    4d78:	83 3c 8f 01          	cmpl   $0x1,(%rdi,%rcx,4)
    4d7c:	83 d0 00             	adc    $0x0,%eax
    4d7f:	48 83 c2 02          	add    $0x2,%rdx
    4d83:	49 39 d1             	cmp    %rdx,%r9
    4d86:	7c 0a                	jl     4d92 <naked_triplets.1+0x322>
    4d88:	48 01 f2             	add    %rsi,%rdx
    4d8b:	83 3c 97 01          	cmpl   $0x1,(%rdi,%rdx,4)
    4d8f:	83 d0 00             	adc    $0x0,%eax
    4d92:	83 f8 03             	cmp    $0x3,%eax
    4d95:	0f 85 f4 0a 00 00    	jne    588f <naked_triplets.1+0xe1f>
    4d9b:	48 8b 7c 24 88       	mov    -0x78(%rsp),%rdi
    4da0:	48 01 7c 24 a8       	add    %rdi,-0x58(%rsp)
    4da5:	48 8b 7c 24 e0       	mov    -0x20(%rsp),%rdi
    4daa:	48 01 7c 24 b0       	add    %rdi,-0x50(%rsp)
    4daf:	48 8b 7c 24 98       	mov    -0x68(%rsp),%rdi
    4db4:	48 29 7c 24 f8       	sub    %rdi,-0x8(%rsp)
    4db9:	49 01 f8             	add    %rdi,%r8
    4dbc:	83 6c 24 10 01       	subl   $0x1,0x10(%rsp)
    4dc1:	0f 85 e1 fe ff ff    	jne    4ca8 <naked_triplets.1+0x238>
    4dc7:	49 89 db             	mov    %rbx,%r11
    4dca:	48 83 7c 24 e0 01    	cmpq   $0x1,-0x20(%rsp)
    4dd0:	4c 8b 64 24 20       	mov    0x20(%rsp),%r12
    4dd5:	48 8b 9c 24 e8 00 00 	mov    0xe8(%rsp),%rbx
    4ddc:	00 
    4ddd:	48 8b 05 bc 63 02 00 	mov    0x263bc(%rip),%rax        # 2b1a0 <A.361.27+0x158>
    4de4:	48 8b 73 10          	mov    0x10(%rbx),%rsi
    4de8:	4c 8b 53 08          	mov    0x8(%rbx),%r10
    4dec:	48 89 43 78          	mov    %rax,0x78(%rbx)
    4df0:	0f 95 c0             	setne  %al
    4df3:	0a 44 24 60          	or     0x60(%rsp),%al
    4df7:	48 89 74 24 90       	mov    %rsi,-0x70(%rsp)
    4dfc:	0f 85 6a 1e 00 00    	jne    6c6c <naked_triplets.1+0x21fc>
    4e02:	48 83 7c 24 98 01    	cmpq   $0x1,-0x68(%rsp)
    4e08:	0f 85 5e 1e 00 00    	jne    6c6c <naked_triplets.1+0x21fc>
    4e0e:	48 8b 7c 24 c8       	mov    -0x38(%rsp),%rdi
    4e13:	48 8b 44 24 e8       	mov    -0x18(%rsp),%rax
    4e18:	c7 44 24 f8 09 00 00 	movl   $0x9,-0x8(%rsp)
    4e1f:	00 
    4e20:	48 8b b4 24 48 01 00 	mov    0x148(%rsp),%rsi
    4e27:	00 
    4e28:	4c 89 94 24 a8 00 00 	mov    %r10,0xa8(%rsp)
    4e2f:	00 
    4e30:	48 01 f8             	add    %rdi,%rax
    4e33:	4c 89 64 24 78       	mov    %r12,0x78(%rsp)
    4e38:	66 0f 6f 1d b0 63 02 	movdqa 0x263b0(%rip),%xmm3        # 2b1f0 <A.361.27+0x1a8>
    4e3f:	00 
    4e40:	49 89 c0             	mov    %rax,%r8
    4e43:	48 89 84 24 30 02 00 	mov    %rax,0x230(%rsp)
    4e4a:	00 
    4e4b:	48 8b 44 24 90       	mov    -0x70(%rsp),%rax
    4e50:	4d 8d 2c b4          	lea    (%r12,%rsi,4),%r13
    4e54:	48 89 74 24 a8       	mov    %rsi,-0x58(%rsp)
    4e59:	4c 8b 64 24 d8       	mov    -0x28(%rsp),%r12
    4e5e:	4d 89 e9             	mov    %r13,%r9
    4e61:	4d 89 dd             	mov    %r11,%r13
    4e64:	48 8d 58 ff          	lea    -0x1(%rax),%rbx
    4e68:	48 89 7c 24 a0       	mov    %rdi,-0x60(%rsp)
    4e6d:	4c 89 c7             	mov    %r8,%rdi
    4e70:	48 89 5c 24 48       	mov    %rbx,0x48(%rsp)
    4e75:	48 89 c3             	mov    %rax,%rbx
    4e78:	48 83 e0 fc          	and    $0xfffffffffffffffc,%rax
    4e7c:	48 89 44 24 60       	mov    %rax,0x60(%rsp)
    4e81:	48 83 c0 01          	add    $0x1,%rax
    4e85:	48 c1 eb 02          	shr    $0x2,%rbx
    4e89:	48 89 84 24 90 00 00 	mov    %rax,0x90(%rsp)
    4e90:	00 
    4e91:	49 8d 42 ff          	lea    -0x1(%r10),%rax
    4e95:	48 89 44 24 10       	mov    %rax,0x10(%rsp)
    4e9a:	4c 89 d0             	mov    %r10,%rax
    4e9d:	48 c1 e8 02          	shr    $0x2,%rax
    4ea1:	48 89 5c 24 50       	mov    %rbx,0x50(%rsp)
    4ea6:	48 89 44 24 18       	mov    %rax,0x18(%rsp)
    4eab:	4c 89 d0             	mov    %r10,%rax
    4eae:	48 83 e0 fc          	and    $0xfffffffffffffffc,%rax
    4eb2:	48 89 44 24 20       	mov    %rax,0x20(%rsp)
    4eb7:	48 83 c0 01          	add    $0x1,%rax
    4ebb:	48 89 44 24 28       	mov    %rax,0x28(%rsp)
    4ec0:	48 83 7c 24 90 00    	cmpq   $0x0,-0x70(%rsp)
    4ec6:	0f 8e 4c 0f 00 00    	jle    5e18 <naked_triplets.1+0x13a8>
    4ecc:	48 83 7c 24 48 02    	cmpq   $0x2,0x48(%rsp)
    4ed2:	0f 86 74 1d 00 00    	jbe    6c4c <naked_triplets.1+0x21dc>
    4ed8:	66 0f ef c9          	pxor   %xmm1,%xmm1
    4edc:	48 8b 74 24 50       	mov    0x50(%rsp),%rsi
    4ee1:	49 8d 49 04          	lea    0x4(%r9),%rcx
    4ee5:	31 c0                	xor    %eax,%eax
    4ee7:	66 0f 6f d1          	movdqa %xmm1,%xmm2
    4eeb:	0f 1f 44 00 00       	nopl   0x0(%rax,%rax,1)
    4ef0:	48 89 c2             	mov    %rax,%rdx
    4ef3:	48 83 c0 01          	add    $0x1,%rax
    4ef7:	48 c1 e2 04          	shl    $0x4,%rdx
    4efb:	f3 0f 6f 04 11       	movdqu (%rcx,%rdx,1),%xmm0
    4f00:	66 0f 76 c2          	pcmpeqd %xmm2,%xmm0
    4f04:	66 0f fa c8          	psubd  %xmm0,%xmm1
    4f08:	48 39 c6             	cmp    %rax,%rsi
    4f0b:	75 e3                	jne    4ef0 <naked_triplets.1+0x480>
    4f0d:	66 0f 6f c1          	movdqa %xmm1,%xmm0
    4f11:	48 8b 74 24 60       	mov    0x60(%rsp),%rsi
    4f16:	66 0f 73 d8 08       	psrldq $0x8,%xmm0
    4f1b:	66 0f fe c8          	paddd  %xmm0,%xmm1
    4f1f:	66 0f 6f c1          	movdqa %xmm1,%xmm0
    4f23:	66 0f 73 d8 04       	psrldq $0x4,%xmm0
    4f28:	66 0f fe c8          	paddd  %xmm0,%xmm1
    4f2c:	66 0f 7e c8          	movd   %xmm1,%eax
    4f30:	48 39 74 24 90       	cmp    %rsi,-0x70(%rsp)
    4f35:	74 48                	je     4f7f <naked_triplets.1+0x50f>
    4f37:	48 8b 94 24 90 00 00 	mov    0x90(%rsp),%rdx
    4f3e:	00 
    4f3f:	48 8b 5c 24 a8       	mov    -0x58(%rsp),%rbx
    4f44:	48 8b 74 24 78       	mov    0x78(%rsp),%rsi
    4f49:	4c 8b 74 24 90       	mov    -0x70(%rsp),%r14
    4f4e:	48 8d 0c 13          	lea    (%rbx,%rdx,1),%rcx
    4f52:	83 3c 8e 01          	cmpl   $0x1,(%rsi,%rcx,4)
    4f56:	48 8d 4a 01          	lea    0x1(%rdx),%rcx
    4f5a:	83 d0 00             	adc    $0x0,%eax
    4f5d:	49 39 ce             	cmp    %rcx,%r14
    4f60:	7c 1d                	jl     4f7f <naked_triplets.1+0x50f>
    4f62:	48 01 d9             	add    %rbx,%rcx
    4f65:	83 3c 8e 01          	cmpl   $0x1,(%rsi,%rcx,4)
    4f69:	83 d0 00             	adc    $0x0,%eax
    4f6c:	48 83 c2 02          	add    $0x2,%rdx
    4f70:	49 39 d6             	cmp    %rdx,%r14
    4f73:	7c 0a                	jl     4f7f <naked_triplets.1+0x50f>
    4f75:	48 01 da             	add    %rbx,%rdx
    4f78:	83 3c 96 01          	cmpl   $0x1,(%rsi,%rdx,4)
    4f7c:	83 d0 00             	adc    $0x0,%eax
    4f7f:	83 f8 03             	cmp    $0x3,%eax
    4f82:	0f 85 90 0e 00 00    	jne    5e18 <naked_triplets.1+0x13a8>
    4f88:	48 8b 5c 24 c0       	mov    -0x40(%rsp),%rbx
    4f8d:	48 01 5c 24 a8       	add    %rbx,-0x58(%rsp)
    4f92:	48 8b 5c 24 c8       	mov    -0x38(%rsp),%rbx
    4f97:	4c 03 8c 24 40 01 00 	add    0x140(%rsp),%r9
    4f9e:	00 
    4f9f:	48 01 5c 24 a0       	add    %rbx,-0x60(%rsp)
    4fa4:	48 01 df             	add    %rbx,%rdi
    4fa7:	83 6c 24 f8 01       	subl   $0x1,-0x8(%rsp)
    4fac:	0f 85 0e ff ff ff    	jne    4ec0 <naked_triplets.1+0x450>
    4fb2:	4c 8b 64 24 78       	mov    0x78(%rsp),%r12
    4fb7:	48 8b 44 24 88       	mov    -0x78(%rsp),%rax
    4fbc:	4d 89 eb             	mov    %r13,%r11
    4fbf:	4c 01 e0             	add    %r12,%rax
    4fc2:	48 89 84 24 b0 00 00 	mov    %rax,0xb0(%rsp)
    4fc9:	00 
    4fca:	48 8b 84 24 e8 00 00 	mov    0xe8(%rsp),%rax
    4fd1:	00 
    4fd2:	48 8b 5c 24 98       	mov    -0x68(%rsp),%rbx
    4fd7:	c7 44 24 f0 01 00 00 	movl   $0x1,-0x10(%rsp)
    4fde:	00 
    4fdf:	4d 89 e5             	mov    %r12,%r13
    4fe2:	48 8b 7c 24 e0       	mov    -0x20(%rsp),%rdi
    4fe7:	4c 89 9c 24 c8 00 00 	mov    %r11,0xc8(%rsp)
    4fee:	00 
    4fef:	c7 40 78 0a 00 00 00 	movl   $0xa,0x78(%rax)
    4ff6:	48 8b 84 24 30 02 00 	mov    0x230(%rsp),%rax
    4ffd:	00 
    4ffe:	4c 8d 3c 9d 00 00 00 	lea    0x0(,%rbx,4),%r15
    5005:	00 
    5006:	48 89 fe             	mov    %rdi,%rsi
    5009:	4c 89 fd             	mov    %r15,%rbp
    500c:	48 89 c1             	mov    %rax,%rcx
    500f:	48 f7 d8             	neg    %rax
    5012:	48 01 d9             	add    %rbx,%rcx
    5015:	48 89 84 24 b0 02 00 	mov    %rax,0x2b0(%rsp)
    501c:	00 
    501d:	48 89 8c 24 90 00 00 	mov    %rcx,0x90(%rsp)
    5024:	00 
    5025:	48 89 c1             	mov    %rax,%rcx
    5028:	48 8d 04 fd 00 00 00 	lea    0x0(,%rdi,8),%rax
    502f:	00 
    5030:	48 29 c6             	sub    %rax,%rsi
    5033:	48 8d 04 bd 00 00 00 	lea    0x0(,%rdi,4),%rax
    503a:	00 
    503b:	48 89 4c 24 18       	mov    %rcx,0x18(%rsp)
    5040:	48 89 b4 24 50 02 00 	mov    %rsi,0x250(%rsp)
    5047:	00 
    5048:	48 89 fe             	mov    %rdi,%rsi
    504b:	48 29 c6             	sub    %rax,%rsi
    504e:	48 8d 04 36          	lea    (%rsi,%rsi,1),%rax
    5052:	48 89 b4 24 58 02 00 	mov    %rsi,0x258(%rsp)
    5059:	00 
    505a:	48 8b 74 24 88       	mov    -0x78(%rsp),%rsi
    505f:	48 89 84 24 60 02 00 	mov    %rax,0x260(%rsp)
    5066:	00 
    5067:	48 89 f8             	mov    %rdi,%rax
    506a:	48 f7 d8             	neg    %rax
    506d:	48 f7 de             	neg    %rsi
    5070:	48 8d 14 85 00 00 00 	lea    0x0(,%rax,4),%rdx
    5077:	00 
    5078:	48 01 c0             	add    %rax,%rax
    507b:	48 89 b4 24 48 02 00 	mov    %rsi,0x248(%rsp)
    5082:	00 
    5083:	48 89 de             	mov    %rbx,%rsi
    5086:	48 89 84 24 a8 00 00 	mov    %rax,0xa8(%rsp)
    508d:	00 
    508e:	48 8b 84 24 60 01 00 	mov    0x160(%rsp),%rax
    5095:	00 
    5096:	48 29 fa             	sub    %rdi,%rdx
    5099:	48 89 94 24 68 02 00 	mov    %rdx,0x268(%rsp)
    50a0:	00 
    50a1:	49 8d 04 83          	lea    (%r11,%rax,4),%rax
    50a5:	48 89 84 24 a8 02 00 	mov    %rax,0x2a8(%rsp)
    50ac:	00 
    50ad:	48 8d 04 dd 00 00 00 	lea    0x0(,%rbx,8),%rax
    50b4:	00 
    50b5:	48 29 c6             	sub    %rax,%rsi
    50b8:	48 89 d8             	mov    %rbx,%rax
    50bb:	4c 29 fb             	sub    %r15,%rbx
    50be:	48 89 b4 24 08 02 00 	mov    %rsi,0x208(%rsp)
    50c5:	00 
    50c6:	48 8d 34 1b          	lea    (%rbx,%rbx,1),%rsi
    50ca:	48 89 9c 24 10 02 00 	mov    %rbx,0x210(%rsp)
    50d1:	00 
    50d2:	48 89 c3             	mov    %rax,%rbx
    50d5:	48 f7 d8             	neg    %rax
    50d8:	48 8d 14 85 00 00 00 	lea    0x0(,%rax,4),%rdx
    50df:	00 
    50e0:	48 01 c0             	add    %rax,%rax
    50e3:	48 89 b4 24 18 02 00 	mov    %rsi,0x218(%rsp)
    50ea:	00 
    50eb:	4c 89 fe             	mov    %r15,%rsi
    50ee:	48 89 84 24 28 02 00 	mov    %rax,0x228(%rsp)
    50f5:	00 
    50f6:	48 8b 44 24 c8       	mov    -0x38(%rsp),%rax
    50fb:	48 29 da             	sub    %rbx,%rdx
    50fe:	48 f7 de             	neg    %rsi
    5101:	48 89 94 24 20 02 00 	mov    %rdx,0x220(%rsp)
    5108:	00 
    5109:	49 89 dc             	mov    %rbx,%r12
    510c:	48 89 84 24 30 01 00 	mov    %rax,0x130(%rsp)
    5113:	00 
    5114:	48 8b 84 24 48 01 00 	mov    0x148(%rsp),%rax
    511b:	00 
    511c:	48 89 b4 24 f8 01 00 	mov    %rsi,0x1f8(%rsp)
    5123:	00 
    5124:	48 89 84 24 98 00 00 	mov    %rax,0x98(%rsp)
    512b:	00 
    512c:	8b 44 24 f0          	mov    -0x10(%rsp),%eax
    5130:	bb ab aa aa aa       	mov    $0xaaaaaaab,%ebx
    5135:	45 31 f6             	xor    %r14d,%r14d
    5138:	4d 89 ea             	mov    %r13,%r10
    513b:	48 8b bc 24 98 00 00 	mov    0x98(%rsp),%rdi
    5142:	00 
    5143:	48 8b b4 24 90 00 00 	mov    0x90(%rsp),%rsi
    514a:	00 
    514b:	4d 89 e7             	mov    %r12,%r15
    514e:	45 89 f5             	mov    %r14d,%r13d
    5151:	89 44 24 90          	mov    %eax,-0x70(%rsp)
    5155:	83 e8 01             	sub    $0x1,%eax
    5158:	48 0f af c3          	imul   %rbx,%rax
    515c:	48 89 74 24 98       	mov    %rsi,-0x68(%rsp)
    5161:	48 c1 e8 21          	shr    $0x21,%rax
    5165:	89 44 24 28          	mov    %eax,0x28(%rsp)
    5169:	8d 04 40             	lea    (%rax,%rax,2),%eax
    516c:	8d 58 01             	lea    0x1(%rax),%ebx
    516f:	89 44 24 20          	mov    %eax,0x20(%rsp)
    5173:	83 c0 03             	add    $0x3,%eax
    5176:	48 89 44 24 d0       	mov    %rax,-0x30(%rsp)
    517b:	48 8b 84 24 b0 00 00 	mov    0xb0(%rsp),%rax
    5182:	00 
    5183:	48 89 5c 24 b8       	mov    %rbx,-0x48(%rsp)
    5188:	48 8d 0c b8          	lea    (%rax,%rdi,4),%rcx
    518c:	48 8b bc 24 38 01 00 	mov    0x138(%rsp),%rdi
    5193:	00 
    5194:	48 8d 04 b5 00 00 00 	lea    0x0(,%rsi,4),%rax
    519b:	00 
    519c:	48 01 c7             	add    %rax,%rdi
    519f:	48 03 84 24 c8 00 00 	add    0xc8(%rsp),%rax
    51a6:	00 
    51a7:	48 89 44 24 a0       	mov    %rax,-0x60(%rsp)
    51ac:	48 8b 44 24 18       	mov    0x18(%rsp),%rax
    51b1:	48 03 44 24 e8       	add    -0x18(%rsp),%rax
    51b6:	48 89 7c 24 a8       	mov    %rdi,-0x58(%rsp)
    51bb:	48 89 44 24 b0       	mov    %rax,-0x50(%rsp)
    51c0:	48 8b 44 24 c0       	mov    -0x40(%rsp),%rax
    51c5:	48 0f af c3          	imul   %rbx,%rax
    51c9:	48 03 84 24 a0 00 00 	add    0xa0(%rsp),%rax
    51d0:	00 
    51d1:	48 0f af 5c 24 c8    	imul   -0x38(%rsp),%rbx
    51d7:	48 89 44 24 10       	mov    %rax,0x10(%rsp)
    51dc:	48 89 9c 24 f8 00 00 	mov    %rbx,0xf8(%rsp)
    51e3:	00 
    51e4:	48 89 cb             	mov    %rcx,%rbx
    51e7:	eb 33                	jmp    521c <naked_triplets.1+0x7ac>
    51e9:	0f 1f 80 00 00 00 00 	nopl   0x0(%rax)
    51f0:	41 83 c5 01          	add    $0x1,%r13d
    51f4:	83 44 24 90 09       	addl   $0x9,-0x70(%rsp)
    51f9:	48 03 5c 24 88       	add    -0x78(%rsp),%rbx
    51fe:	48 01 6c 24 a8       	add    %rbp,-0x58(%rsp)
    5203:	4c 01 7c 24 98       	add    %r15,-0x68(%rsp)
    5208:	48 01 6c 24 a0       	add    %rbp,-0x60(%rsp)
    520d:	4c 29 7c 24 b0       	sub    %r15,-0x50(%rsp)
    5212:	41 83 fd 09          	cmp    $0x9,%r13d
    5216:	0f 84 6a 04 00 00    	je     5686 <naked_triplets.1+0xc16>
    521c:	8b 3b                	mov    (%rbx),%edi
    521e:	85 ff                	test   %edi,%edi
    5220:	75 ce                	jne    51f0 <naked_triplets.1+0x780>
    5222:	44 89 e8             	mov    %r13d,%eax
    5225:	be ab aa aa aa       	mov    $0xaaaaaaab,%esi
    522a:	48 8b 4c 24 d0       	mov    -0x30(%rsp),%rcx
    522f:	48 0f af c6          	imul   %rsi,%rax
    5233:	48 c1 e8 21          	shr    $0x21,%rax
    5237:	89 44 24 08          	mov    %eax,0x8(%rsp)
    523b:	8d 04 40             	lea    (%rax,%rax,2),%eax
    523e:	8d 50 01             	lea    0x1(%rax),%edx
    5241:	4c 63 f2             	movslq %edx,%r14
    5244:	8d 50 03             	lea    0x3(%rax),%edx
    5247:	4c 63 da             	movslq %edx,%r11
    524a:	48 39 4c 24 b8       	cmp    %rcx,-0x48(%rsp)
    524f:	7f 72                	jg     52c3 <naked_triplets.1+0x853>
    5251:	48 83 7c 24 e0 01    	cmpq   $0x1,-0x20(%rsp)
    5257:	0f 85 7a 04 00 00    	jne    56d7 <naked_triplets.1+0xc67>
    525d:	8b 74 24 20          	mov    0x20(%rsp),%esi
    5261:	83 c0 02             	add    $0x2,%eax
    5264:	48 8b 54 24 10       	mov    0x10(%rsp),%rdx
    5269:	48 8b 4c 24 b8       	mov    -0x48(%rsp),%rcx
    526e:	4c 8b 64 24 c0       	mov    -0x40(%rsp),%r12
    5273:	44 8d 4e 04          	lea    0x4(%rsi),%r9d
    5277:	48 63 f0             	movslq %eax,%rsi
    527a:	31 c0                	xor    %eax,%eax
    527c:	0f 1f 40 00          	nopl   0x0(%rax)
    5280:	4d 39 de             	cmp    %r11,%r14
    5283:	7f 29                	jg     52ae <naked_triplets.1+0x83e>
    5285:	4d 8d 04 16          	lea    (%r14,%rdx,1),%r8
    5289:	43 83 3c 82 01       	cmpl   $0x1,(%r10,%r8,4)
    528e:	83 d0 00             	adc    $0x0,%eax
    5291:	49 39 f3             	cmp    %rsi,%r11
    5294:	7c 18                	jl     52ae <naked_triplets.1+0x83e>
    5296:	4c 8d 04 32          	lea    (%rdx,%rsi,1),%r8
    529a:	43 83 3c 82 01       	cmpl   $0x1,(%r10,%r8,4)
    529f:	4d 8d 04 13          	lea    (%r11,%rdx,1),%r8
    52a3:	83 d0 00             	adc    $0x0,%eax
    52a6:	43 83 3c 82 01       	cmpl   $0x1,(%r10,%r8,4)
    52ab:	83 d0 00             	adc    $0x0,%eax
    52ae:	48 83 c1 01          	add    $0x1,%rcx
    52b2:	4c 01 e2             	add    %r12,%rdx
    52b5:	4c 39 c9             	cmp    %r9,%rcx
    52b8:	75 c6                	jne    5280 <naked_triplets.1+0x810>
    52ba:	83 f8 03             	cmp    $0x3,%eax
    52bd:	0f 84 2d ff ff ff    	je     51f0 <naked_triplets.1+0x780>
    52c3:	48 8b 44 24 98       	mov    -0x68(%rsp),%rax
    52c8:	48 03 44 24 18       	add    0x18(%rsp),%rax
    52cd:	48 83 7c 24 d8 00    	cmpq   $0x0,-0x28(%rsp)
    52d3:	48 89 84 24 28 01 00 	mov    %rax,0x128(%rsp)
    52da:	00 
    52db:	0f 8e 0f ff ff ff    	jle    51f0 <naked_triplets.1+0x780>
    52e1:	48 83 3c 24 01       	cmpq   $0x1,(%rsp)
    52e6:	0f 85 37 10 00 00    	jne    6323 <naked_triplets.1+0x18b3>
    52ec:	48 83 7c 24 30 02    	cmpq   $0x2,0x30(%rsp)
    52f2:	0f 86 4a 19 00 00    	jbe    6c42 <naked_triplets.1+0x21d2>
    52f8:	48 8b 44 24 a0       	mov    -0x60(%rsp),%rax
    52fd:	66 0f ef c9          	pxor   %xmm1,%xmm1
    5301:	48 8b 74 24 38       	mov    0x38(%rsp),%rsi
    5306:	66 0f 6f d1          	movdqa %xmm1,%xmm2
    530a:	48 8d 48 04          	lea    0x4(%rax),%rcx
    530e:	31 c0                	xor    %eax,%eax
    5310:	48 89 c2             	mov    %rax,%rdx
    5313:	48 83 c0 01          	add    $0x1,%rax
    5317:	48 c1 e2 04          	shl    $0x4,%rdx
    531b:	f3 0f 6f 04 11       	movdqu (%rcx,%rdx,1),%xmm0
    5320:	66 0f 76 c2          	pcmpeqd %xmm2,%xmm0
    5324:	66 0f 76 c2          	pcmpeqd %xmm2,%xmm0
    5328:	66 0f fa c8          	psubd  %xmm0,%xmm1
    532c:	48 39 f0             	cmp    %rsi,%rax
    532f:	75 df                	jne    5310 <naked_triplets.1+0x8a0>
    5331:	66 0f 6f c1          	movdqa %xmm1,%xmm0
    5335:	48 8b 74 24 40       	mov    0x40(%rsp),%rsi
    533a:	66 0f 73 d8 08       	psrldq $0x8,%xmm0
    533f:	66 0f fe c8          	paddd  %xmm0,%xmm1
    5343:	66 0f 6f c1          	movdqa %xmm1,%xmm0
    5347:	66 0f 73 d8 04       	psrldq $0x4,%xmm0
    534c:	66 0f fe c8          	paddd  %xmm0,%xmm1
    5350:	66 0f 7e cf          	movd   %xmm1,%edi
    5354:	48 39 74 24 d8       	cmp    %rsi,-0x28(%rsp)
    5359:	74 48                	je     53a3 <naked_triplets.1+0x933>
    535b:	48 8b 44 24 58       	mov    0x58(%rsp),%rax
    5360:	48 8b 74 24 98       	mov    -0x68(%rsp),%rsi
    5365:	48 8b 8c 24 c8 00 00 	mov    0xc8(%rsp),%rcx
    536c:	00 
    536d:	4c 8b 4c 24 d8       	mov    -0x28(%rsp),%r9
    5372:	48 8d 14 06          	lea    (%rsi,%rax,1),%rdx
    5376:	83 3c 91 01          	cmpl   $0x1,(%rcx,%rdx,4)
    537a:	48 8d 50 01          	lea    0x1(%rax),%rdx
    537e:	83 df ff             	sbb    $0xffffffff,%edi
    5381:	49 39 d1             	cmp    %rdx,%r9
    5384:	7c 1d                	jl     53a3 <naked_triplets.1+0x933>
    5386:	48 01 f2             	add    %rsi,%rdx
    5389:	83 3c 91 01          	cmpl   $0x1,(%rcx,%rdx,4)
    538d:	83 df ff             	sbb    $0xffffffff,%edi
    5390:	48 83 c0 02          	add    $0x2,%rax
    5394:	49 39 c1             	cmp    %rax,%r9
    5397:	7c 0a                	jl     53a3 <naked_triplets.1+0x933>
    5399:	48 01 f0             	add    %rsi,%rax
    539c:	83 3c 81 01          	cmpl   $0x1,(%rcx,%rax,4)
    53a0:	83 df ff             	sbb    $0xffffffff,%edi
    53a3:	83 ff 03             	cmp    $0x3,%edi
    53a6:	0f 85 44 fe ff ff    	jne    51f0 <naked_triplets.1+0x780>
    53ac:	49 8d 46 07          	lea    0x7(%r14),%rax
    53b0:	48 8b bc 24 f8 00 00 	mov    0xf8(%rsp),%rdi
    53b7:	00 
    53b8:	49 8d 76 08          	lea    0x8(%r14),%rsi
    53bc:	48 8b 4c 24 98       	mov    -0x68(%rsp),%rcx
    53c1:	48 89 84 24 90 02 00 	mov    %rax,0x290(%rsp)
    53c8:	00 
    53c9:	49 0f af c7          	imul   %r15,%rax
    53cd:	4d 8d 66 05          	lea    0x5(%r14),%r12
    53d1:	48 2b 8c 24 30 02 00 	sub    0x230(%rsp),%rcx
    53d8:	00 
    53d9:	48 89 b4 24 38 02 00 	mov    %rsi,0x238(%rsp)
    53e0:	00 
    53e1:	48 89 fe             	mov    %rdi,%rsi
    53e4:	4d 8d 46 04          	lea    0x4(%r14),%r8
    53e8:	4d 8d 4e 03          	lea    0x3(%r14),%r9
    53ec:	49 8d 56 01          	lea    0x1(%r14),%rdx
    53f0:	4c 89 8c 24 80 02 00 	mov    %r9,0x280(%rsp)
    53f7:	00 
    53f8:	48 01 f8             	add    %rdi,%rax
    53fb:	4c 89 84 24 78 02 00 	mov    %r8,0x278(%rsp)
    5402:	00 
    5403:	48 89 84 24 e8 01 00 	mov    %rax,0x1e8(%rsp)
    540a:	00 
    540b:	49 8d 46 02          	lea    0x2(%r14),%rax
    540f:	48 89 84 24 88 02 00 	mov    %rax,0x288(%rsp)
    5416:	00 
    5417:	49 8d 46 06          	lea    0x6(%r14),%rax
    541b:	48 89 84 24 40 02 00 	mov    %rax,0x240(%rsp)
    5422:	00 
    5423:	48 63 44 24 08       	movslq 0x8(%rsp),%rax
    5428:	48 89 8c 24 a0 02 00 	mov    %rcx,0x2a0(%rsp)
    542f:	00 
    5430:	48 8d 04 40          	lea    (%rax,%rax,2),%rax
    5434:	48 89 54 24 50       	mov    %rdx,0x50(%rsp)
    5439:	48 01 f8             	add    %rdi,%rax
    543c:	49 8d 7b 01          	lea    0x1(%r11),%rdi
    5440:	4c 89 a4 24 70 02 00 	mov    %r12,0x270(%rsp)
    5447:	00 
    5448:	48 89 84 24 e0 01 00 	mov    %rax,0x1e0(%rsp)
    544f:	00 
    5450:	48 8b 84 24 40 02 00 	mov    0x240(%rsp),%rax
    5457:	00 
    5458:	48 89 bc 24 00 01 00 	mov    %rdi,0x100(%rsp)
    545f:	00 
    5460:	4c 89 f7             	mov    %r14,%rdi
    5463:	49 0f af c7          	imul   %r15,%rax
    5467:	48 89 8c 24 c0 00 00 	mov    %rcx,0xc0(%rsp)
    546e:	00 
    546f:	49 0f af ff          	imul   %r15,%rdi
    5473:	48 01 f0             	add    %rsi,%rax
    5476:	48 89 84 24 a8 01 00 	mov    %rax,0x1a8(%rsp)
    547d:	00 
    547e:	4c 89 e0             	mov    %r12,%rax
    5481:	48 01 f7             	add    %rsi,%rdi
    5484:	49 0f af c7          	imul   %r15,%rax
    5488:	48 89 bc 24 a0 01 00 	mov    %rdi,0x1a0(%rsp)
    548f:	00 
    5490:	48 01 f0             	add    %rsi,%rax
    5493:	48 89 84 24 b0 01 00 	mov    %rax,0x1b0(%rsp)
    549a:	00 
    549b:	4c 89 c0             	mov    %r8,%rax
    549e:	49 0f af c7          	imul   %r15,%rax
    54a2:	48 01 f0             	add    %rsi,%rax
    54a5:	48 89 84 24 b8 01 00 	mov    %rax,0x1b8(%rsp)
    54ac:	00 
    54ad:	4c 89 c8             	mov    %r9,%rax
    54b0:	41 b9 01 00 00 00    	mov    $0x1,%r9d
    54b6:	49 0f af c7          	imul   %r15,%rax
    54ba:	48 01 f0             	add    %rsi,%rax
    54bd:	48 89 84 24 c0 01 00 	mov    %rax,0x1c0(%rsp)
    54c4:	00 
    54c5:	4c 89 d8             	mov    %r11,%rax
    54c8:	49 0f af c7          	imul   %r15,%rax
    54cc:	48 01 f0             	add    %rsi,%rax
    54cf:	48 89 84 24 c8 01 00 	mov    %rax,0x1c8(%rsp)
    54d6:	00 
    54d7:	48 89 d0             	mov    %rdx,%rax
    54da:	49 0f af c7          	imul   %r15,%rax
    54de:	48 01 f0             	add    %rsi,%rax
    54e1:	48 89 84 24 d0 01 00 	mov    %rax,0x1d0(%rsp)
    54e8:	00 
    54e9:	48 8b 84 24 38 02 00 	mov    0x238(%rsp),%rax
    54f0:	00 
    54f1:	49 0f af c7          	imul   %r15,%rax
    54f5:	48 01 f0             	add    %rsi,%rax
    54f8:	48 89 84 24 d8 01 00 	mov    %rax,0x1d8(%rsp)
    54ff:	00 
    5500:	49 8d 43 02          	lea    0x2(%r11),%rax
    5504:	48 89 84 24 f0 00 00 	mov    %rax,0xf0(%rsp)
    550b:	00 
    550c:	49 8d 43 03          	lea    0x3(%r11),%rax
    5510:	48 89 84 24 e8 00 00 	mov    %rax,0xe8(%rsp)
    5517:	00 
    5518:	49 8d 43 04          	lea    0x4(%r11),%rax
    551c:	48 89 84 24 e0 00 00 	mov    %rax,0xe0(%rsp)
    5523:	00 
    5524:	49 8d 43 05          	lea    0x5(%r11),%rax
    5528:	48 89 84 24 d8 00 00 	mov    %rax,0xd8(%rsp)
    552f:	00 
    5530:	49 8d 43 06          	lea    0x6(%r11),%rax
    5534:	48 89 84 24 d0 00 00 	mov    %rax,0xd0(%rsp)
    553b:	00 
    553c:	48 8b 44 24 c8       	mov    -0x38(%rsp),%rax
    5541:	4c 8b 84 24 c8 00 00 	mov    0xc8(%rsp),%r8
    5548:	00 
    5549:	4c 89 7c 24 f8       	mov    %r15,-0x8(%rsp)
    554e:	4d 89 df             	mov    %r11,%r15
    5551:	48 89 44 24 78       	mov    %rax,0x78(%rsp)
    5556:	48 8b 84 24 48 01 00 	mov    0x148(%rsp),%rax
    555d:	00 
    555e:	4c 89 94 24 c0 02 00 	mov    %r10,0x2c0(%rsp)
    5565:	00 
    5566:	48 89 84 24 b8 00 00 	mov    %rax,0xb8(%rsp)
    556d:	00 
    556e:	49 8d 40 04          	lea    0x4(%r8),%rax
    5572:	48 89 84 24 b8 02 00 	mov    %rax,0x2b8(%rsp)
    5579:	00 
    557a:	44 89 ac 24 cc 02 00 	mov    %r13d,0x2cc(%rsp)
    5581:	00 
    5582:	48 89 9c 24 d0 02 00 	mov    %rbx,0x2d0(%rsp)
    5589:	00 
    558a:	48 89 6c 24 60       	mov    %rbp,0x60(%rsp)
    558f:	4c 89 74 24 68       	mov    %r14,0x68(%rsp)
    5594:	eb 2d                	jmp    55c3 <naked_triplets.1+0xb53>
    5596:	41 83 c1 01          	add    $0x1,%r9d
    559a:	48 8b 7c 24 c8       	mov    -0x38(%rsp),%rdi
    559f:	48 8b 74 24 c0       	mov    -0x40(%rsp),%rsi
    55a4:	48 01 7c 24 78       	add    %rdi,0x78(%rsp)
    55a9:	48 01 b4 24 b8 00 00 	add    %rsi,0xb8(%rsp)
    55b0:	00 
    55b1:	48 29 bc 24 c0 00 00 	sub    %rdi,0xc0(%rsp)
    55b8:	00 
    55b9:	41 83 f9 0a          	cmp    $0xa,%r9d
    55bd:	0f 84 b0 0d 00 00    	je     6373 <naked_triplets.1+0x1903>
    55c3:	41 8d 41 ff          	lea    -0x1(%r9),%eax
    55c7:	bf ab aa aa aa       	mov    $0xaaaaaaab,%edi
    55cc:	45 89 cd             	mov    %r9d,%r13d
    55cf:	48 0f af c7          	imul   %rdi,%rax
    55d3:	48 c1 e8 21          	shr    $0x21,%rax
    55d7:	3b 44 24 28          	cmp    0x28(%rsp),%eax
    55db:	75 b9                	jne    5596 <naked_triplets.1+0xb26>
    55dd:	48 8b 84 24 b0 00 00 	mov    0xb0(%rsp),%rax
    55e4:	00 
    55e5:	48 8b 5c 24 b0       	mov    -0x50(%rsp),%rbx
    55ea:	44 89 8c 24 e0 02 00 	mov    %r9d,0x2e0(%rsp)
    55f1:	00 
    55f2:	45 31 f6             	xor    %r14d,%r14d
    55f5:	48 8b b4 24 b8 00 00 	mov    0xb8(%rsp),%rsi
    55fc:	00 
    55fd:	48 8b 94 24 58 01 00 	mov    0x158(%rsp),%rdx
    5604:	00 
    5605:	66 0f ef d2          	pxor   %xmm2,%xmm2
    5609:	48 8d 0c b0          	lea    (%rax,%rsi,4),%rcx
    560d:	48 8b 44 24 78       	mov    0x78(%rsp),%rax
    5612:	48 8b b4 24 a8 02 00 	mov    0x2a8(%rsp),%rsi
    5619:	00 
    561a:	48 01 c3             	add    %rax,%rbx
    561d:	48 8d 74 86 04       	lea    0x4(%rsi,%rax,4),%rsi
    5622:	48 89 5c 24 48       	mov    %rbx,0x48(%rsp)
    5627:	66 0f 1f 84 00 00 00 	nopw   0x0(%rax,%rax,1)
    562e:	00 00 
    5630:	44 89 f7             	mov    %r14d,%edi
    5633:	44 3b 6c 24 90       	cmp    -0x70(%rsp),%r13d
    5638:	7e 1d                	jle    5657 <naked_triplets.1+0xbe7>
    563a:	8b 01                	mov    (%rcx),%eax
    563c:	85 c0                	test   %eax,%eax
    563e:	75 17                	jne    5657 <naked_triplets.1+0xbe7>
    5640:	bb ab aa aa aa       	mov    $0xaaaaaaab,%ebx
    5645:	48 0f af fb          	imul   %rbx,%rdi
    5649:	48 c1 ef 21          	shr    $0x21,%rdi
    564d:	3b 7c 24 08          	cmp    0x8(%rsp),%edi
    5651:	0f 84 43 0d 00 00    	je     639a <naked_triplets.1+0x192a>
    5657:	49 83 c6 01          	add    $0x1,%r14
    565b:	48 8b 5c 24 f8       	mov    -0x8(%rsp),%rbx
    5660:	41 83 c5 09          	add    $0x9,%r13d
    5664:	48 01 5c 24 48       	add    %rbx,0x48(%rsp)
    5669:	48 03 4c 24 88       	add    -0x78(%rsp),%rcx
    566e:	48 03 74 24 60       	add    0x60(%rsp),%rsi
    5673:	49 83 fe 09          	cmp    $0x9,%r14
    5677:	75 b7                	jne    5630 <naked_triplets.1+0xbc0>
    5679:	44 8b 8c 24 e0 02 00 	mov    0x2e0(%rsp),%r9d
    5680:	00 
    5681:	e9 10 ff ff ff       	jmp    5596 <naked_triplets.1+0xb26>
    5686:	83 44 24 f0 01       	addl   $0x1,-0x10(%rsp)
    568b:	8b 44 24 f0          	mov    -0x10(%rsp),%eax
    568f:	4d 89 d5             	mov    %r10,%r13
    5692:	4d 89 fc             	mov    %r15,%r12
    5695:	48 8b 5c 24 c8       	mov    -0x38(%rsp),%rbx
    569a:	48 8b 74 24 c0       	mov    -0x40(%rsp),%rsi
    569f:	48 01 9c 24 90 00 00 	add    %rbx,0x90(%rsp)
    56a6:	00 
    56a7:	48 01 b4 24 98 00 00 	add    %rsi,0x98(%rsp)
    56ae:	00 
    56af:	48 29 5c 24 18       	sub    %rbx,0x18(%rsp)
    56b4:	48 01 9c 24 30 01 00 	add    %rbx,0x130(%rsp)
    56bb:	00 
    56bc:	83 f8 0a             	cmp    $0xa,%eax
    56bf:	0f 85 67 fa ff ff    	jne    512c <naked_triplets.1+0x6bc>
    56c5:	48 81 c4 f0 02 00 00 	add    $0x2f0,%rsp
    56cc:	5b                   	pop    %rbx
    56cd:	5d                   	pop    %rbp
    56ce:	41 5c                	pop    %r12
    56d0:	41 5d                	pop    %r13
    56d2:	41 5e                	pop    %r14
    56d4:	41 5f                	pop    %r15
    56d6:	c3                   	ret    
    56d7:	48 8b 74 24 e0       	mov    -0x20(%rsp),%rsi
    56dc:	49 8d 46 07          	lea    0x7(%r14),%rax
    56e0:	4d 8d 4e 02          	lea    0x2(%r14),%r9
    56e4:	4c 89 bc 24 b8 00 00 	mov    %r15,0xb8(%rsp)
    56eb:	00 
    56ec:	48 89 44 24 68       	mov    %rax,0x68(%rsp)
    56f1:	4d 89 cf             	mov    %r9,%r15
    56f4:	4d 8d 46 01          	lea    0x1(%r14),%r8
    56f8:	4d 8d 66 03          	lea    0x3(%r14),%r12
    56fc:	48 0f af c6          	imul   %rsi,%rax
    5700:	48 03 44 24 10       	add    0x10(%rsp),%rax
    5705:	48 f7 de             	neg    %rsi
    5708:	4c 8b 8c 24 58 02 00 	mov    0x258(%rsp),%r9
    570f:	00 
    5710:	49 8d 14 82          	lea    (%r10,%rax,4),%rdx
    5714:	8b 44 24 20          	mov    0x20(%rsp),%eax
    5718:	48 89 ac 24 e0 00 00 	mov    %rbp,0xe0(%rsp)
    571f:	00 
    5720:	48 89 74 24 70       	mov    %rsi,0x70(%rsp)
    5725:	48 8b 4c 24 b8       	mov    -0x48(%rsp),%rcx
    572a:	83 c0 04             	add    $0x4,%eax
    572d:	4c 89 94 24 88 00 00 	mov    %r10,0x88(%rsp)
    5734:	00 
    5735:	4c 8b 94 24 68 02 00 	mov    0x268(%rsp),%r10
    573c:	00 
    573d:	48 89 44 24 50       	mov    %rax,0x50(%rsp)
    5742:	49 8d 46 04          	lea    0x4(%r14),%rax
    5746:	48 8b 74 24 50       	mov    0x50(%rsp),%rsi
    574b:	48 89 44 24 f8       	mov    %rax,-0x8(%rsp)
    5750:	49 8d 46 05          	lea    0x5(%r14),%rax
    5754:	48 89 44 24 48       	mov    %rax,0x48(%rsp)
    5759:	49 8d 46 06          	lea    0x6(%r14),%rax
    575d:	48 89 44 24 60       	mov    %rax,0x60(%rsp)
    5762:	49 8d 46 08          	lea    0x8(%r14),%rax
    5766:	89 bc 24 c0 00 00 00 	mov    %edi,0xc0(%rsp)
    576d:	48 8b bc 24 50 02 00 	mov    0x250(%rsp),%rdi
    5774:	00 
    5775:	44 89 ac 24 d0 00 00 	mov    %r13d,0xd0(%rsp)
    577c:	00 
    577d:	4c 8b ac 24 40 01 00 	mov    0x140(%rsp),%r13
    5784:	00 
    5785:	48 89 9c 24 d8 00 00 	mov    %rbx,0xd8(%rsp)
    578c:	00 
    578d:	48 8b 9c 24 48 02 00 	mov    0x248(%rsp),%rbx
    5794:	00 
    5795:	4c 89 4c 24 50       	mov    %r9,0x50(%rsp)
    579a:	4c 8b 8c 24 60 02 00 	mov    0x260(%rsp),%r9
    57a1:	00 
    57a2:	48 89 44 24 78       	mov    %rax,0x78(%rsp)
    57a7:	31 c0                	xor    %eax,%eax
    57a9:	0f 1f 80 00 00 00 00 	nopl   0x0(%rax)
    57b0:	4d 39 de             	cmp    %r11,%r14
    57b3:	0f 8f 89 00 00 00    	jg     5842 <naked_triplets.1+0xdd2>
    57b9:	83 3c ba 01          	cmpl   $0x1,(%rdx,%rdi,4)
    57bd:	83 d0 00             	adc    $0x0,%eax
    57c0:	4d 39 c3             	cmp    %r8,%r11
    57c3:	7c 7d                	jl     5842 <naked_triplets.1+0xdd2>
    57c5:	42 83 3c 8a 01       	cmpl   $0x1,(%rdx,%r9,4)
    57ca:	83 d0 00             	adc    $0x0,%eax
    57cd:	4d 39 fb             	cmp    %r15,%r11
    57d0:	7c 70                	jl     5842 <naked_triplets.1+0xdd2>
    57d2:	42 83 3c 92 01       	cmpl   $0x1,(%rdx,%r10,4)
    57d7:	83 d0 00             	adc    $0x0,%eax
    57da:	4d 39 e3             	cmp    %r12,%r11
    57dd:	7c 63                	jl     5842 <naked_triplets.1+0xdd2>
    57df:	83 3c 9a 01          	cmpl   $0x1,(%rdx,%rbx,4)
    57e3:	83 d0 00             	adc    $0x0,%eax
    57e6:	4c 3b 5c 24 f8       	cmp    -0x8(%rsp),%r11
    57eb:	7c 55                	jl     5842 <naked_triplets.1+0xdd2>
    57ed:	48 8b 6c 24 50       	mov    0x50(%rsp),%rbp
    57f2:	83 3c aa 01          	cmpl   $0x1,(%rdx,%rbp,4)
    57f6:	83 d0 00             	adc    $0x0,%eax
    57f9:	4c 3b 5c 24 48       	cmp    0x48(%rsp),%r11
    57fe:	7c 42                	jl     5842 <naked_triplets.1+0xdd2>
    5800:	48 8b ac 24 a8 00 00 	mov    0xa8(%rsp),%rbp
    5807:	00 
    5808:	83 3c aa 01          	cmpl   $0x1,(%rdx,%rbp,4)
    580c:	83 d0 00             	adc    $0x0,%eax
    580f:	4c 3b 5c 24 60       	cmp    0x60(%rsp),%r11
    5814:	7c 2c                	jl     5842 <naked_triplets.1+0xdd2>
    5816:	48 8b 6c 24 70       	mov    0x70(%rsp),%rbp
    581b:	83 3c aa 01          	cmpl   $0x1,(%rdx,%rbp,4)
    581f:	83 d0 00             	adc    $0x0,%eax
    5822:	4c 3b 5c 24 68       	cmp    0x68(%rsp),%r11
    5827:	7c 19                	jl     5842 <naked_triplets.1+0xdd2>
    5829:	83 3a 01             	cmpl   $0x1,(%rdx)
    582c:	83 d0 00             	adc    $0x0,%eax
    582f:	4c 3b 5c 24 78       	cmp    0x78(%rsp),%r11
    5834:	7c 0c                	jl     5842 <naked_triplets.1+0xdd2>
    5836:	48 8b 6c 24 e0       	mov    -0x20(%rsp),%rbp
    583b:	83 3c aa 01          	cmpl   $0x1,(%rdx,%rbp,4)
    583f:	83 d0 00             	adc    $0x0,%eax
    5842:	48 83 c1 01          	add    $0x1,%rcx
    5846:	4c 01 ea             	add    %r13,%rdx
    5849:	48 39 f1             	cmp    %rsi,%rcx
    584c:	0f 85 5e ff ff ff    	jne    57b0 <naked_triplets.1+0xd40>
    5852:	4c 8b 94 24 88 00 00 	mov    0x88(%rsp),%r10
    5859:	00 
    585a:	4c 8b bc 24 b8 00 00 	mov    0xb8(%rsp),%r15
    5861:	00 
    5862:	8b bc 24 c0 00 00 00 	mov    0xc0(%rsp),%edi
    5869:	44 8b ac 24 d0 00 00 	mov    0xd0(%rsp),%r13d
    5870:	00 
    5871:	48 8b 9c 24 d8 00 00 	mov    0xd8(%rsp),%rbx
    5878:	00 
    5879:	48 8b ac 24 e0 00 00 	mov    0xe0(%rsp),%rbp
    5880:	00 
    5881:	83 f8 03             	cmp    $0x3,%eax
    5884:	0f 84 66 f9 ff ff    	je     51f0 <naked_triplets.1+0x780>
    588a:	e9 34 fa ff ff       	jmp    52c3 <naked_triplets.1+0x853>
    588f:	4c 89 c0             	mov    %r8,%rax
    5892:	48 2b 44 24 e8       	sub    -0x18(%rsp),%rax
    5897:	80 bc 24 d0 00 00 00 	cmpb   $0x0,0xd0(%rsp)
    589e:	00 
    589f:	48 89 84 24 c0 00 00 	mov    %rax,0xc0(%rsp)
    58a6:	00 
    58a7:	0f 85 68 0e 00 00    	jne    6715 <naked_triplets.1+0x1ca5>
    58ad:	4a 8d 7c 83 08       	lea    0x8(%rbx,%r8,4),%rdi
    58b2:	4d 89 df             	mov    %r11,%r15
    58b5:	4c 89 44 24 28       	mov    %r8,0x28(%rsp)
    58ba:	4d 89 e3             	mov    %r12,%r11
    58bd:	48 8b 74 24 a8       	mov    -0x58(%rsp),%rsi
    58c2:	bd 01 00 00 00       	mov    $0x1,%ebp
    58c7:	49 89 fd             	mov    %rdi,%r13
    58ca:	eb 18                	jmp    58e4 <naked_triplets.1+0xe74>
    58cc:	0f 1f 40 00          	nopl   0x0(%rax)
    58d0:	4c 89 f5             	mov    %r14,%rbp
    58d3:	4c 89 d6             	mov    %r10,%rsi
    58d6:	49 83 c5 04          	add    $0x4,%r13
    58da:	49 83 fe 08          	cmp    $0x8,%r14
    58de:	0f 84 24 05 00 00    	je     5e08 <naked_triplets.1+0x1398>
    58e4:	8b 06                	mov    (%rsi),%eax
    58e6:	8d 7d 01             	lea    0x1(%rbp),%edi
    58e9:	4c 8d 75 01          	lea    0x1(%rbp),%r14
    58ed:	89 7c 24 90          	mov    %edi,-0x70(%rsp)
    58f1:	4e 8d 14 1e          	lea    (%rsi,%r11,1),%r10
    58f5:	85 c0                	test   %eax,%eax
    58f7:	75 d7                	jne    58d0 <naked_triplets.1+0xe60>
    58f9:	48 8b 7c 24 28       	mov    0x28(%rsp),%rdi
    58fe:	48 01 ef             	add    %rbp,%rdi
    5901:	49 89 f9             	mov    %rdi,%r9
    5904:	4d 85 ff             	test   %r15,%r15
    5907:	7e c7                	jle    58d0 <naked_triplets.1+0xe60>
    5909:	48 83 7c 24 30 02    	cmpq   $0x2,0x30(%rsp)
    590f:	0f 86 43 13 00 00    	jbe    6c58 <naked_triplets.1+0x21e8>
    5915:	66 0f ef c9          	pxor   %xmm1,%xmm1
    5919:	48 8b 4c 24 38       	mov    0x38(%rsp),%rcx
    591e:	31 c0                	xor    %eax,%eax
    5920:	66 0f 6f d1          	movdqa %xmm1,%xmm2
    5924:	0f 1f 40 00          	nopl   0x0(%rax)
    5928:	48 89 c2             	mov    %rax,%rdx
    592b:	48 83 c0 01          	add    $0x1,%rax
    592f:	48 c1 e2 04          	shl    $0x4,%rdx
    5933:	f3 41 0f 6f 44 15 00 	movdqu 0x0(%r13,%rdx,1),%xmm0
    593a:	66 0f 76 c2          	pcmpeqd %xmm2,%xmm0
    593e:	66 0f 76 c2          	pcmpeqd %xmm2,%xmm0
    5942:	66 0f fa c8          	psubd  %xmm0,%xmm1
    5946:	48 39 c1             	cmp    %rax,%rcx
    5949:	75 dd                	jne    5928 <naked_triplets.1+0xeb8>
    594b:	66 0f 6f c1          	movdqa %xmm1,%xmm0
    594f:	66 0f 73 d8 08       	psrldq $0x8,%xmm0
    5954:	66 0f fe c8          	paddd  %xmm0,%xmm1
    5958:	66 0f 6f c1          	movdqa %xmm1,%xmm0
    595c:	66 0f 73 d8 04       	psrldq $0x4,%xmm0
    5961:	66 0f fe c8          	paddd  %xmm0,%xmm1
    5965:	66 0f 7e c8          	movd   %xmm1,%eax
    5969:	4c 3b 7c 24 40       	cmp    0x40(%rsp),%r15
    596e:	74 36                	je     59a6 <naked_triplets.1+0xf36>
    5970:	48 8b 54 24 58       	mov    0x58(%rsp),%rdx
    5975:	4a 8d 0c 0a          	lea    (%rdx,%r9,1),%rcx
    5979:	83 3c 8b 01          	cmpl   $0x1,(%rbx,%rcx,4)
    597d:	48 8d 4a 01          	lea    0x1(%rdx),%rcx
    5981:	83 d8 ff             	sbb    $0xffffffff,%eax
    5984:	49 39 cf             	cmp    %rcx,%r15
    5987:	7c 1d                	jl     59a6 <naked_triplets.1+0xf36>
    5989:	4c 01 c9             	add    %r9,%rcx
    598c:	83 3c 8b 01          	cmpl   $0x1,(%rbx,%rcx,4)
    5990:	83 d8 ff             	sbb    $0xffffffff,%eax
    5993:	48 83 c2 02          	add    $0x2,%rdx
    5997:	49 39 d7             	cmp    %rdx,%r15
    599a:	7c 0a                	jl     59a6 <naked_triplets.1+0xf36>
    599c:	4c 01 ca             	add    %r9,%rdx
    599f:	83 3c 93 01          	cmpl   $0x1,(%rbx,%rdx,4)
    59a3:	83 d8 ff             	sbb    $0xffffffff,%eax
    59a6:	4c 8d 75 01          	lea    0x1(%rbp),%r14
    59aa:	4e 8d 14 1e          	lea    (%rsi,%r11,1),%r10
    59ae:	83 f8 03             	cmp    $0x3,%eax
    59b1:	0f 85 19 ff ff ff    	jne    58d0 <naked_triplets.1+0xe60>
    59b7:	48 89 ac 24 e0 00 00 	mov    %rbp,0xe0(%rsp)
    59be:	00 
    59bf:	4c 89 ef             	mov    %r13,%rdi
    59c2:	48 8b 74 24 d0       	mov    -0x30(%rsp),%rsi
    59c7:	66 0f ef d2          	pxor   %xmm2,%xmm2
    59cb:	4c 89 6c 24 48       	mov    %r13,0x48(%rsp)
    59d0:	4c 8b 44 24 28       	mov    0x28(%rsp),%r8
    59d5:	4c 89 f5             	mov    %r14,%rbp
    59d8:	4c 89 5c 24 50       	mov    %r11,0x50(%rsp)
    59dd:	4c 8b ac 24 c0 00 00 	mov    0xc0(%rsp),%r13
    59e4:	00 
    59e5:	4d 89 cb             	mov    %r9,%r11
    59e8:	4c 89 54 24 f0       	mov    %r10,-0x10(%rsp)
    59ed:	4c 89 b4 24 f0 00 00 	mov    %r14,0xf0(%rsp)
    59f4:	00 
    59f5:	4c 89 94 24 f8 00 00 	mov    %r10,0xf8(%rsp)
    59fc:	00 
    59fd:	eb 1c                	jmp    5a1b <naked_triplets.1+0xfab>
    59ff:	48 8b 7c 24 50       	mov    0x50(%rsp),%rdi
    5a04:	48 83 c5 01          	add    $0x1,%rbp
    5a08:	48 01 7c 24 f0       	add    %rdi,-0x10(%rsp)
    5a0d:	4c 89 cf             	mov    %r9,%rdi
    5a10:	83 7c 24 90 09       	cmpl   $0x9,-0x70(%rsp)
    5a15:	0f 84 cf 0c 00 00    	je     66ea <naked_triplets.1+0x1c7a>
    5a1b:	48 8b 44 24 f0       	mov    -0x10(%rsp),%rax
    5a20:	83 44 24 90 01       	addl   $0x1,-0x70(%rsp)
    5a25:	4c 8d 4f 04          	lea    0x4(%rdi),%r9
    5a29:	8b 00                	mov    (%rax),%eax
    5a2b:	85 c0                	test   %eax,%eax
    5a2d:	75 d0                	jne    59ff <naked_triplets.1+0xf8f>
    5a2f:	48 83 7c 24 30 02    	cmpq   $0x2,0x30(%rsp)
    5a35:	4e 8d 54 05 00       	lea    0x0(%rbp,%r8,1),%r10
    5a3a:	0f 86 93 17 00 00    	jbe    71d3 <naked_triplets.1+0x2763>
    5a40:	48 8b 4c 24 38       	mov    0x38(%rsp),%rcx
    5a45:	31 c0                	xor    %eax,%eax
    5a47:	66 0f ef c9          	pxor   %xmm1,%xmm1
    5a4b:	48 89 c2             	mov    %rax,%rdx
    5a4e:	48 83 c0 01          	add    $0x1,%rax
    5a52:	48 c1 e2 04          	shl    $0x4,%rdx
    5a56:	f3 41 0f 6f 04 11    	movdqu (%r9,%rdx,1),%xmm0
    5a5c:	66 0f 76 c2          	pcmpeqd %xmm2,%xmm0
    5a60:	66 0f 76 c2          	pcmpeqd %xmm2,%xmm0
    5a64:	66 0f fa c8          	psubd  %xmm0,%xmm1
    5a68:	48 39 c8             	cmp    %rcx,%rax
    5a6b:	75 de                	jne    5a4b <naked_triplets.1+0xfdb>
    5a6d:	66 0f 6f c1          	movdqa %xmm1,%xmm0
    5a71:	66 0f 73 d8 08       	psrldq $0x8,%xmm0
    5a76:	66 0f fe c8          	paddd  %xmm0,%xmm1
    5a7a:	66 0f 6f c1          	movdqa %xmm1,%xmm0
    5a7e:	66 0f 73 d8 04       	psrldq $0x4,%xmm0
    5a83:	66 0f fe c8          	paddd  %xmm0,%xmm1
    5a87:	66 0f 7e c8          	movd   %xmm1,%eax
    5a8b:	4c 3b 7c 24 40       	cmp    0x40(%rsp),%r15
    5a90:	74 36                	je     5ac8 <naked_triplets.1+0x1058>
    5a92:	48 8b 54 24 58       	mov    0x58(%rsp),%rdx
    5a97:	4a 8d 0c 12          	lea    (%rdx,%r10,1),%rcx
    5a9b:	83 3c 8b 01          	cmpl   $0x1,(%rbx,%rcx,4)
    5a9f:	48 8d 4a 01          	lea    0x1(%rdx),%rcx
    5aa3:	83 d8 ff             	sbb    $0xffffffff,%eax
    5aa6:	49 39 cf             	cmp    %rcx,%r15
    5aa9:	7c 1d                	jl     5ac8 <naked_triplets.1+0x1058>
    5aab:	4c 01 d1             	add    %r10,%rcx
    5aae:	83 3c 8b 01          	cmpl   $0x1,(%rbx,%rcx,4)
    5ab2:	83 d8 ff             	sbb    $0xffffffff,%eax
    5ab5:	48 83 c2 02          	add    $0x2,%rdx
    5ab9:	49 39 d7             	cmp    %rdx,%r15
    5abc:	7c 0a                	jl     5ac8 <naked_triplets.1+0x1058>
    5abe:	4c 01 d2             	add    %r10,%rdx
    5ac1:	83 3c 93 01          	cmpl   $0x1,(%rbx,%rdx,4)
    5ac5:	83 d8 ff             	sbb    $0xffffffff,%eax
    5ac8:	83 f8 03             	cmp    $0x3,%eax
    5acb:	0f 85 2e ff ff ff    	jne    59ff <naked_triplets.1+0xf8f>
    5ad1:	48 8b 4c 24 48       	mov    0x48(%rsp),%rcx
    5ad6:	b8 01 00 00 00       	mov    $0x1,%eax
    5adb:	48 83 e9 04          	sub    $0x4,%rcx
    5adf:	48 89 4c 24 18       	mov    %rcx,0x18(%rsp)
    5ae4:	48 8b 4c 24 18       	mov    0x18(%rsp),%rcx
    5ae9:	8b 0c 81             	mov    (%rcx,%rax,4),%ecx
    5aec:	39 0c 87             	cmp    %ecx,(%rdi,%rax,4)
    5aef:	0f 85 0a ff ff ff    	jne    59ff <naked_triplets.1+0xf8f>
    5af5:	48 83 c0 01          	add    $0x1,%rax
    5af9:	49 39 c7             	cmp    %rax,%r15
    5afc:	7d e6                	jge    5ae4 <naked_triplets.1+0x1074>
    5afe:	4c 63 54 24 90       	movslq -0x70(%rsp),%r10
    5b03:	48 8b 44 24 c0       	mov    -0x40(%rsp),%rax
    5b08:	48 8b 7c 24 20       	mov    0x20(%rsp),%rdi
    5b0d:	49 0f af c2          	imul   %r10,%rax
    5b11:	48 03 44 24 b8       	add    -0x48(%rsp),%rax
    5b16:	48 8d 04 87          	lea    (%rdi,%rax,4),%rax
    5b1a:	48 89 44 24 08       	mov    %rax,0x8(%rsp)
    5b1f:	4b 8d 04 02          	lea    (%r10,%r8,1),%rax
