
benchspec/CPU/557.xz_r/exe/xz_r_base.RapModTest-llvm-m64:     file format elf64-x86-64


Disassembly of section .init:

0000000000002000 <_init>:
    2000:	f3 0f 1e fa          	endbr64 
    2004:	48 83 ec 08          	sub    $0x8,%rsp
    2008:	48 8b 05 c9 1f 03 00 	mov    0x31fc9(%rip),%rax        # 33fd8 <__gmon_start__@Base>
    200f:	48 85 c0             	test   %rax,%rax
    2012:	74 02                	je     2016 <_init+0x16>
    2014:	ff d0                	call   *%rax
    2016:	48 83 c4 08          	add    $0x8,%rsp
    201a:	c3                   	ret    

Disassembly of section .plt:

0000000000002020 <free@plt-0x10>:
    2020:	ff 35 e2 1f 03 00    	push   0x31fe2(%rip)        # 34008 <_GLOBAL_OFFSET_TABLE_+0x8>
    2026:	ff 25 e4 1f 03 00    	jmp    *0x31fe4(%rip)        # 34010 <_GLOBAL_OFFSET_TABLE_+0x10>
    202c:	0f 1f 40 00          	nopl   0x0(%rax)

0000000000002030 <free@plt>:
    2030:	ff 25 e2 1f 03 00    	jmp    *0x31fe2(%rip)        # 34018 <free@GLIBC_2.2.5>
    2036:	68 00 00 00 00       	push   $0x0
    203b:	e9 e0 ff ff ff       	jmp    2020 <_init+0x20>

0000000000002040 <putchar@plt>:
    2040:	ff 25 da 1f 03 00    	jmp    *0x31fda(%rip)        # 34020 <putchar@GLIBC_2.2.5>
    2046:	68 01 00 00 00       	push   $0x1
    204b:	e9 d0 ff ff ff       	jmp    2020 <_init+0x20>

0000000000002050 <__errno_location@plt>:
    2050:	ff 25 d2 1f 03 00    	jmp    *0x31fd2(%rip)        # 34028 <__errno_location@GLIBC_2.2.5>
    2056:	68 02 00 00 00       	push   $0x2
    205b:	e9 c0 ff ff ff       	jmp    2020 <_init+0x20>

0000000000002060 <puts@plt>:
    2060:	ff 25 ca 1f 03 00    	jmp    *0x31fca(%rip)        # 34030 <puts@GLIBC_2.2.5>
    2066:	68 03 00 00 00       	push   $0x3
    206b:	e9 b0 ff ff ff       	jmp    2020 <_init+0x20>

0000000000002070 <vsnprintf@plt>:
    2070:	ff 25 c2 1f 03 00    	jmp    *0x31fc2(%rip)        # 34038 <vsnprintf@GLIBC_2.2.5>
    2076:	68 04 00 00 00       	push   $0x4
    207b:	e9 a0 ff ff ff       	jmp    2020 <_init+0x20>

0000000000002080 <strlen@plt>:
    2080:	ff 25 ba 1f 03 00    	jmp    *0x31fba(%rip)        # 34040 <strlen@GLIBC_2.2.5>
    2086:	68 05 00 00 00       	push   $0x5
    208b:	e9 90 ff ff ff       	jmp    2020 <_init+0x20>

0000000000002090 <strchr@plt>:
    2090:	ff 25 b2 1f 03 00    	jmp    *0x31fb2(%rip)        # 34048 <strchr@GLIBC_2.2.5>
    2096:	68 06 00 00 00       	push   $0x6
    209b:	e9 80 ff ff ff       	jmp    2020 <_init+0x20>

00000000000020a0 <printf@plt>:
    20a0:	ff 25 aa 1f 03 00    	jmp    *0x31faa(%rip)        # 34050 <printf@GLIBC_2.2.5>
    20a6:	68 07 00 00 00       	push   $0x7
    20ab:	e9 70 ff ff ff       	jmp    2020 <_init+0x20>

00000000000020b0 <snprintf@plt>:
    20b0:	ff 25 a2 1f 03 00    	jmp    *0x31fa2(%rip)        # 34058 <snprintf@GLIBC_2.2.5>
    20b6:	68 08 00 00 00       	push   $0x8
    20bb:	e9 60 ff ff ff       	jmp    2020 <_init+0x20>

00000000000020c0 <memset@plt>:
    20c0:	ff 25 9a 1f 03 00    	jmp    *0x31f9a(%rip)        # 34060 <memset@GLIBC_2.2.5>
    20c6:	68 09 00 00 00       	push   $0x9
    20cb:	e9 50 ff ff ff       	jmp    2020 <_init+0x20>

00000000000020d0 <close@plt>:
    20d0:	ff 25 92 1f 03 00    	jmp    *0x31f92(%rip)        # 34068 <close@GLIBC_2.2.5>
    20d6:	68 0a 00 00 00       	push   $0xa
    20db:	e9 40 ff ff ff       	jmp    2020 <_init+0x20>

00000000000020e0 <fputc@plt>:
    20e0:	ff 25 8a 1f 03 00    	jmp    *0x31f8a(%rip)        # 34070 <fputc@GLIBC_2.2.5>
    20e6:	68 0b 00 00 00       	push   $0xb
    20eb:	e9 30 ff ff ff       	jmp    2020 <_init+0x20>

00000000000020f0 <read@plt>:
    20f0:	ff 25 82 1f 03 00    	jmp    *0x31f82(%rip)        # 34078 <read@GLIBC_2.2.5>
    20f6:	68 0c 00 00 00       	push   $0xc
    20fb:	e9 20 ff ff ff       	jmp    2020 <_init+0x20>

0000000000002100 <calloc@plt>:
    2100:	ff 25 7a 1f 03 00    	jmp    *0x31f7a(%rip)        # 34080 <calloc@GLIBC_2.2.5>
    2106:	68 0d 00 00 00       	push   $0xd
    210b:	e9 10 ff ff ff       	jmp    2020 <_init+0x20>

0000000000002110 <strcmp@plt>:
    2110:	ff 25 72 1f 03 00    	jmp    *0x31f72(%rip)        # 34088 <strcmp@GLIBC_2.2.5>
    2116:	68 0e 00 00 00       	push   $0xe
    211b:	e9 00 ff ff ff       	jmp    2020 <_init+0x20>

0000000000002120 <putc@plt>:
    2120:	ff 25 6a 1f 03 00    	jmp    *0x31f6a(%rip)        # 34090 <putc@GLIBC_2.2.5>
    2126:	68 0f 00 00 00       	push   $0xf
    212b:	e9 f0 fe ff ff       	jmp    2020 <_init+0x20>

0000000000002130 <fprintf@plt>:
    2130:	ff 25 62 1f 03 00    	jmp    *0x31f62(%rip)        # 34098 <fprintf@GLIBC_2.2.5>
    2136:	68 10 00 00 00       	push   $0x10
    213b:	e9 e0 fe ff ff       	jmp    2020 <_init+0x20>

0000000000002140 <strtol@plt>:
    2140:	ff 25 5a 1f 03 00    	jmp    *0x31f5a(%rip)        # 340a0 <strtol@GLIBC_2.2.5>
    2146:	68 11 00 00 00       	push   $0x11
    214b:	e9 d0 fe ff ff       	jmp    2020 <_init+0x20>

0000000000002150 <memcpy@plt>:
    2150:	ff 25 52 1f 03 00    	jmp    *0x31f52(%rip)        # 340a8 <memcpy@GLIBC_2.14>
    2156:	68 12 00 00 00       	push   $0x12
    215b:	e9 c0 fe ff ff       	jmp    2020 <_init+0x20>

0000000000002160 <malloc@plt>:
    2160:	ff 25 4a 1f 03 00    	jmp    *0x31f4a(%rip)        # 340b0 <malloc@GLIBC_2.2.5>
    2166:	68 13 00 00 00       	push   $0x13
    216b:	e9 b0 fe ff ff       	jmp    2020 <_init+0x20>

0000000000002170 <fflush@plt>:
    2170:	ff 25 42 1f 03 00    	jmp    *0x31f42(%rip)        # 340b8 <fflush@GLIBC_2.2.5>
    2176:	68 14 00 00 00       	push   $0x14
    217b:	e9 a0 fe ff ff       	jmp    2020 <_init+0x20>

0000000000002180 <bcmp@plt>:
    2180:	ff 25 3a 1f 03 00    	jmp    *0x31f3a(%rip)        # 340c0 <bcmp@GLIBC_2.2.5>
    2186:	68 15 00 00 00       	push   $0x15
    218b:	e9 90 fe ff ff       	jmp    2020 <_init+0x20>

0000000000002190 <realloc@plt>:
    2190:	ff 25 32 1f 03 00    	jmp    *0x31f32(%rip)        # 340c8 <realloc@GLIBC_2.2.5>
    2196:	68 16 00 00 00       	push   $0x16
    219b:	e9 80 fe ff ff       	jmp    2020 <_init+0x20>

00000000000021a0 <memmove@plt>:
    21a0:	ff 25 2a 1f 03 00    	jmp    *0x31f2a(%rip)        # 340d0 <memmove@GLIBC_2.2.5>
    21a6:	68 17 00 00 00       	push   $0x17
    21ab:	e9 70 fe ff ff       	jmp    2020 <_init+0x20>

00000000000021b0 <open@plt>:
    21b0:	ff 25 22 1f 03 00    	jmp    *0x31f22(%rip)        # 340d8 <open@GLIBC_2.2.5>
    21b6:	68 18 00 00 00       	push   $0x18
    21bb:	e9 60 fe ff ff       	jmp    2020 <_init+0x20>

00000000000021c0 <exit@plt>:
    21c0:	ff 25 1a 1f 03 00    	jmp    *0x31f1a(%rip)        # 340e0 <exit@GLIBC_2.2.5>
    21c6:	68 19 00 00 00       	push   $0x19
    21cb:	e9 50 fe ff ff       	jmp    2020 <_init+0x20>

00000000000021d0 <fwrite@plt>:
    21d0:	ff 25 12 1f 03 00    	jmp    *0x31f12(%rip)        # 340e8 <fwrite@GLIBC_2.2.5>
    21d6:	68 1a 00 00 00       	push   $0x1a
    21db:	e9 40 fe ff ff       	jmp    2020 <_init+0x20>

00000000000021e0 <strerror@plt>:
    21e0:	ff 25 0a 1f 03 00    	jmp    *0x31f0a(%rip)        # 340f0 <strerror@GLIBC_2.2.5>
    21e6:	68 1b 00 00 00       	push   $0x1b
    21eb:	e9 30 fe ff ff       	jmp    2020 <_init+0x20>

00000000000021f0 <__ctype_tolower_loc@plt>:
    21f0:	ff 25 02 1f 03 00    	jmp    *0x31f02(%rip)        # 340f8 <__ctype_tolower_loc@GLIBC_2.3>
    21f6:	68 1c 00 00 00       	push   $0x1c
    21fb:	e9 20 fe ff ff       	jmp    2020 <_init+0x20>

Disassembly of section .plt.got:

0000000000002200 <__cxa_finalize@plt>:
    2200:	ff 25 ea 1d 03 00    	jmp    *0x31dea(%rip)        # 33ff0 <__cxa_finalize@GLIBC_2.2.5>
    2206:	66 90                	xchg   %ax,%ax

Disassembly of section .text:

0000000000002210 <_start>:
    2210:	f3 0f 1e fa          	endbr64 
    2214:	31 ed                	xor    %ebp,%ebp
    2216:	49 89 d1             	mov    %rdx,%r9
    2219:	5e                   	pop    %rsi
    221a:	48 89 e2             	mov    %rsp,%rdx
    221d:	48 83 e4 f0          	and    $0xfffffffffffffff0,%rsp
    2221:	50                   	push   %rax
    2222:	54                   	push   %rsp
    2223:	45 31 c0             	xor    %r8d,%r8d
    2226:	31 c9                	xor    %ecx,%ecx
    2228:	48 8d 3d d1 00 00 00 	lea    0xd1(%rip),%rdi        # 2300 <main>
    222f:	ff 15 8b 1d 03 00    	call   *0x31d8b(%rip)        # 33fc0 <__libc_start_main@GLIBC_2.34>
    2235:	f4                   	hlt    
    2236:	66 2e 0f 1f 84 00 00 	cs nopw 0x0(%rax,%rax,1)
    223d:	00 00 00 

0000000000002240 <deregister_tm_clones>:
    2240:	48 8d 3d e9 1e 03 00 	lea    0x31ee9(%rip),%rdi        # 34130 <__TMC_END__>
    2247:	48 8d 05 e2 1e 03 00 	lea    0x31ee2(%rip),%rax        # 34130 <__TMC_END__>
    224e:	48 39 f8             	cmp    %rdi,%rax
    2251:	74 15                	je     2268 <deregister_tm_clones+0x28>
    2253:	48 8b 05 6e 1d 03 00 	mov    0x31d6e(%rip),%rax        # 33fc8 <_ITM_deregisterTMCloneTable@Base>
    225a:	48 85 c0             	test   %rax,%rax
    225d:	74 09                	je     2268 <deregister_tm_clones+0x28>
    225f:	ff e0                	jmp    *%rax
    2261:	0f 1f 80 00 00 00 00 	nopl   0x0(%rax)
    2268:	c3                   	ret    
    2269:	0f 1f 80 00 00 00 00 	nopl   0x0(%rax)

0000000000002270 <register_tm_clones>:
    2270:	48 8d 3d b9 1e 03 00 	lea    0x31eb9(%rip),%rdi        # 34130 <__TMC_END__>
    2277:	48 8d 35 b2 1e 03 00 	lea    0x31eb2(%rip),%rsi        # 34130 <__TMC_END__>
    227e:	48 29 fe             	sub    %rdi,%rsi
    2281:	48 89 f0             	mov    %rsi,%rax
    2284:	48 c1 ee 3f          	shr    $0x3f,%rsi
    2288:	48 c1 f8 03          	sar    $0x3,%rax
    228c:	48 01 c6             	add    %rax,%rsi
    228f:	48 d1 fe             	sar    %rsi
    2292:	74 14                	je     22a8 <register_tm_clones+0x38>
    2294:	48 8b 05 4d 1d 03 00 	mov    0x31d4d(%rip),%rax        # 33fe8 <_ITM_registerTMCloneTable@Base>
    229b:	48 85 c0             	test   %rax,%rax
    229e:	74 08                	je     22a8 <register_tm_clones+0x38>
    22a0:	ff e0                	jmp    *%rax
    22a2:	66 0f 1f 44 00 00    	nopw   0x0(%rax,%rax,1)
    22a8:	c3                   	ret    
    22a9:	0f 1f 80 00 00 00 00 	nopl   0x0(%rax)

00000000000022b0 <__do_global_dtors_aux>:
    22b0:	f3 0f 1e fa          	endbr64 
    22b4:	80 3d 75 1e 03 00 00 	cmpb   $0x0,0x31e75(%rip)        # 34130 <__TMC_END__>
    22bb:	75 2b                	jne    22e8 <__do_global_dtors_aux+0x38>
    22bd:	55                   	push   %rbp
    22be:	48 83 3d 2a 1d 03 00 	cmpq   $0x0,0x31d2a(%rip)        # 33ff0 <__cxa_finalize@GLIBC_2.2.5>
    22c5:	00 
    22c6:	48 89 e5             	mov    %rsp,%rbp
    22c9:	74 0c                	je     22d7 <__do_global_dtors_aux+0x27>
    22cb:	48 8b 3d 36 1e 03 00 	mov    0x31e36(%rip),%rdi        # 34108 <__dso_handle>
    22d2:	e8 29 ff ff ff       	call   2200 <__cxa_finalize@plt>
    22d7:	e8 64 ff ff ff       	call   2240 <deregister_tm_clones>
    22dc:	c6 05 4d 1e 03 00 01 	movb   $0x1,0x31e4d(%rip)        # 34130 <__TMC_END__>
    22e3:	5d                   	pop    %rbp
    22e4:	c3                   	ret    
    22e5:	0f 1f 00             	nopl   (%rax)
    22e8:	c3                   	ret    
    22e9:	0f 1f 80 00 00 00 00 	nopl   0x0(%rax)

00000000000022f0 <frame_dummy>:
    22f0:	f3 0f 1e fa          	endbr64 
    22f4:	e9 77 ff ff ff       	jmp    2270 <register_tm_clones>
    22f9:	0f 1f 80 00 00 00 00 	nopl   0x0(%rax)

0000000000002300 <main>:
    2300:	55                   	push   %rbp
    2301:	41 57                	push   %r15
    2303:	41 56                	push   %r14
    2305:	41 55                	push   %r13
    2307:	41 54                	push   %r12
    2309:	53                   	push   %rbx
    230a:	48 83 ec 38          	sub    $0x38,%rsp
    230e:	49 89 f5             	mov    %rsi,%r13
    2311:	41 89 fe             	mov    %edi,%r14d
    2314:	bf 40 00 00 00       	mov    $0x40,%edi
    2319:	e8 42 fe ff ff       	call   2160 <malloc@plt>
    231e:	48 89 44 24 18       	mov    %rax,0x18(%rsp)
    2323:	48 85 c0             	test   %rax,%rax
    2326:	0f 84 bd 04 00 00    	je     27e9 <main+0x4e9>
    232c:	49 c7 c7 ff ff ff ff 	mov    $0xffffffffffffffff,%r15
    2333:	31 db                	xor    %ebx,%ebx
    2335:	41 83 fe 02          	cmp    $0x2,%r14d
    2339:	0f 8c ad 00 00 00    	jl     23ec <main+0xec>
    233f:	49 8b 6d 08          	mov    0x8(%r13),%rbp
    2343:	31 db                	xor    %ebx,%ebx
    2345:	41 83 fe 02          	cmp    $0x2,%r14d
    2349:	0f 84 9f 00 00 00    	je     23ee <main+0xee>
    234f:	49 8b 7d 10          	mov    0x10(%r13),%rdi
    2353:	31 db                	xor    %ebx,%ebx
    2355:	31 f6                	xor    %esi,%esi
    2357:	ba 0a 00 00 00       	mov    $0xa,%edx
    235c:	e8 df fd ff ff       	call   2140 <strtol@plt>
    2361:	49 89 c4             	mov    %rax,%r12
    2364:	41 83 fe 04          	cmp    $0x4,%r14d
    2368:	0f 82 83 00 00 00    	jb     23f1 <main+0xf1>
    236e:	49 8b 5d 18          	mov    0x18(%r13),%rbx
    2372:	48 89 df             	mov    %rbx,%rdi
    2375:	e8 06 fd ff ff       	call   2080 <strlen@plt>
    237a:	48 b9 ff ff ff ff ff 	movabs $0x3fffffffffffffff,%rcx
    2381:	ff ff 3f 
    2384:	48 21 c1             	and    %rax,%rcx
    2387:	48 81 f9 80 00 00 00 	cmp    $0x80,%rcx
    238e:	0f 85 9c 04 00 00    	jne    2830 <main+0x530>
    2394:	48 89 df             	mov    %rbx,%rdi
    2397:	be 00 02 00 00       	mov    $0x200,%esi
    239c:	e8 3f fe 01 00       	call   221e0 <sum_str_to_hex>
    23a1:	48 89 c3             	mov    %rax,%rbx
    23a4:	41 83 fe 04          	cmp    $0x4,%r14d
    23a8:	74 47                	je     23f1 <main+0xf1>
    23aa:	49 8b 7d 20          	mov    0x20(%r13),%rdi
    23ae:	31 f6                	xor    %esi,%esi
    23b0:	ba 0a 00 00 00       	mov    $0xa,%edx
    23b5:	e8 86 fd ff ff       	call   2140 <strtol@plt>
    23ba:	49 89 c7             	mov    %rax,%r15
    23bd:	41 83 fe 06          	cmp    $0x6,%r14d
    23c1:	0f 82 67 03 00 00    	jb     272e <main+0x42e>
    23c7:	49 8b 7d 28          	mov    0x28(%r13),%rdi
    23cb:	31 f6                	xor    %esi,%esi
    23cd:	ba 0a 00 00 00       	mov    $0xa,%edx
    23d2:	e8 69 fd ff ff       	call   2140 <strtol@plt>
    23d7:	48 85 c0             	test   %rax,%rax
    23da:	4c 89 f9             	mov    %r15,%rcx
    23dd:	48 0f 49 c8          	cmovns %rax,%rcx
    23e1:	41 83 fe 06          	cmp    $0x6,%r14d
    23e5:	7d 1b                	jge    2402 <main+0x102>
    23e7:	e9 4f 03 00 00       	jmp    273b <main+0x43b>
    23ec:	31 ed                	xor    %ebp,%ebp
    23ee:	45 31 e4             	xor    %r12d,%r12d
    23f1:	48 c7 c1 ff ff ff ff 	mov    $0xffffffffffffffff,%rcx
    23f8:	41 83 fe 06          	cmp    $0x6,%r14d
    23fc:	0f 8c 39 03 00 00    	jl     273b <main+0x43b>
    2402:	48 85 ed             	test   %rbp,%rbp
    2405:	0f 84 30 03 00 00    	je     273b <main+0x43b>
    240b:	4d 85 e4             	test   %r12,%r12
    240e:	0f 8e 27 03 00 00    	jle    273b <main+0x43b>
    2414:	48 85 db             	test   %rbx,%rbx
    2417:	0f 84 1e 03 00 00    	je     273b <main+0x43b>
    241d:	4d 85 ff             	test   %r15,%r15
    2420:	0f 84 15 03 00 00    	je     273b <main+0x43b>
    2426:	48 85 c9             	test   %rcx,%rcx
    2429:	0f 84 0c 03 00 00    	je     273b <main+0x43b>
    242f:	48 89 4c 24 20       	mov    %rcx,0x20(%rsp)
    2434:	4c 89 7c 24 30       	mov    %r15,0x30(%rsp)
    2439:	48 8d 3d bd 0c 02 00 	lea    0x20cbd(%rip),%rdi        # 230fd <_IO_stdin_used+0xfd>
    2440:	48 89 ee             	mov    %rbp,%rsi
    2443:	4c 89 e2             	mov    %r12,%rdx
    2446:	31 c0                	xor    %eax,%eax
    2448:	e8 53 fc ff ff       	call   20a0 <printf@plt>
    244d:	bf 03 00 00 00       	mov    $0x3,%edi
    2452:	e8 89 fe 01 00       	call   222e0 <spec_mem_alloc_fds>
    2457:	4c 8d 3d a2 61 03 00 	lea    0x361a2(%rip),%r15        # 38600 <spec_fd>
    245e:	49 89 07             	mov    %rax,(%r15)
    2461:	48 85 c0             	test   %rax,%rax
    2464:	0f 84 9c 03 00 00    	je     2806 <main+0x506>
    246a:	4c 89 24 24          	mov    %r12,(%rsp)
    246e:	4c 8b 24 24          	mov    (%rsp),%r12
    2472:	49 c1 e4 14          	shl    $0x14,%r12
    2476:	48 81 3c 24 fe 00 00 	cmpq   $0xfe,(%rsp)
    247d:	00 
    247e:	b9 00 00 e0 0f       	mov    $0xfe00000,%ecx
    2483:	49 0f 43 cc          	cmovae %r12,%rcx
    2487:	48 89 48 28          	mov    %rcx,0x28(%rax)
    248b:	48 89 08             	mov    %rcx,(%rax)
    248e:	49 8b 3f             	mov    (%r15),%rdi
    2491:	be 03 00 00 00       	mov    $0x3,%esi
    2496:	ba 01 00 00 00       	mov    $0x1,%edx
    249b:	e8 90 de 01 00       	call   20330 <spec_mem_init>
    24a0:	e8 2b fd 01 00       	call   221d0 <debug_time>
    24a5:	48 8d 3d df 0e 02 00 	lea    0x20edf(%rip),%rdi        # 2338b <_IO_stdin_used+0x38b>
    24ac:	e8 af fb ff ff       	call   2060 <puts@plt>
    24b1:	49 8b 3f             	mov    (%r15),%rdi
    24b4:	be 03 00 00 00       	mov    $0x3,%esi
    24b9:	31 d2                	xor    %edx,%edx
    24bb:	48 89 e9             	mov    %rbp,%rcx
    24be:	4d 89 e0             	mov    %r12,%r8
    24c1:	41 b9 01 00 00 00    	mov    $0x1,%r9d
    24c7:	68 00 02 00 00       	push   $0x200
    24cc:	53                   	push   %rbx
    24cd:	e8 2e e1 01 00       	call   20600 <spec_mem_load>
    24d2:	48 83 c4 10          	add    $0x10,%rsp
    24d6:	48 89 44 24 10       	mov    %rax,0x10(%rsp)
    24db:	49 8b 07             	mov    (%r15),%rax
    24de:	48 8b 70 08          	mov    0x8(%rax),%rsi
    24e2:	48 8d 3d 6a 0c 02 00 	lea    0x20c6a(%rip),%rdi        # 23153 <_IO_stdin_used+0x153>
    24e9:	31 c0                	xor    %eax,%eax
    24eb:	e8 b0 fb ff ff       	call   20a0 <printf@plt>
    24f0:	49 8b 07             	mov    (%r15),%rax
    24f3:	c7 40 68 01 00 00 00 	movl   $0x1,0x68(%rax)
    24fa:	c7 40 40 01 00 00 00 	movl   $0x1,0x40(%rax)
    2501:	c7 40 18 01 00 00 00 	movl   $0x1,0x18(%rax)
    2508:	31 c0                	xor    %eax,%eax
    250a:	e8 31 fc 01 00       	call   22140 <spec_initbufs>
    250f:	41 83 fe 07          	cmp    $0x7,%r14d
    2513:	0f 82 04 02 00 00    	jb     271d <main+0x41d>
    2519:	44 89 f0             	mov    %r14d,%eax
    251c:	48 89 44 24 28       	mov    %rax,0x28(%rsp)
    2521:	41 be 06 00 00 00    	mov    $0x6,%r14d
    2527:	4c 89 6c 24 08       	mov    %r13,0x8(%rsp)
    252c:	4b 8b 74 f5 00       	mov    0x0(%r13,%r14,8),%rsi
    2531:	0f b6 2e             	movzbl (%rsi),%ebp
    2534:	8d 45 c6             	lea    -0x3a(%rbp),%eax
    2537:	3c f5                	cmp    $0xf5,%al
    2539:	0f 86 02 02 00 00    	jbe    2741 <main+0x441>
    253f:	45 31 ed             	xor    %r13d,%r13d
    2542:	80 7e 01 65          	cmpb   $0x65,0x1(%rsi)
    2546:	41 0f 94 c5          	sete   %r13b
    254a:	48 8d 1d 1e 89 02 00 	lea    0x2891e(%rip),%rbx        # 2ae6f <message_filters_to_str.bcj_names+0x23f>
    2551:	48 8d 05 6b 0c 02 00 	lea    0x20c6b(%rip),%rax        # 231c3 <_IO_stdin_used+0x1c3>
    2558:	48 0f 44 d8          	cmove  %rax,%rbx
    255c:	41 c1 e5 1f          	shl    $0x1f,%r13d
    2560:	44 8d 65 d0          	lea    -0x30(%rbp),%r12d
    2564:	e8 67 fc 01 00       	call   221d0 <debug_time>
    2569:	48 8d 3d 2f 0c 02 00 	lea    0x20c2f(%rip),%rdi        # 2319f <_IO_stdin_used+0x19f>
    2570:	44 89 e6             	mov    %r12d,%esi
    2573:	48 89 da             	mov    %rbx,%rdx
    2576:	31 c0                	xor    %eax,%eax
    2578:	e8 23 fb ff ff       	call   20a0 <printf@plt>
    257d:	41 8d 54 2d d0       	lea    -0x30(%r13,%rbp,1),%edx
    2582:	31 ff                	xor    %edi,%edi
    2584:	be 01 00 00 00       	mov    $0x1,%esi
    2589:	e8 c2 fb 01 00       	call   22150 <spec_compress>
    258e:	e8 3d fc 01 00       	call   221d0 <debug_time>
    2593:	48 8b 05 5e 1a 03 00 	mov    0x31a5e(%rip),%rax        # 33ff8 <stderr@GLIBC_2.2.5>
    259a:	48 8b 38             	mov    (%rax),%rdi
    259d:	49 8b 07             	mov    (%r15),%rax
    25a0:	48 8b 50 30          	mov    0x30(%rax),%rdx
    25a4:	48 8d 35 23 0c 02 00 	lea    0x20c23(%rip),%rsi        # 231ce <_IO_stdin_used+0x1ce>
    25ab:	31 c0                	xor    %eax,%eax
    25ad:	e8 7e fb ff ff       	call   2130 <fprintf@plt>
    25b2:	48 8b 54 24 30       	mov    0x30(%rsp),%rdx
    25b7:	48 85 d2             	test   %rdx,%rdx
    25ba:	4c 8b 24 24          	mov    (%rsp),%r12
    25be:	7e 65                	jle    2625 <main+0x325>
    25c0:	49 8b 07             	mov    (%r15),%rax
    25c3:	48 8b 70 30          	mov    0x30(%rax),%rsi
    25c7:	48 39 d6             	cmp    %rdx,%rsi
    25ca:	48 8b 44 24 20       	mov    0x20(%rsp),%rax
    25cf:	7c 1f                	jl     25f0 <main+0x2f0>
    25d1:	48 39 c6             	cmp    %rax,%rsi
    25d4:	7f 1a                	jg     25f0 <main+0x2f0>
    25d6:	48 39 c2             	cmp    %rax,%rdx
    25d9:	75 36                	jne    2611 <main+0x311>
    25db:	48 8d 3d 11 0c 02 00 	lea    0x20c11(%rip),%rdi        # 231f3 <_IO_stdin_used+0x1f3>
    25e2:	48 89 d6             	mov    %rdx,%rsi
    25e5:	31 c0                	xor    %eax,%eax
    25e7:	e8 b4 fa ff ff       	call   20a0 <printf@plt>
    25ec:	eb 37                	jmp    2625 <main+0x325>
    25ee:	66 90                	xchg   %ax,%ax
    25f0:	48 39 c2             	cmp    %rax,%rdx
    25f3:	75 09                	jne    25fe <main+0x2fe>
    25f5:	48 8d 3d 5e 0c 02 00 	lea    0x20c5e(%rip),%rdi        # 2325a <_IO_stdin_used+0x25a>
    25fc:	eb 20                	jmp    261e <main+0x31e>
    25fe:	48 8d 3d a0 0c 02 00 	lea    0x20ca0(%rip),%rdi        # 232a5 <_IO_stdin_used+0x2a5>
    2605:	48 89 c1             	mov    %rax,%rcx
    2608:	31 c0                	xor    %eax,%eax
    260a:	e8 91 fa ff ff       	call   20a0 <printf@plt>
    260f:	eb 14                	jmp    2625 <main+0x325>
    2611:	48 8d 3d 0a 0c 02 00 	lea    0x20c0a(%rip),%rdi        # 23222 <_IO_stdin_used+0x222>
    2618:	48 89 d6             	mov    %rdx,%rsi
    261b:	48 89 c2             	mov    %rax,%rdx
    261e:	31 c0                	xor    %eax,%eax
    2620:	e8 7b fa ff ff       	call   20a0 <printf@plt>
    2625:	48 8d 3d 72 0d 02 00 	lea    0x20d72(%rip),%rdi        # 2339e <_IO_stdin_used+0x39e>
    262c:	e8 2f fa ff ff       	call   2060 <puts@plt>
    2631:	49 8b 3f             	mov    (%r15),%rdi
    2634:	be 03 00 00 00       	mov    $0x3,%esi
    2639:	31 d2                	xor    %edx,%edx
    263b:	e8 10 f1 01 00       	call   21750 <spec_mem_reset>
    2640:	49 8b 3f             	mov    (%r15),%rdi
    2643:	be 03 00 00 00       	mov    $0x3,%esi
    2648:	ba 01 00 00 00       	mov    $0x1,%edx
    264d:	e8 ae f0 01 00       	call   21700 <spec_mem_rewind>
    2652:	e8 79 fb 01 00       	call   221d0 <debug_time>
    2657:	48 8d 3d 5a 0d 02 00 	lea    0x20d5a(%rip),%rdi        # 233b8 <_IO_stdin_used+0x3b8>
    265e:	e8 fd f9 ff ff       	call   2060 <puts@plt>
    2663:	bf 01 00 00 00       	mov    $0x1,%edi
    2668:	31 f6                	xor    %esi,%esi
    266a:	e8 f1 e6 01 00       	call   20d60 <spec_uncompress>
    266f:	e8 5c fb 01 00       	call   221d0 <debug_time>
    2674:	49 8b 07             	mov    (%r15),%rax
    2677:	48 8b 70 08          	mov    0x8(%rax),%rsi
    267b:	48 8d 3d 75 0c 02 00 	lea    0x20c75(%rip),%rdi        # 232f7 <_IO_stdin_used+0x2f7>
    2682:	31 c0                	xor    %eax,%eax
    2684:	e8 17 fa ff ff       	call   20a0 <printf@plt>
    2689:	49 8b 3f             	mov    (%r15),%rdi
    268c:	48 8b 5c 24 18       	mov    0x18(%rsp),%rbx
    2691:	48 89 de             	mov    %rbx,%rsi
    2694:	ba 00 02 00 00       	mov    $0x200,%edx
    2699:	e8 a2 de 01 00       	call   20540 <spec_mem_sum>
    269e:	48 8b 7c 24 10       	mov    0x10(%rsp),%rdi
    26a3:	48 89 de             	mov    %rbx,%rsi
    26a6:	ba 00 02 00 00       	mov    $0x200,%edx
    26ab:	e8 30 e7 01 00       	call   20de0 <compare_sum>
    26b0:	85 c0                	test   %eax,%eax
    26b2:	0f 85 bc 00 00 00    	jne    2774 <main+0x474>
    26b8:	e8 13 fb 01 00       	call   221d0 <debug_time>
    26bd:	48 8d 3d 1d 0d 02 00 	lea    0x20d1d(%rip),%rdi        # 233e1 <_IO_stdin_used+0x3e1>
    26c4:	e8 97 f9 ff ff       	call   2060 <puts@plt>
    26c9:	49 8b 3f             	mov    (%r15),%rdi
    26cc:	be 03 00 00 00       	mov    $0x3,%esi
    26d1:	ba 01 00 00 00       	mov    $0x1,%edx
    26d6:	e8 75 f0 01 00       	call   21750 <spec_mem_reset>
    26db:	49 8b 3f             	mov    (%r15),%rdi
    26de:	be 03 00 00 00       	mov    $0x3,%esi
    26e3:	31 d2                	xor    %edx,%edx
    26e5:	e8 16 f0 01 00       	call   21700 <spec_mem_rewind>
    26ea:	48 8d 3d 7e 0c 02 00 	lea    0x20c7e(%rip),%rdi        # 2336f <_IO_stdin_used+0x36f>
    26f1:	4c 89 e6             	mov    %r12,%rsi
    26f4:	31 c0                	xor    %eax,%eax
    26f6:	e8 a5 f9 ff ff       	call   20a0 <printf@plt>
    26fb:	48 8b 05 ce 18 03 00 	mov    0x318ce(%rip),%rax        # 33fd0 <stdout@GLIBC_2.2.5>
    2702:	48 8b 38             	mov    (%rax),%rdi
    2705:	e8 66 fa ff ff       	call   2170 <fflush@plt>
    270a:	49 ff c6             	inc    %r14
    270d:	4c 39 74 24 28       	cmp    %r14,0x28(%rsp)
    2712:	4c 8b 6c 24 08       	mov    0x8(%rsp),%r13
    2717:	0f 85 0f fe ff ff    	jne    252c <main+0x22c>
    271d:	31 c0                	xor    %eax,%eax
    271f:	48 83 c4 38          	add    $0x38,%rsp
    2723:	5b                   	pop    %rbx
    2724:	41 5c                	pop    %r12
    2726:	41 5d                	pop    %r13
    2728:	41 5e                	pop    %r14
    272a:	41 5f                	pop    %r15
    272c:	5d                   	pop    %rbp
    272d:	c3                   	ret    
    272e:	4c 89 f9             	mov    %r15,%rcx
    2731:	41 83 fe 06          	cmp    $0x6,%r14d
    2735:	0f 8d c7 fc ff ff    	jge    2402 <main+0x102>
    273b:	49 8b 75 00          	mov    0x0(%r13),%rsi
    273f:	eb 16                	jmp    2757 <main+0x457>
    2741:	48 8d 3d 2b 0a 02 00 	lea    0x20a2b(%rip),%rdi        # 23173 <_IO_stdin_used+0x173>
    2748:	31 c0                	xor    %eax,%eax
    274a:	e8 51 f9 ff ff       	call   20a0 <printf@plt>
    274f:	48 8b 44 24 08       	mov    0x8(%rsp),%rax
    2754:	48 8b 30             	mov    (%rax),%rsi
    2757:	48 8d 3d 20 09 02 00 	lea    0x20920(%rip),%rdi        # 2307e <_IO_stdin_used+0x7e>
    275e:	ba 00 02 00 00       	mov    $0x200,%edx
    2763:	31 c0                	xor    %eax,%eax
    2765:	e8 36 f9 ff ff       	call   20a0 <printf@plt>
    276a:	bf 01 00 00 00       	mov    $0x1,%edi
    276f:	e8 4c fa ff ff       	call   21c0 <exit@plt>
    2774:	48 8d 3d a3 0b 02 00 	lea    0x20ba3(%rip),%rdi        # 2331e <_IO_stdin_used+0x31e>
    277b:	be 00 02 00 00       	mov    $0x200,%esi
    2780:	31 c0                	xor    %eax,%eax
    2782:	e8 19 f9 ff ff       	call   20a0 <printf@plt>
    2787:	48 8d 3d d3 0b 02 00 	lea    0x20bd3(%rip),%rdi        # 23361 <_IO_stdin_used+0x361>
    278e:	31 c0                	xor    %eax,%eax
    2790:	e8 0b f9 ff ff       	call   20a0 <printf@plt>
    2795:	48 8b 1d 34 18 03 00 	mov    0x31834(%rip),%rbx        # 33fd0 <stdout@GLIBC_2.2.5>
    279c:	48 8b 3b             	mov    (%rbx),%rdi
    279f:	48 8b 74 24 18       	mov    0x18(%rsp),%rsi
    27a4:	ba 00 02 00 00       	mov    $0x200,%edx
    27a9:	e8 b2 e6 01 00       	call   20e60 <print_sum>
    27ae:	bf 0a 00 00 00       	mov    $0xa,%edi
    27b3:	e8 88 f8 ff ff       	call   2040 <putchar@plt>
    27b8:	48 8d 3d 45 9d 02 00 	lea    0x29d45(%rip),%rdi        # 2c504 <uint64_to_nicestr.suffix+0x2a4>
    27bf:	31 c0                	xor    %eax,%eax
    27c1:	e8 da f8 ff ff       	call   20a0 <printf@plt>
    27c6:	48 8b 3b             	mov    (%rbx),%rdi
    27c9:	48 8b 74 24 10       	mov    0x10(%rsp),%rsi
    27ce:	ba 00 02 00 00       	mov    $0x200,%edx
    27d3:	e8 88 e6 01 00       	call   20e60 <print_sum>
    27d8:	bf 0a 00 00 00       	mov    $0xa,%edi
    27dd:	e8 5e f8 ff ff       	call   2040 <putchar@plt>
    27e2:	31 ff                	xor    %edi,%edi
    27e4:	e8 d7 f9 ff ff       	call   21c0 <exit@plt>
    27e9:	48 8d 3d 14 08 02 00 	lea    0x20814(%rip),%rdi        # 23004 <_IO_stdin_used+0x4>
    27f0:	be 00 02 00 00       	mov    $0x200,%esi
    27f5:	31 c0                	xor    %eax,%eax
    27f7:	e8 a4 f8 ff ff       	call   20a0 <printf@plt>
    27fc:	bf 01 00 00 00       	mov    $0x1,%edi
    2801:	e8 ba f9 ff ff       	call   21c0 <exit@plt>
    2806:	48 8b 05 eb 17 03 00 	mov    0x317eb(%rip),%rax        # 33ff8 <stderr@GLIBC_2.2.5>
    280d:	48 8b 08             	mov    (%rax),%rcx
    2810:	48 8d 3d 0f 09 02 00 	lea    0x2090f(%rip),%rdi        # 23126 <_IO_stdin_used+0x126>
    2817:	be 2c 00 00 00       	mov    $0x2c,%esi
    281c:	ba 01 00 00 00       	mov    $0x1,%edx
    2821:	e8 aa f9 ff ff       	call   21d0 <fwrite@plt>
    2826:	bf 01 00 00 00       	mov    $0x1,%edi
    282b:	e8 90 f9 ff ff       	call   21c0 <exit@plt>
    2830:	48 8b 05 c1 17 03 00 	mov    0x317c1(%rip),%rax        # 33ff8 <stderr@GLIBC_2.2.5>
    2837:	48 8b 38             	mov    (%rax),%rdi
    283a:	48 8d 35 f1 07 02 00 	lea    0x207f1(%rip),%rsi        # 23032 <_IO_stdin_used+0x32>
    2841:	ba 00 02 00 00       	mov    $0x200,%edx
    2846:	31 c0                	xor    %eax,%eax
    2848:	e8 e3 f8 ff ff       	call   2130 <fprintf@plt>
    284d:	bf 01 00 00 00       	mov    $0x1,%edi
    2852:	e8 69 f9 ff ff       	call   21c0 <exit@plt>
    2857:	66 0f 1f 84 00 00 00 	nopw   0x0(%rax,%rax,1)
    285e:	00 00 

0000000000002860 <init_encoder>:
    2860:	55                   	push   %rbp
    2861:	41 57                	push   %r15
    2863:	41 56                	push   %r14
    2865:	53                   	push   %rbx
    2866:	48 81 ec c8 00 00 00 	sub    $0xc8,%rsp
    286d:	89 d3                	mov    %edx,%ebx
    286f:	49 89 fe             	mov    %rdi,%r14
    2872:	48 85 f6             	test   %rsi,%rsi
    2875:	4c 8d 7c 24 58       	lea    0x58(%rsp),%r15
    287a:	4c 0f 45 fe          	cmovne %rsi,%r15
    287e:	83 f9 10             	cmp    $0x10,%ecx
    2881:	bd 04 00 00 00       	mov    $0x4,%ebp
    2886:	0f 42 e9             	cmovb  %ecx,%ebp
    2889:	4c 89 ff             	mov    %r15,%rdi
    288c:	89 d6                	mov    %edx,%esi
    288e:	e8 ed f3 00 00       	call   11c80 <lzma_lzma_preset>
    2893:	48 c7 04 24 21 00 00 	movq   $0x21,(%rsp)
    289a:	00 
    289b:	4c 89 7c 24 08       	mov    %r15,0x8(%rsp)
    28a0:	48 c7 44 24 10 ff ff 	movq   $0xffffffffffffffff,0x10(%rsp)
    28a7:	ff ff 
    28a9:	48 89 e6             	mov    %rsp,%rsi
    28ac:	4c 89 f7             	mov    %r14,%rdi
    28af:	89 ea                	mov    %ebp,%edx
    28b1:	e8 ea 50 00 00       	call   79a0 <lzma_stream_encoder>
    28b6:	83 f8 08             	cmp    $0x8,%eax
    28b9:	77 3d                	ja     28f8 <init_encoder+0x98>
    28bb:	48 8d 0d 06 0c 02 00 	lea    0x20c06(%rip),%rcx        # 234c8 <_IO_stdin_used+0x4c8>
    28c2:	89 c2                	mov    %eax,%edx
    28c4:	48 8d 35 3d 0b 02 00 	lea    0x20b3d(%rip),%rsi        # 23408 <_IO_stdin_used+0x408>
    28cb:	48 63 14 96          	movslq (%rsi,%rdx,4),%rdx
    28cf:	48 01 f2             	add    %rsi,%rdx
    28d2:	ff e2                	jmp    *%rdx
    28d4:	41 b6 01             	mov    $0x1,%r14b
    28d7:	eb 3e                	jmp    2917 <init_encoder+0xb7>
    28d9:	4c 89 f7             	mov    %r14,%rdi
    28dc:	41 89 c6             	mov    %eax,%r14d
    28df:	49 89 cf             	mov    %rcx,%r15
    28e2:	e8 e9 0b 00 00       	call   34d0 <lzma_get_check>
    28e7:	4c 89 f9             	mov    %r15,%rcx
    28ea:	44 89 f0             	mov    %r14d,%eax
    28ed:	eb 10                	jmp    28ff <init_encoder+0x9f>
    28ef:	48 8d 0d eb 0b 02 00 	lea    0x20beb(%rip),%rcx        # 234e1 <_IO_stdin_used+0x4e1>
    28f6:	eb 07                	jmp    28ff <init_encoder+0x9f>
    28f8:	48 8d 0d 04 0c 02 00 	lea    0x20c04(%rip),%rcx        # 23503 <_IO_stdin_used+0x503>
    28ff:	48 8d 3d 0b 0c 02 00 	lea    0x20c0b(%rip),%rdi        # 23511 <_IO_stdin_used+0x511>
    2906:	45 31 f6             	xor    %r14d,%r14d
    2909:	89 de                	mov    %ebx,%esi
    290b:	89 ea                	mov    %ebp,%edx
    290d:	41 89 c0             	mov    %eax,%r8d
    2910:	31 c0                	xor    %eax,%eax
    2912:	e8 89 f7 ff ff       	call   20a0 <printf@plt>
    2917:	44 89 f0             	mov    %r14d,%eax
    291a:	48 81 c4 c8 00 00 00 	add    $0xc8,%rsp
    2921:	5b                   	pop    %rbx
    2922:	41 5e                	pop    %r14
    2924:	41 5f                	pop    %r15
    2926:	5d                   	pop    %rbp
    2927:	c3                   	ret    
    2928:	0f 1f 84 00 00 00 00 	nopl   0x0(%rax,%rax,1)
    292f:	00 

0000000000002930 <uncompressStream>:
    2930:	55                   	push   %rbp
    2931:	41 57                	push   %r15
    2933:	41 56                	push   %r14
    2935:	41 55                	push   %r13
    2937:	41 54                	push   %r12
    2939:	53                   	push   %rbx
    293a:	48 81 ec a8 40 00 00 	sub    $0x40a8,%rsp
    2941:	89 74 24 0c          	mov    %esi,0xc(%rsp)
    2945:	89 fd                	mov    %edi,%ebp
    2947:	0f 57 c0             	xorps  %xmm0,%xmm0
    294a:	0f 29 84 24 80 00 00 	movaps %xmm0,0x80(%rsp)
    2951:	00 
    2952:	0f 29 44 24 70       	movaps %xmm0,0x70(%rsp)
    2957:	0f 29 44 24 60       	movaps %xmm0,0x60(%rsp)
    295c:	0f 29 44 24 50       	movaps %xmm0,0x50(%rsp)
    2961:	0f 29 44 24 40       	movaps %xmm0,0x40(%rsp)
    2966:	0f 29 44 24 30       	movaps %xmm0,0x30(%rsp)
    296b:	0f 29 44 24 20       	movaps %xmm0,0x20(%rsp)
    2970:	0f 29 44 24 10       	movaps %xmm0,0x10(%rsp)
    2975:	48 c7 84 24 90 00 00 	movq   $0x0,0x90(%rsp)
    297c:	00 00 00 00 00 
    2981:	48 8d 7c 24 10       	lea    0x10(%rsp),%rdi
    2986:	48 c7 c6 ff ff ff ff 	mov    $0xffffffffffffffff,%rsi
    298d:	ba 0a 00 00 00       	mov    $0xa,%edx
    2992:	e8 a9 7c 00 00       	call   a640 <lzma_stream_decoder>
    2997:	83 f8 08             	cmp    $0x8,%eax
    299a:	77 5c                	ja     29f8 <uncompressStream+0xc8>
    299c:	89 c1                	mov    %eax,%ecx
    299e:	48 8d 15 87 0a 02 00 	lea    0x20a87(%rip),%rdx        # 2342c <_IO_stdin_used+0x42c>
    29a5:	48 63 0c 8a          	movslq (%rdx,%rcx,4),%rcx
    29a9:	48 01 d1             	add    %rdx,%rcx
    29ac:	ff e1                	jmp    *%rcx
    29ae:	48 8d 3d e6 0c 02 00 	lea    0x20ce6(%rip),%rdi        # 2369b <_IO_stdin_used+0x69b>
    29b5:	31 c0                	xor    %eax,%eax
    29b7:	e8 e4 f6 ff ff       	call   20a0 <printf@plt>
    29bc:	48 8d 7c 24 10       	lea    0x10(%rsp),%rdi
    29c1:	e8 0a 0b 00 00       	call   34d0 <lzma_get_check>
    29c6:	83 f8 0a             	cmp    $0xa,%eax
    29c9:	77 5d                	ja     2a28 <uncompressStream+0xf8>
    29cb:	89 c0                	mov    %eax,%eax
    29cd:	48 8d 0d 7c 0a 02 00 	lea    0x20a7c(%rip),%rcx        # 23450 <_IO_stdin_used+0x450>
    29d4:	48 63 04 81          	movslq (%rcx,%rax,4),%rax
    29d8:	48 01 c8             	add    %rcx,%rax
    29db:	ff e0                	jmp    *%rax
    29dd:	48 8d 3d 4e 0d 02 00 	lea    0x20d4e(%rip),%rdi        # 23732 <_IO_stdin_used+0x732>
    29e4:	eb 49                	jmp    2a2f <uncompressStream+0xff>
    29e6:	48 8d 35 db 0a 02 00 	lea    0x20adb(%rip),%rsi        # 234c8 <_IO_stdin_used+0x4c8>
    29ed:	eb 10                	jmp    29ff <uncompressStream+0xcf>
    29ef:	48 8d 35 df 0c 02 00 	lea    0x20cdf(%rip),%rsi        # 236d5 <_IO_stdin_used+0x6d5>
    29f6:	eb 07                	jmp    29ff <uncompressStream+0xcf>
    29f8:	48 8d 35 fa 0b 02 00 	lea    0x20bfa(%rip),%rsi        # 235f9 <_IO_stdin_used+0x5f9>
    29ff:	48 8d 3d ef 0c 02 00 	lea    0x20cef(%rip),%rdi        # 236f5 <_IO_stdin_used+0x6f5>
    2a06:	89 c2                	mov    %eax,%edx
    2a08:	e9 a1 01 00 00       	jmp    2bae <uncompressStream+0x27e>
    2a0d:	48 8d 3d 12 0d 02 00 	lea    0x20d12(%rip),%rdi        # 23726 <_IO_stdin_used+0x726>
    2a14:	eb 19                	jmp    2a2f <uncompressStream+0xff>
    2a16:	48 8d 3d 0f 0d 02 00 	lea    0x20d0f(%rip),%rdi        # 2372c <_IO_stdin_used+0x72c>
    2a1d:	eb 10                	jmp    2a2f <uncompressStream+0xff>
    2a1f:	48 8d 3d f9 0c 02 00 	lea    0x20cf9(%rip),%rdi        # 2371f <_IO_stdin_used+0x71f>
    2a26:	eb 07                	jmp    2a2f <uncompressStream+0xff>
    2a28:	48 8d 3d 08 0d 02 00 	lea    0x20d08(%rip),%rdi        # 23737 <_IO_stdin_used+0x737>
    2a2f:	e8 2c f6 ff ff       	call   2060 <puts@plt>
    2a34:	0f 57 c0             	xorps  %xmm0,%xmm0
    2a37:	0f 29 44 24 10       	movaps %xmm0,0x10(%rsp)
    2a3c:	4c 8d a4 24 a0 00 00 	lea    0xa0(%rsp),%r12
    2a43:	00 
    2a44:	4c 89 64 24 28       	mov    %r12,0x28(%rsp)
    2a49:	48 c7 44 24 30 00 20 	movq   $0x2000,0x30(%rsp)
    2a50:	00 00 
    2a52:	31 c0                	xor    %eax,%eax
    2a54:	48 8d 5c 24 10       	lea    0x10(%rsp),%rbx
    2a59:	45 31 ed             	xor    %r13d,%r13d
    2a5c:	48 85 c0             	test   %rax,%rax
    2a5f:	75 6f                	jne    2ad0 <uncompressStream+0x1a0>
    2a61:	66 66 66 66 66 66 2e 	data16 data16 data16 data16 data16 cs nopw 0x0(%rax,%rax,1)
    2a68:	0f 1f 84 00 00 00 00 
    2a6f:	00 
    2a70:	4c 8d 3d 89 5b 03 00 	lea    0x35b89(%rip),%r15        # 38600 <spec_fd>
    2a77:	49 8b 3f             	mov    (%r15),%rdi
    2a7a:	be 03 00 00 00       	mov    $0x3,%esi
    2a7f:	89 ea                	mov    %ebp,%edx
    2a81:	e8 6a f5 01 00       	call   21ff0 <spec_mem_feof>
    2a86:	85 c0                	test   %eax,%eax
    2a88:	75 46                	jne    2ad0 <uncompressStream+0x1a0>
    2a8a:	48 8d 94 24 a0 20 00 	lea    0x20a0(%rsp),%rdx
    2a91:	00 
    2a92:	48 89 54 24 10       	mov    %rdx,0x10(%rsp)
    2a97:	49 8b 3f             	mov    (%r15),%rdi
    2a9a:	b9 01 00 00 00       	mov    $0x1,%ecx
    2a9f:	be 03 00 00 00       	mov    $0x3,%esi
    2aa4:	41 b8 00 20 00 00    	mov    $0x2000,%r8d
    2aaa:	41 89 e9             	mov    %ebp,%r9d
    2aad:	e8 ae e5 01 00       	call   21060 <spec_mem_fread>
    2ab2:	48 89 44 24 18       	mov    %rax,0x18(%rsp)
    2ab7:	49 8b 3f             	mov    (%r15),%rdi
    2aba:	be 03 00 00 00       	mov    $0x3,%esi
    2abf:	89 ea                	mov    %ebp,%edx
    2ac1:	e8 2a f5 01 00       	call   21ff0 <spec_mem_feof>
    2ac6:	85 c0                	test   %eax,%eax
    2ac8:	74 06                	je     2ad0 <uncompressStream+0x1a0>
    2aca:	41 bd 03 00 00 00    	mov    $0x3,%r13d
    2ad0:	48 89 df             	mov    %rbx,%rdi
    2ad3:	44 89 ee             	mov    %r13d,%esi
    2ad6:	e8 d5 06 00 00       	call   31b0 <lzma_code>
    2adb:	41 89 c7             	mov    %eax,%r15d
    2ade:	48 8b 44 24 30       	mov    0x30(%rsp),%rax
    2ae3:	48 85 c0             	test   %rax,%rax
    2ae6:	74 06                	je     2aee <uncompressStream+0x1be>
    2ae8:	41 83 ff 01          	cmp    $0x1,%r15d
    2aec:	75 49                	jne    2b37 <uncompressStream+0x207>
    2aee:	49 89 de             	mov    %rbx,%r14
    2af1:	bb 00 20 00 00       	mov    $0x2000,%ebx
    2af6:	48 29 c3             	sub    %rax,%rbx
    2af9:	48 8d 05 00 5b 03 00 	lea    0x35b00(%rip),%rax        # 38600 <spec_fd>
    2b00:	48 8b 38             	mov    (%rax),%rdi
    2b03:	b9 01 00 00 00       	mov    $0x1,%ecx
    2b08:	be 03 00 00 00       	mov    $0x3,%esi
    2b0d:	4c 89 e2             	mov    %r12,%rdx
    2b10:	41 89 d8             	mov    %ebx,%r8d
    2b13:	44 8b 4c 24 0c       	mov    0xc(%rsp),%r9d
    2b18:	e8 e3 f1 01 00       	call   21d00 <spec_mem_fwrite>
    2b1d:	48 39 d8             	cmp    %rbx,%rax
    2b20:	0f 85 a1 00 00 00    	jne    2bc7 <uncompressStream+0x297>
    2b26:	4c 89 64 24 28       	mov    %r12,0x28(%rsp)
    2b2b:	48 c7 44 24 30 00 20 	movq   $0x2000,0x30(%rsp)
    2b32:	00 00 
    2b34:	4c 89 f3             	mov    %r14,%rbx
    2b37:	45 85 ff             	test   %r15d,%r15d
    2b3a:	75 0f                	jne    2b4b <uncompressStream+0x21b>
    2b3c:	48 8b 44 24 18       	mov    0x18(%rsp),%rax
    2b41:	48 85 c0             	test   %rax,%rax
    2b44:	75 8a                	jne    2ad0 <uncompressStream+0x1a0>
    2b46:	e9 25 ff ff ff       	jmp    2a70 <uncompressStream+0x140>
    2b4b:	41 8d 47 ff          	lea    -0x1(%r15),%eax
    2b4f:	83 f8 09             	cmp    $0x9,%eax
    2b52:	77 49                	ja     2b9d <uncompressStream+0x26d>
    2b54:	48 8d 0d 21 09 02 00 	lea    0x20921(%rip),%rcx        # 2347c <_IO_stdin_used+0x47c>
    2b5b:	48 63 04 81          	movslq (%rcx,%rax,4),%rax
    2b5f:	48 01 c8             	add    %rcx,%rax
    2b62:	ff e0                	jmp    *%rax
    2b64:	48 8d 7c 24 10       	lea    0x10(%rsp),%rdi
    2b69:	e8 a2 08 00 00       	call   3410 <lzma_end>
    2b6e:	eb 45                	jmp    2bb5 <uncompressStream+0x285>
    2b70:	48 8d 35 51 09 02 00 	lea    0x20951(%rip),%rsi        # 234c8 <_IO_stdin_used+0x4c8>
    2b77:	eb 2b                	jmp    2ba4 <uncompressStream+0x274>
    2b79:	48 8d 35 0c 0a 02 00 	lea    0x20a0c(%rip),%rsi        # 2358c <_IO_stdin_used+0x58c>
    2b80:	eb 22                	jmp    2ba4 <uncompressStream+0x274>
    2b82:	48 8d 35 ec 09 02 00 	lea    0x209ec(%rip),%rsi        # 23575 <_IO_stdin_used+0x575>
    2b89:	eb 19                	jmp    2ba4 <uncompressStream+0x274>
    2b8b:	48 8d 35 35 0a 02 00 	lea    0x20a35(%rip),%rsi        # 235c7 <_IO_stdin_used+0x5c7>
    2b92:	eb 10                	jmp    2ba4 <uncompressStream+0x274>
    2b94:	48 8d 35 11 0a 02 00 	lea    0x20a11(%rip),%rsi        # 235ac <_IO_stdin_used+0x5ac>
    2b9b:	eb 07                	jmp    2ba4 <uncompressStream+0x274>
    2b9d:	48 8d 35 55 0a 02 00 	lea    0x20a55(%rip),%rsi        # 235f9 <_IO_stdin_used+0x5f9>
    2ba4:	48 8d 3d 62 0a 02 00 	lea    0x20a62(%rip),%rdi        # 2360d <_IO_stdin_used+0x60d>
    2bab:	44 89 fa             	mov    %r15d,%edx
    2bae:	31 c0                	xor    %eax,%eax
    2bb0:	e8 eb f4 ff ff       	call   20a0 <printf@plt>
    2bb5:	48 81 c4 a8 40 00 00 	add    $0x40a8,%rsp
    2bbc:	5b                   	pop    %rbx
    2bbd:	41 5c                	pop    %r12
    2bbf:	41 5d                	pop    %r13
    2bc1:	41 5e                	pop    %r14
    2bc3:	41 5f                	pop    %r15
    2bc5:	5d                   	pop    %rbp
    2bc6:	c3                   	ret    
    2bc7:	e8 84 f4 ff ff       	call   2050 <__errno_location@plt>
    2bcc:	8b 38                	mov    (%rax),%edi
    2bce:	e8 0d f6 ff ff       	call   21e0 <strerror@plt>
    2bd3:	48 8d 3d 79 09 02 00 	lea    0x20979(%rip),%rdi        # 23553 <_IO_stdin_used+0x553>
    2bda:	8b 74 24 0c          	mov    0xc(%rsp),%esi
    2bde:	48 89 c2             	mov    %rax,%rdx
    2be1:	31 c0                	xor    %eax,%eax
    2be3:	e8 b8 f4 ff ff       	call   20a0 <printf@plt>
    2be8:	eb cb                	jmp    2bb5 <uncompressStream+0x285>
    2bea:	66 0f 1f 44 00 00    	nopw   0x0(%rax,%rax,1)

0000000000002bf0 <compressStream>:
    2bf0:	55                   	push   %rbp
    2bf1:	41 57                	push   %r15
    2bf3:	41 56                	push   %r14
    2bf5:	41 55                	push   %r13
    2bf7:	41 54                	push   %r12
    2bf9:	53                   	push   %rbx
    2bfa:	48 81 ec a8 40 00 00 	sub    $0x40a8,%rsp
    2c01:	41 89 d4             	mov    %edx,%r12d
    2c04:	89 74 24 0c          	mov    %esi,0xc(%rsp)
    2c08:	89 fd                	mov    %edi,%ebp
    2c0a:	0f 57 c0             	xorps  %xmm0,%xmm0
    2c0d:	0f 29 84 24 80 00 00 	movaps %xmm0,0x80(%rsp)
    2c14:	00 
    2c15:	0f 29 44 24 70       	movaps %xmm0,0x70(%rsp)
    2c1a:	0f 29 44 24 60       	movaps %xmm0,0x60(%rsp)
    2c1f:	0f 29 44 24 50       	movaps %xmm0,0x50(%rsp)
    2c24:	0f 29 44 24 40       	movaps %xmm0,0x40(%rsp)
    2c29:	0f 29 44 24 30       	movaps %xmm0,0x30(%rsp)
    2c2e:	0f 29 44 24 20       	movaps %xmm0,0x20(%rsp)
    2c33:	0f 29 44 24 10       	movaps %xmm0,0x10(%rsp)
    2c38:	48 c7 84 24 90 00 00 	movq   $0x0,0x90(%rsp)
    2c3f:	00 00 00 00 00 
    2c44:	85 d2                	test   %edx,%edx
    2c46:	b8 04 00 00 00       	mov    $0x4,%eax
    2c4b:	41 bd 0a 00 00 00    	mov    $0xa,%r13d
    2c51:	44 0f 49 e8          	cmovns %eax,%r13d
    2c55:	48 8d 9c 24 a0 20 00 	lea    0x20a0(%rsp),%rbx
    2c5c:	00 
    2c5d:	48 89 df             	mov    %rbx,%rdi
    2c60:	89 d6                	mov    %edx,%esi
    2c62:	e8 19 f0 00 00       	call   11c80 <lzma_lzma_preset>
    2c67:	48 c7 84 24 a0 00 00 	movq   $0x21,0xa0(%rsp)
    2c6e:	00 21 00 00 00 
    2c73:	48 89 9c 24 a8 00 00 	mov    %rbx,0xa8(%rsp)
    2c7a:	00 
    2c7b:	48 c7 84 24 b0 00 00 	movq   $0xffffffffffffffff,0xb0(%rsp)
    2c82:	00 ff ff ff ff 
    2c87:	48 8d 7c 24 10       	lea    0x10(%rsp),%rdi
    2c8c:	4c 8d bc 24 a0 00 00 	lea    0xa0(%rsp),%r15
    2c93:	00 
    2c94:	4c 89 fe             	mov    %r15,%rsi
    2c97:	44 89 ea             	mov    %r13d,%edx
    2c9a:	e8 01 4d 00 00       	call   79a0 <lzma_stream_encoder>
    2c9f:	89 c3                	mov    %eax,%ebx
    2ca1:	83 f8 08             	cmp    $0x8,%eax
    2ca4:	0f 87 3d 01 00 00    	ja     2de7 <compressStream+0x1f7>
    2caa:	4c 8d 35 17 08 02 00 	lea    0x20817(%rip),%r14        # 234c8 <_IO_stdin_used+0x4c8>
    2cb1:	89 d8                	mov    %ebx,%eax
    2cb3:	48 8d 0d ea 07 02 00 	lea    0x207ea(%rip),%rcx        # 234a4 <_IO_stdin_used+0x4a4>
    2cba:	48 63 04 81          	movslq (%rcx,%rax,4),%rax
    2cbe:	48 01 c8             	add    %rcx,%rax
    2cc1:	ff e0                	jmp    *%rax
    2cc3:	0f 57 c0             	xorps  %xmm0,%xmm0
    2cc6:	0f 29 44 24 10       	movaps %xmm0,0x10(%rsp)
    2ccb:	4c 89 7c 24 28       	mov    %r15,0x28(%rsp)
    2cd0:	48 c7 44 24 30 00 20 	movq   $0x2000,0x30(%rsp)
    2cd7:	00 00 
    2cd9:	31 c0                	xor    %eax,%eax
    2cdb:	4c 8d 35 1e 59 03 00 	lea    0x3591e(%rip),%r14        # 38600 <spec_fd>
    2ce2:	48 8d 5c 24 10       	lea    0x10(%rsp),%rbx
    2ce7:	45 31 ed             	xor    %r13d,%r13d
    2cea:	48 85 c0             	test   %rax,%rax
    2ced:	75 61                	jne    2d50 <compressStream+0x160>
    2cef:	90                   	nop
    2cf0:	49 8b 3e             	mov    (%r14),%rdi
    2cf3:	be 03 00 00 00       	mov    $0x3,%esi
    2cf8:	89 ea                	mov    %ebp,%edx
    2cfa:	e8 f1 f2 01 00       	call   21ff0 <spec_mem_feof>
    2cff:	85 c0                	test   %eax,%eax
    2d01:	75 4d                	jne    2d50 <compressStream+0x160>
    2d03:	48 8d 94 24 a0 20 00 	lea    0x20a0(%rsp),%rdx
    2d0a:	00 
    2d0b:	48 89 54 24 10       	mov    %rdx,0x10(%rsp)
    2d10:	49 8b 3e             	mov    (%r14),%rdi
    2d13:	b9 01 00 00 00       	mov    $0x1,%ecx
    2d18:	be 03 00 00 00       	mov    $0x3,%esi
    2d1d:	41 b8 00 20 00 00    	mov    $0x2000,%r8d
    2d23:	41 89 e9             	mov    %ebp,%r9d
    2d26:	e8 35 e3 01 00       	call   21060 <spec_mem_fread>
    2d2b:	48 89 44 24 18       	mov    %rax,0x18(%rsp)
    2d30:	49 8b 3e             	mov    (%r14),%rdi
    2d33:	be 03 00 00 00       	mov    $0x3,%esi
    2d38:	89 ea                	mov    %ebp,%edx
    2d3a:	e8 b1 f2 01 00       	call   21ff0 <spec_mem_feof>
    2d3f:	85 c0                	test   %eax,%eax
    2d41:	74 0d                	je     2d50 <compressStream+0x160>
    2d43:	41 bd 03 00 00 00    	mov    $0x3,%r13d
    2d49:	0f 1f 80 00 00 00 00 	nopl   0x0(%rax)
    2d50:	48 89 df             	mov    %rbx,%rdi
    2d53:	44 89 ee             	mov    %r13d,%esi
    2d56:	e8 55 04 00 00       	call   31b0 <lzma_code>
    2d5b:	41 89 c4             	mov    %eax,%r12d
    2d5e:	48 8b 44 24 30       	mov    0x30(%rsp),%rax
    2d63:	48 85 c0             	test   %rax,%rax
    2d66:	74 06                	je     2d6e <compressStream+0x17e>
    2d68:	41 83 fc 01          	cmp    $0x1,%r12d
    2d6c:	75 49                	jne    2db7 <compressStream+0x1c7>
    2d6e:	49 89 de             	mov    %rbx,%r14
    2d71:	bb 00 20 00 00       	mov    $0x2000,%ebx
    2d76:	48 29 c3             	sub    %rax,%rbx
    2d79:	48 8d 05 80 58 03 00 	lea    0x35880(%rip),%rax        # 38600 <spec_fd>
    2d80:	48 8b 38             	mov    (%rax),%rdi
    2d83:	b9 01 00 00 00       	mov    $0x1,%ecx
    2d88:	be 03 00 00 00       	mov    $0x3,%esi
    2d8d:	4c 89 fa             	mov    %r15,%rdx
    2d90:	41 89 d8             	mov    %ebx,%r8d
    2d93:	44 8b 4c 24 0c       	mov    0xc(%rsp),%r9d
    2d98:	e8 63 ef 01 00       	call   21d00 <spec_mem_fwrite>
    2d9d:	48 39 d8             	cmp    %rbx,%rax
    2da0:	0f 85 be 00 00 00    	jne    2e64 <compressStream+0x274>
    2da6:	4c 89 7c 24 28       	mov    %r15,0x28(%rsp)
    2dab:	48 c7 44 24 30 00 20 	movq   $0x2000,0x30(%rsp)
    2db2:	00 00 
    2db4:	4c 89 f3             	mov    %r14,%rbx
    2db7:	45 85 e4             	test   %r12d,%r12d
    2dba:	75 5e                	jne    2e1a <compressStream+0x22a>
    2dbc:	48 8b 44 24 18       	mov    0x18(%rsp),%rax
    2dc1:	4c 8d 35 38 58 03 00 	lea    0x35838(%rip),%r14        # 38600 <spec_fd>
    2dc8:	48 85 c0             	test   %rax,%rax
    2dcb:	75 83                	jne    2d50 <compressStream+0x160>
    2dcd:	e9 1e ff ff ff       	jmp    2cf0 <compressStream+0x100>
    2dd2:	48 8d 7c 24 10       	lea    0x10(%rsp),%rdi
    2dd7:	e8 f4 06 00 00       	call   34d0 <lzma_get_check>
    2ddc:	eb 10                	jmp    2dee <compressStream+0x1fe>
    2dde:	4c 8d 35 fc 06 02 00 	lea    0x206fc(%rip),%r14        # 234e1 <_IO_stdin_used+0x4e1>
    2de5:	eb 07                	jmp    2dee <compressStream+0x1fe>
    2de7:	4c 8d 35 15 07 02 00 	lea    0x20715(%rip),%r14        # 23503 <_IO_stdin_used+0x503>
    2dee:	48 8d 3d 1c 07 02 00 	lea    0x2071c(%rip),%rdi        # 23511 <_IO_stdin_used+0x511>
    2df5:	44 89 e6             	mov    %r12d,%esi
    2df8:	44 89 ea             	mov    %r13d,%edx
    2dfb:	4c 89 f1             	mov    %r14,%rcx
    2dfe:	41 89 d8             	mov    %ebx,%r8d
    2e01:	31 c0                	xor    %eax,%eax
    2e03:	e8 98 f2 ff ff       	call   20a0 <printf@plt>
    2e08:	48 81 c4 a8 40 00 00 	add    $0x40a8,%rsp
    2e0f:	5b                   	pop    %rbx
    2e10:	41 5c                	pop    %r12
    2e12:	41 5d                	pop    %r13
    2e14:	41 5e                	pop    %r14
    2e16:	41 5f                	pop    %r15
    2e18:	5d                   	pop    %rbp
    2e19:	c3                   	ret    
    2e1a:	41 83 fc 09          	cmp    $0x9,%r12d
    2e1e:	74 18                	je     2e38 <compressStream+0x248>
    2e20:	41 83 fc 05          	cmp    $0x5,%r12d
    2e24:	74 1b                	je     2e41 <compressStream+0x251>
    2e26:	41 83 fc 01          	cmp    $0x1,%r12d
    2e2a:	75 1e                	jne    2e4a <compressStream+0x25a>
    2e2c:	48 8d 7c 24 10       	lea    0x10(%rsp),%rdi
    2e31:	e8 da 05 00 00       	call   3410 <lzma_end>
    2e36:	eb d0                	jmp    2e08 <compressStream+0x218>
    2e38:	48 8d 35 19 08 02 00 	lea    0x20819(%rip),%rsi        # 23658 <_IO_stdin_used+0x658>
    2e3f:	eb 10                	jmp    2e51 <compressStream+0x261>
    2e41:	48 8d 35 80 06 02 00 	lea    0x20680(%rip),%rsi        # 234c8 <_IO_stdin_used+0x4c8>
    2e48:	eb 07                	jmp    2e51 <compressStream+0x261>
    2e4a:	48 8d 35 a8 07 02 00 	lea    0x207a8(%rip),%rsi        # 235f9 <_IO_stdin_used+0x5f9>
    2e51:	48 8d 3d 1a 08 02 00 	lea    0x2081a(%rip),%rdi        # 23672 <_IO_stdin_used+0x672>
    2e58:	44 89 e2             	mov    %r12d,%edx
    2e5b:	31 c0                	xor    %eax,%eax
    2e5d:	e8 3e f2 ff ff       	call   20a0 <printf@plt>
    2e62:	eb a4                	jmp    2e08 <compressStream+0x218>
    2e64:	e8 e7 f1 ff ff       	call   2050 <__errno_location@plt>
    2e69:	8b 38                	mov    (%rax),%edi
    2e6b:	e8 70 f3 ff ff       	call   21e0 <strerror@plt>
    2e70:	48 8d 3d c1 07 02 00 	lea    0x207c1(%rip),%rdi        # 23638 <_IO_stdin_used+0x638>
    2e77:	8b 74 24 0c          	mov    0xc(%rsp),%esi
    2e7b:	48 89 c2             	mov    %rax,%rdx
    2e7e:	31 c0                	xor    %eax,%eax
    2e80:	e8 1b f2 ff ff       	call   20a0 <printf@plt>
    2e85:	eb 81                	jmp    2e08 <compressStream+0x218>
    2e87:	90                   	nop
    2e88:	0f 1f 84 00 00 00 00 	nopl   0x0(%rax,%rax,1)
    2e8f:	00 

0000000000002e90 <tuklib_physmem>:
    2e90:	31 c0                	xor    %eax,%eax
    2e92:	c3                   	ret    
    2e93:	66 2e 0f 1f 84 00 00 	cs nopw 0x0(%rax,%rax,1)
    2e9a:	00 00 00 
    2e9d:	0f 1f 00             	nopl   (%rax)

0000000000002ea0 <lzma_version_number>:
    2ea0:	b8 b8 f0 fa 02       	mov    $0x2faf0b8,%eax
    2ea5:	c3                   	ret    
    2ea6:	66 2e 0f 1f 84 00 00 	cs nopw 0x0(%rax,%rax,1)
    2ead:	00 00 00 

0000000000002eb0 <lzma_version_string>:
    2eb0:	48 8d 05 41 91 02 00 	lea    0x29141(%rip),%rax        # 2bff8 <message_filters_to_str.bcj_names+0x13c8>
    2eb7:	c3                   	ret    
    2eb8:	0f 1f 84 00 00 00 00 	nopl   0x0(%rax,%rax,1)
    2ebf:	00 

0000000000002ec0 <lzma_alloc>:
    2ec0:	48 89 fa             	mov    %rdi,%rdx
    2ec3:	48 83 ff 01          	cmp    $0x1,%rdi
    2ec7:	48 83 d2 00          	adc    $0x0,%rdx
    2ecb:	48 85 f6             	test   %rsi,%rsi
    2ece:	74 13                	je     2ee3 <lzma_alloc+0x23>
    2ed0:	48 8b 06             	mov    (%rsi),%rax
    2ed3:	48 85 c0             	test   %rax,%rax
    2ed6:	74 0b                	je     2ee3 <lzma_alloc+0x23>
    2ed8:	48 8b 7e 10          	mov    0x10(%rsi),%rdi
    2edc:	be 01 00 00 00       	mov    $0x1,%esi
    2ee1:	ff e0                	jmp    *%rax
    2ee3:	48 89 d7             	mov    %rdx,%rdi
    2ee6:	e9 75 f2 ff ff       	jmp    2160 <malloc@plt>
    2eeb:	0f 1f 44 00 00       	nopl   0x0(%rax,%rax,1)

0000000000002ef0 <lzma_free>:
    2ef0:	48 85 f6             	test   %rsi,%rsi
    2ef3:	0f 84 37 f1 ff ff    	je     2030 <free@plt>
    2ef9:	48 8b 4e 08          	mov    0x8(%rsi),%rcx
    2efd:	48 85 c9             	test   %rcx,%rcx
    2f00:	0f 84 2a f1 ff ff    	je     2030 <free@plt>
    2f06:	48 8b 46 10          	mov    0x10(%rsi),%rax
    2f0a:	48 89 fe             	mov    %rdi,%rsi
    2f0d:	48 89 c7             	mov    %rax,%rdi
    2f10:	ff e1                	jmp    *%rcx
    2f12:	66 66 66 66 66 2e 0f 	data16 data16 data16 data16 cs nopw 0x0(%rax,%rax,1)
    2f19:	1f 84 00 00 00 00 00 

0000000000002f20 <lzma_bufcpy>:
    2f20:	41 57                	push   %r15
    2f22:	41 56                	push   %r14
    2f24:	41 55                	push   %r13
    2f26:	41 54                	push   %r12
    2f28:	53                   	push   %rbx
    2f29:	4c 89 cb             	mov    %r9,%rbx
    2f2c:	4d 89 c6             	mov    %r8,%r14
    2f2f:	49 89 f7             	mov    %rsi,%r15
    2f32:	4c 8b 26             	mov    (%rsi),%r12
    2f35:	4c 29 e2             	sub    %r12,%rdx
    2f38:	4d 8b 28             	mov    (%r8),%r13
    2f3b:	4c 29 eb             	sub    %r13,%rbx
    2f3e:	48 39 da             	cmp    %rbx,%rdx
    2f41:	48 0f 42 da          	cmovb  %rdx,%rbx
    2f45:	4a 8d 04 29          	lea    (%rcx,%r13,1),%rax
    2f49:	4a 8d 34 27          	lea    (%rdi,%r12,1),%rsi
    2f4d:	48 89 c7             	mov    %rax,%rdi
    2f50:	48 89 da             	mov    %rbx,%rdx
    2f53:	e8 f8 f1 ff ff       	call   2150 <memcpy@plt>
    2f58:	49 01 dc             	add    %rbx,%r12
    2f5b:	4d 89 27             	mov    %r12,(%r15)
    2f5e:	49 01 dd             	add    %rbx,%r13
    2f61:	4d 89 2e             	mov    %r13,(%r14)
    2f64:	48 89 d8             	mov    %rbx,%rax
    2f67:	5b                   	pop    %rbx
    2f68:	41 5c                	pop    %r12
    2f6a:	41 5d                	pop    %r13
    2f6c:	41 5e                	pop    %r14
    2f6e:	41 5f                	pop    %r15
    2f70:	c3                   	ret    
    2f71:	66 66 66 66 66 66 2e 	data16 data16 data16 data16 data16 cs nopw 0x0(%rax,%rax,1)
    2f78:	0f 1f 84 00 00 00 00 
    2f7f:	00 

0000000000002f80 <lzma_next_filter_init>:
    2f80:	48 8b 42 08          	mov    0x8(%rdx),%rax
    2f84:	48 8b 4f 10          	mov    0x10(%rdi),%rcx
    2f88:	48 39 c1             	cmp    %rax,%rcx
    2f8b:	0f 84 8d 00 00 00    	je     301e <lzma_next_filter_init+0x9e>
    2f91:	48 85 c9             	test   %rcx,%rcx
    2f94:	0f 84 84 00 00 00    	je     301e <lzma_next_filter_init+0x9e>
    2f9a:	41 57                	push   %r15
    2f9c:	41 56                	push   %r14
    2f9e:	41 54                	push   %r12
    2fa0:	53                   	push   %rbx
    2fa1:	50                   	push   %rax
    2fa2:	48 8d 5f 10          	lea    0x10(%rdi),%rbx
    2fa6:	48 8b 07             	mov    (%rdi),%rax
    2fa9:	48 8b 4f 20          	mov    0x20(%rdi),%rcx
    2fad:	49 89 ff             	mov    %rdi,%r15
    2fb0:	49 89 d6             	mov    %rdx,%r14
    2fb3:	48 85 c9             	test   %rcx,%rcx
    2fb6:	74 0a                	je     2fc2 <lzma_next_filter_init+0x42>
    2fb8:	48 89 c7             	mov    %rax,%rdi
    2fbb:	49 89 f4             	mov    %rsi,%r12
    2fbe:	ff d1                	call   *%rcx
    2fc0:	eb 27                	jmp    2fe9 <lzma_next_filter_init+0x69>
    2fc2:	48 85 f6             	test   %rsi,%rsi
    2fc5:	74 17                	je     2fde <lzma_next_filter_init+0x5e>
    2fc7:	48 8b 4e 08          	mov    0x8(%rsi),%rcx
    2fcb:	48 85 c9             	test   %rcx,%rcx
    2fce:	74 0e                	je     2fde <lzma_next_filter_init+0x5e>
    2fd0:	49 89 f4             	mov    %rsi,%r12
    2fd3:	48 8b 7e 10          	mov    0x10(%rsi),%rdi
    2fd7:	48 89 c6             	mov    %rax,%rsi
    2fda:	ff d1                	call   *%rcx
    2fdc:	eb 0b                	jmp    2fe9 <lzma_next_filter_init+0x69>
    2fde:	49 89 f4             	mov    %rsi,%r12
    2fe1:	48 89 c7             	mov    %rax,%rdi
    2fe4:	e8 47 f0 ff ff       	call   2030 <free@plt>
    2fe9:	4c 89 ff             	mov    %r15,%rdi
    2fec:	49 c7 07 00 00 00 00 	movq   $0x0,(%r15)
    2ff3:	49 c7 47 08 ff ff ff 	movq   $0xffffffffffffffff,0x8(%r15)
    2ffa:	ff 
    2ffb:	0f 57 c0             	xorps  %xmm0,%xmm0
    2ffe:	0f 11 43 20          	movups %xmm0,0x20(%rbx)
    3002:	0f 11 43 10          	movups %xmm0,0x10(%rbx)
    3006:	0f 11 03             	movups %xmm0,(%rbx)
    3009:	4c 89 f2             	mov    %r14,%rdx
    300c:	49 8b 46 08          	mov    0x8(%r14),%rax
    3010:	4c 89 e6             	mov    %r12,%rsi
    3013:	48 83 c4 08          	add    $0x8,%rsp
    3017:	5b                   	pop    %rbx
    3018:	41 5c                	pop    %r12
    301a:	41 5e                	pop    %r14
    301c:	41 5f                	pop    %r15
    301e:	48 89 47 10          	mov    %rax,0x10(%rdi)
    3022:	48 8b 02             	mov    (%rdx),%rax
    3025:	48 89 47 08          	mov    %rax,0x8(%rdi)
    3029:	48 8b 42 08          	mov    0x8(%rdx),%rax
    302d:	48 85 c0             	test   %rax,%rax
    3030:	74 02                	je     3034 <lzma_next_filter_init+0xb4>
    3032:	ff e0                	jmp    *%rax
    3034:	31 c0                	xor    %eax,%eax
    3036:	c3                   	ret    
    3037:	66 0f 1f 84 00 00 00 	nopw   0x0(%rax,%rax,1)
    303e:	00 00 

0000000000003040 <lzma_next_end>:
    3040:	48 83 7f 10 00       	cmpq   $0x0,0x10(%rdi)
    3045:	74 63                	je     30aa <lzma_next_end+0x6a>
    3047:	41 56                	push   %r14
    3049:	53                   	push   %rbx
    304a:	50                   	push   %rax
    304b:	48 89 fb             	mov    %rdi,%rbx
    304e:	4c 8d 77 10          	lea    0x10(%rdi),%r14
    3052:	48 8b 3f             	mov    (%rdi),%rdi
    3055:	48 8b 43 20          	mov    0x20(%rbx),%rax
    3059:	48 85 c0             	test   %rax,%rax
    305c:	74 04                	je     3062 <lzma_next_end+0x22>
    305e:	ff d0                	call   *%rax
    3060:	eb 21                	jmp    3083 <lzma_next_end+0x43>
    3062:	48 85 f6             	test   %rsi,%rsi
    3065:	74 17                	je     307e <lzma_next_end+0x3e>
    3067:	48 8b 4e 08          	mov    0x8(%rsi),%rcx
    306b:	48 85 c9             	test   %rcx,%rcx
    306e:	74 0e                	je     307e <lzma_next_end+0x3e>
    3070:	48 8b 46 10          	mov    0x10(%rsi),%rax
    3074:	48 89 fe             	mov    %rdi,%rsi
    3077:	48 89 c7             	mov    %rax,%rdi
    307a:	ff d1                	call   *%rcx
    307c:	eb 05                	jmp    3083 <lzma_next_end+0x43>
    307e:	e8 ad ef ff ff       	call   2030 <free@plt>
    3083:	48 c7 03 00 00 00 00 	movq   $0x0,(%rbx)
    308a:	48 c7 43 08 ff ff ff 	movq   $0xffffffffffffffff,0x8(%rbx)
    3091:	ff 
    3092:	0f 57 c0             	xorps  %xmm0,%xmm0
    3095:	41 0f 11 46 20       	movups %xmm0,0x20(%r14)
    309a:	41 0f 11 46 10       	movups %xmm0,0x10(%r14)
    309f:	41 0f 11 06          	movups %xmm0,(%r14)
    30a3:	48 83 c4 08          	add    $0x8,%rsp
    30a7:	5b                   	pop    %rbx
    30a8:	41 5e                	pop    %r14
    30aa:	c3                   	ret    
    30ab:	0f 1f 44 00 00       	nopl   0x0(%rax,%rax,1)

00000000000030b0 <lzma_next_filter_update>:
    30b0:	48 89 d1             	mov    %rdx,%rcx
    30b3:	48 8b 12             	mov    (%rdx),%rdx
    30b6:	b8 0b 00 00 00       	mov    $0xb,%eax
    30bb:	48 3b 57 08          	cmp    0x8(%rdi),%rdx
    30bf:	75 17                	jne    30d8 <lzma_next_filter_update+0x28>
    30c1:	48 83 fa ff          	cmp    $0xffffffffffffffff,%rdx
    30c5:	74 0f                	je     30d6 <lzma_next_filter_update+0x26>
    30c7:	48 8b 07             	mov    (%rdi),%rax
    30ca:	4c 8b 47 38          	mov    0x38(%rdi),%r8
    30ce:	48 89 c7             	mov    %rax,%rdi
    30d1:	31 d2                	xor    %edx,%edx
    30d3:	41 ff e0             	jmp    *%r8
    30d6:	31 c0                	xor    %eax,%eax
    30d8:	c3                   	ret    
    30d9:	0f 1f 80 00 00 00 00 	nopl   0x0(%rax)

00000000000030e0 <lzma_strm_init>:
    30e0:	48 85 ff             	test   %rdi,%rdi
    30e3:	74 3e                	je     3123 <lzma_strm_init+0x43>
    30e5:	53                   	push   %rbx
    30e6:	48 8b 47 38          	mov    0x38(%rdi),%rax
    30ea:	48 85 c0             	test   %rax,%rax
    30ed:	75 72                	jne    3161 <lzma_strm_init+0x81>
    30ef:	48 89 fb             	mov    %rdi,%rbx
    30f2:	48 8b 4f 30          	mov    0x30(%rdi),%rcx
    30f6:	48 85 c9             	test   %rcx,%rcx
    30f9:	74 2e                	je     3129 <lzma_strm_init+0x49>
    30fb:	48 8b 01             	mov    (%rcx),%rax
    30fe:	48 85 c0             	test   %rax,%rax
    3101:	74 26                	je     3129 <lzma_strm_init+0x49>
    3103:	48 8b 79 10          	mov    0x10(%rcx),%rdi
    3107:	be 01 00 00 00       	mov    $0x1,%esi
    310c:	ba 58 00 00 00       	mov    $0x58,%edx
    3111:	ff d0                	call   *%rax
    3113:	48 89 43 38          	mov    %rax,0x38(%rbx)
    3117:	48 85 c0             	test   %rax,%rax
    311a:	75 20                	jne    313c <lzma_strm_init+0x5c>
    311c:	b8 05 00 00 00       	mov    $0x5,%eax
    3121:	5b                   	pop    %rbx
    3122:	c3                   	ret    
    3123:	b8 0b 00 00 00       	mov    $0xb,%eax
    3128:	c3                   	ret    
    3129:	bf 58 00 00 00       	mov    $0x58,%edi
    312e:	e8 2d f0 ff ff       	call   2160 <malloc@plt>
    3133:	48 89 43 38          	mov    %rax,0x38(%rbx)
    3137:	48 85 c0             	test   %rax,%rax
    313a:	74 e0                	je     311c <lzma_strm_init+0x3c>
    313c:	48 89 df             	mov    %rbx,%rdi
    313f:	48 c7 00 00 00 00 00 	movq   $0x0,(%rax)
    3146:	48 c7 40 08 ff ff ff 	movq   $0xffffffffffffffff,0x8(%rax)
    314d:	ff 
    314e:	0f 57 c0             	xorps  %xmm0,%xmm0
    3151:	0f 11 40 10          	movups %xmm0,0x10(%rax)
    3155:	0f 11 40 20          	movups %xmm0,0x20(%rax)
    3159:	0f 11 40 30          	movups %xmm0,0x30(%rax)
    315d:	48 8b 43 38          	mov    0x38(%rbx),%rax
    3161:	c6 40 50 00          	movb   $0x0,0x50(%rax)
    3165:	48 8b 47 38          	mov    0x38(%rdi),%rax
    3169:	c6 40 51 00          	movb   $0x0,0x51(%rax)
    316d:	48 8b 47 38          	mov    0x38(%rdi),%rax
    3171:	c6 40 52 00          	movb   $0x0,0x52(%rax)
    3175:	48 8b 47 38          	mov    0x38(%rdi),%rax
    3179:	c6 40 53 00          	movb   $0x0,0x53(%rax)
    317d:	48 8b 47 38          	mov    0x38(%rdi),%rax
    3181:	c7 40 40 00 00 00 00 	movl   $0x0,0x40(%rax)
    3188:	48 8b 47 38          	mov    0x38(%rdi),%rax
    318c:	c6 40 54 00          	movb   $0x0,0x54(%rax)
    3190:	48 c7 47 10 00 00 00 	movq   $0x0,0x10(%rdi)
    3197:	00 
    3198:	48 c7 47 28 00 00 00 	movq   $0x0,0x28(%rdi)
    319f:	00 
    31a0:	31 c0                	xor    %eax,%eax
    31a2:	5b                   	pop    %rbx
    31a3:	c3                   	ret    
    31a4:	66 66 66 2e 0f 1f 84 	data16 data16 cs nopw 0x0(%rax,%rax,1)
    31ab:	00 00 00 00 00 

00000000000031b0 <lzma_code>:
    31b0:	41 89 f2             	mov    %esi,%r10d
    31b3:	48 83 3f 00          	cmpq   $0x0,(%rdi)
    31b7:	0f 84 f0 00 00 00    	je     32ad <lzma_code+0xfd>
    31bd:	48 83 7f 18 00       	cmpq   $0x0,0x18(%rdi)
    31c2:	0f 84 fc 00 00 00    	je     32c4 <lzma_code+0x114>
    31c8:	48 8b 4f 38          	mov    0x38(%rdi),%rcx
    31cc:	48 85 c9             	test   %rcx,%rcx
    31cf:	0f 84 e9 00 00 00    	je     32be <lzma_code+0x10e>
    31d5:	41 83 fa 03          	cmp    $0x3,%r10d
    31d9:	0f 87 df 00 00 00    	ja     32be <lzma_code+0x10e>
    31df:	41 57                	push   %r15
    31e1:	41 56                	push   %r14
    31e3:	53                   	push   %rbx
    31e4:	48 83 ec 10          	sub    $0x10,%rsp
    31e8:	48 83 79 18 00       	cmpq   $0x0,0x18(%rcx)
    31ed:	0f 84 ad 01 00 00    	je     33a0 <lzma_code+0x1f0>
    31f3:	44 89 d0             	mov    %r10d,%eax
    31f6:	80 7c 01 50 00       	cmpb   $0x0,0x50(%rcx,%rax,1)
    31fb:	0f 84 9f 01 00 00    	je     33a0 <lzma_code+0x1f0>
    3201:	b8 08 00 00 00       	mov    $0x8,%eax
    3206:	48 83 7f 40 00       	cmpq   $0x0,0x40(%rdi)
    320b:	0f 85 94 01 00 00    	jne    33a5 <lzma_code+0x1f5>
    3211:	48 83 7f 48 00       	cmpq   $0x0,0x48(%rdi)
    3216:	0f 85 89 01 00 00    	jne    33a5 <lzma_code+0x1f5>
    321c:	48 83 7f 50 00       	cmpq   $0x0,0x50(%rdi)
    3221:	0f 85 7e 01 00 00    	jne    33a5 <lzma_code+0x1f5>
    3227:	48 83 7f 58 00       	cmpq   $0x0,0x58(%rdi)
    322c:	0f 85 73 01 00 00    	jne    33a5 <lzma_code+0x1f5>
    3232:	48 83 7f 60 00       	cmpq   $0x0,0x60(%rdi)
    3237:	0f 85 68 01 00 00    	jne    33a5 <lzma_code+0x1f5>
    323d:	48 83 7f 68 00       	cmpq   $0x0,0x68(%rdi)
    3242:	0f 85 5d 01 00 00    	jne    33a5 <lzma_code+0x1f5>
    3248:	48 83 7f 70 00       	cmpq   $0x0,0x70(%rdi)
    324d:	0f 85 52 01 00 00    	jne    33a5 <lzma_code+0x1f5>
    3253:	48 83 7f 78 00       	cmpq   $0x0,0x78(%rdi)
    3258:	0f 85 47 01 00 00    	jne    33a5 <lzma_code+0x1f5>
    325e:	83 bf 80 00 00 00 00 	cmpl   $0x0,0x80(%rdi)
    3265:	0f 85 3a 01 00 00    	jne    33a5 <lzma_code+0x1f5>
    326b:	48 89 fb             	mov    %rdi,%rbx
    326e:	48 89 fa             	mov    %rdi,%rdx
    3271:	83 bb 84 00 00 00 00 	cmpl   $0x0,0x84(%rbx)
    3278:	0f 85 27 01 00 00    	jne    33a5 <lzma_code+0x1f5>
    327e:	8b 41 40             	mov    0x40(%rcx),%eax
    3281:	48 83 f8 04          	cmp    $0x4,%rax
    3285:	0f 87 15 01 00 00    	ja     33a0 <lzma_code+0x1f0>
    328b:	48 8d 15 c6 04 02 00 	lea    0x204c6(%rip),%rdx        # 23758 <_IO_stdin_used+0x758>
    3292:	48 63 04 82          	movslq (%rdx,%rax,4),%rax
    3296:	48 01 d0             	add    %rdx,%rax
    3299:	ff e0                	jmp    *%rax
    329b:	41 8d 42 ff          	lea    -0x1(%r10),%eax
    329f:	83 f8 03             	cmp    $0x3,%eax
    32a2:	49 89 db             	mov    %rbx,%r11
    32a5:	73 58                	jae    32ff <lzma_code+0x14f>
    32a7:	44 89 51 40          	mov    %r10d,0x40(%rcx)
    32ab:	eb 52                	jmp    32ff <lzma_code+0x14f>
    32ad:	b8 0b 00 00 00       	mov    $0xb,%eax
    32b2:	48 83 7f 08 00       	cmpq   $0x0,0x8(%rdi)
    32b7:	75 1b                	jne    32d4 <lzma_code+0x124>
    32b9:	e9 ff fe ff ff       	jmp    31bd <lzma_code+0xd>
    32be:	b8 0b 00 00 00       	mov    $0xb,%eax
    32c3:	c3                   	ret    
    32c4:	b8 0b 00 00 00       	mov    $0xb,%eax
    32c9:	48 83 7f 20 00       	cmpq   $0x0,0x20(%rdi)
    32ce:	0f 84 f4 fe ff ff    	je     31c8 <lzma_code+0x18>
    32d4:	c3                   	ret    
    32d5:	b8 01 00 00 00       	mov    $0x1,%eax
    32da:	e9 c6 00 00 00       	jmp    33a5 <lzma_code+0x1f5>
    32df:	41 83 fa 02          	cmp    $0x2,%r10d
    32e3:	0f 85 b7 00 00 00    	jne    33a0 <lzma_code+0x1f0>
    32e9:	48 8b 49 48          	mov    0x48(%rcx),%rcx
    32ed:	b8 0b 00 00 00       	mov    $0xb,%eax
    32f2:	49 89 db             	mov    %rbx,%r11
    32f5:	48 3b 4b 08          	cmp    0x8(%rbx),%rcx
    32f9:	0f 85 a6 00 00 00    	jne    33a5 <lzma_code+0x1f5>
    32ff:	48 c7 44 24 08 00 00 	movq   $0x0,0x8(%rsp)
    3306:	00 00 
    3308:	48 c7 04 24 00 00 00 	movq   $0x0,(%rsp)
    330f:	00 
    3310:	49 8b 43 38          	mov    0x38(%r11),%rax
    3314:	48 8b 38             	mov    (%rax),%rdi
    3317:	49 8b 73 30          	mov    0x30(%r11),%rsi
    331b:	49 8b 13             	mov    (%r11),%rdx
    331e:	4d 8b 43 08          	mov    0x8(%r11),%r8
    3322:	4d 8b 4b 18          	mov    0x18(%r11),%r9
    3326:	48 83 ec 08          	sub    $0x8,%rsp
    332a:	4c 8d 74 24 08       	lea    0x8(%rsp),%r14
    332f:	48 8d 4c 24 10       	lea    0x10(%rsp),%rcx
    3334:	4d 89 df             	mov    %r11,%r15
    3337:	41 52                	push   %r10
    3339:	41 ff 73 20          	push   0x20(%r11)
    333d:	41 56                	push   %r14
    333f:	ff 50 18             	call   *0x18(%rax)
    3342:	48 83 c4 20          	add    $0x20,%rsp
    3346:	48 8b 4c 24 08       	mov    0x8(%rsp),%rcx
    334b:	49 01 0f             	add    %rcx,(%r15)
    334e:	49 8b 77 08          	mov    0x8(%r15),%rsi
    3352:	49 8b 7f 38          	mov    0x38(%r15),%rdi
    3356:	48 29 ce             	sub    %rcx,%rsi
    3359:	49 89 77 08          	mov    %rsi,0x8(%r15)
    335d:	49 01 4f 10          	add    %rcx,0x10(%r15)
    3361:	48 8b 14 24          	mov    (%rsp),%rdx
    3365:	49 01 57 18          	add    %rdx,0x18(%r15)
    3369:	49 29 57 20          	sub    %rdx,0x20(%r15)
    336d:	49 01 57 28          	add    %rdx,0x28(%r15)
    3371:	48 89 77 48          	mov    %rsi,0x48(%rdi)
    3375:	83 f8 06             	cmp    $0x6,%eax
    3378:	77 76                	ja     33f0 <lzma_code+0x240>
    337a:	89 c6                	mov    %eax,%esi
    337c:	48 8d 3d e9 03 02 00 	lea    0x203e9(%rip),%rdi        # 2376c <_IO_stdin_used+0x76c>
    3383:	48 63 34 b7          	movslq (%rdi,%rsi,4),%rsi
    3387:	48 01 fe             	add    %rdi,%rsi
    338a:	ff e6                	jmp    *%rsi
    338c:	48 8b 4b 38          	mov    0x38(%rbx),%rcx
    3390:	c6 41 54 00          	movb   $0x0,0x54(%rcx)
    3394:	eb 0f                	jmp    33a5 <lzma_code+0x1f5>
    3396:	41 83 fa 03          	cmp    $0x3,%r10d
    339a:	0f 84 49 ff ff ff    	je     32e9 <lzma_code+0x139>
    33a0:	b8 0b 00 00 00       	mov    $0xb,%eax
    33a5:	48 83 c4 10          	add    $0x10,%rsp
    33a9:	5b                   	pop    %rbx
    33aa:	41 5e                	pop    %r14
    33ac:	41 5f                	pop    %r15
    33ae:	c3                   	ret    
    33af:	41 83 fa 01          	cmp    $0x1,%r10d
    33b3:	75 eb                	jne    33a0 <lzma_code+0x1f0>
    33b5:	e9 2f ff ff ff       	jmp    32e9 <lzma_code+0x139>
    33ba:	48 8b 4b 38          	mov    0x38(%rbx),%rcx
    33be:	8b 51 40             	mov    0x40(%rcx),%edx
    33c1:	ff ca                	dec    %edx
    33c3:	31 f6                	xor    %esi,%esi
    33c5:	83 fa 02             	cmp    $0x2,%edx
    33c8:	40 0f 93 c6          	setae  %sil
    33cc:	c1 e6 02             	shl    $0x2,%esi
    33cf:	89 71 40             	mov    %esi,0x40(%rcx)
    33d2:	eb b8                	jmp    338c <lzma_code+0x1dc>
    33d4:	48 8b 73 38          	mov    0x38(%rbx),%rsi
    33d8:	48 09 ca             	or     %rcx,%rdx
    33db:	75 20                	jne    33fd <lzma_code+0x24d>
    33dd:	b8 0a 00 00 00       	mov    $0xa,%eax
    33e2:	80 7e 54 00          	cmpb   $0x0,0x54(%rsi)
    33e6:	75 bd                	jne    33a5 <lzma_code+0x1f5>
    33e8:	c6 46 54 01          	movb   $0x1,0x54(%rsi)
    33ec:	31 c0                	xor    %eax,%eax
    33ee:	eb b5                	jmp    33a5 <lzma_code+0x1f5>
    33f0:	48 8b 4b 38          	mov    0x38(%rbx),%rcx
    33f4:	c7 41 40 05 00 00 00 	movl   $0x5,0x40(%rcx)
    33fb:	eb a8                	jmp    33a5 <lzma_code+0x1f5>
    33fd:	c6 46 54 00          	movb   $0x0,0x54(%rsi)
    3401:	31 c0                	xor    %eax,%eax
    3403:	eb a0                	jmp    33a5 <lzma_code+0x1f5>
    3405:	66 66 2e 0f 1f 84 00 	data16 cs nopw 0x0(%rax,%rax,1)
    340c:	00 00 00 00 

0000000000003410 <lzma_end>:
    3410:	48 85 ff             	test   %rdi,%rdi
    3413:	0f 84 ab 00 00 00    	je     34c4 <lzma_end+0xb4>
    3419:	41 57                	push   %r15
    341b:	41 56                	push   %r14
    341d:	53                   	push   %rbx
    341e:	48 89 fb             	mov    %rdi,%rbx
    3421:	4c 8b 77 38          	mov    0x38(%rdi),%r14
    3425:	4d 85 f6             	test   %r14,%r14
    3428:	0f 84 91 00 00 00    	je     34bf <lzma_end+0xaf>
    342e:	48 8b 73 30          	mov    0x30(%rbx),%rsi
    3432:	49 83 7e 10 00       	cmpq   $0x0,0x10(%r14)
    3437:	74 5d                	je     3496 <lzma_end+0x86>
    3439:	4d 8d 7e 10          	lea    0x10(%r14),%r15
    343d:	49 8b 3e             	mov    (%r14),%rdi
    3440:	49 8b 46 20          	mov    0x20(%r14),%rax
    3444:	48 85 c0             	test   %rax,%rax
    3447:	74 04                	je     344d <lzma_end+0x3d>
    3449:	ff d0                	call   *%rax
    344b:	eb 21                	jmp    346e <lzma_end+0x5e>
    344d:	48 85 f6             	test   %rsi,%rsi
    3450:	74 17                	je     3469 <lzma_end+0x59>
    3452:	48 8b 4e 08          	mov    0x8(%rsi),%rcx
    3456:	48 85 c9             	test   %rcx,%rcx
    3459:	74 0e                	je     3469 <lzma_end+0x59>
    345b:	48 8b 46 10          	mov    0x10(%rsi),%rax
    345f:	48 89 fe             	mov    %rdi,%rsi
    3462:	48 89 c7             	mov    %rax,%rdi
    3465:	ff d1                	call   *%rcx
    3467:	eb 05                	jmp    346e <lzma_end+0x5e>
    3469:	e8 c2 eb ff ff       	call   2030 <free@plt>
    346e:	49 c7 06 00 00 00 00 	movq   $0x0,(%r14)
    3475:	49 c7 46 08 ff ff ff 	movq   $0xffffffffffffffff,0x8(%r14)
    347c:	ff 
    347d:	0f 57 c0             	xorps  %xmm0,%xmm0
    3480:	41 0f 11 47 20       	movups %xmm0,0x20(%r15)
    3485:	41 0f 11 47 10       	movups %xmm0,0x10(%r15)
    348a:	41 0f 11 07          	movups %xmm0,(%r15)
    348e:	48 8b 73 30          	mov    0x30(%rbx),%rsi
    3492:	4c 8b 73 38          	mov    0x38(%rbx),%r14
    3496:	48 85 f6             	test   %rsi,%rsi
    3499:	74 14                	je     34af <lzma_end+0x9f>
    349b:	48 8b 46 08          	mov    0x8(%rsi),%rax
    349f:	48 85 c0             	test   %rax,%rax
    34a2:	74 0b                	je     34af <lzma_end+0x9f>
    34a4:	48 8b 7e 10          	mov    0x10(%rsi),%rdi
    34a8:	4c 89 f6             	mov    %r14,%rsi
    34ab:	ff d0                	call   *%rax
    34ad:	eb 08                	jmp    34b7 <lzma_end+0xa7>
    34af:	4c 89 f7             	mov    %r14,%rdi
    34b2:	e8 79 eb ff ff       	call   2030 <free@plt>
    34b7:	48 c7 43 38 00 00 00 	movq   $0x0,0x38(%rbx)
    34be:	00 
    34bf:	5b                   	pop    %rbx
    34c0:	41 5e                	pop    %r14
    34c2:	41 5f                	pop    %r15
    34c4:	c3                   	ret    
    34c5:	66 66 2e 0f 1f 84 00 	data16 cs nopw 0x0(%rax,%rax,1)
    34cc:	00 00 00 00 

00000000000034d0 <lzma_get_check>:
    34d0:	48 8b 4f 38          	mov    0x38(%rdi),%rcx
    34d4:	48 8b 41 28          	mov    0x28(%rcx),%rax
    34d8:	48 85 c0             	test   %rax,%rax
    34db:	74 05                	je     34e2 <lzma_get_check+0x12>
    34dd:	48 8b 39             	mov    (%rcx),%rdi
    34e0:	ff e0                	jmp    *%rax
    34e2:	31 c0                	xor    %eax,%eax
    34e4:	c3                   	ret    
    34e5:	66 66 2e 0f 1f 84 00 	data16 cs nopw 0x0(%rax,%rax,1)
    34ec:	00 00 00 00 

00000000000034f0 <lzma_memusage>:
    34f0:	48 85 ff             	test   %rdi,%rdi
    34f3:	74 39                	je     352e <lzma_memusage+0x3e>
    34f5:	48 8b 4f 38          	mov    0x38(%rdi),%rcx
    34f9:	48 85 c9             	test   %rcx,%rcx
    34fc:	74 30                	je     352e <lzma_memusage+0x3e>
    34fe:	48 8b 41 30          	mov    0x30(%rcx),%rax
    3502:	48 85 c0             	test   %rax,%rax
    3505:	74 27                	je     352e <lzma_memusage+0x3e>
    3507:	48 83 ec 18          	sub    $0x18,%rsp
    350b:	48 8b 39             	mov    (%rcx),%rdi
    350e:	48 8d 74 24 08       	lea    0x8(%rsp),%rsi
    3513:	48 8d 54 24 10       	lea    0x10(%rsp),%rdx
    3518:	31 c9                	xor    %ecx,%ecx
    351a:	ff d0                	call   *%rax
    351c:	89 c1                	mov    %eax,%ecx
    351e:	31 c0                	xor    %eax,%eax
    3520:	85 c9                	test   %ecx,%ecx
    3522:	75 05                	jne    3529 <lzma_memusage+0x39>
    3524:	48 8b 44 24 08       	mov    0x8(%rsp),%rax
    3529:	48 83 c4 18          	add    $0x18,%rsp
    352d:	c3                   	ret    
    352e:	31 c0                	xor    %eax,%eax
    3530:	c3                   	ret    
    3531:	66 66 66 66 66 66 2e 	data16 data16 data16 data16 data16 cs nopw 0x0(%rax,%rax,1)
    3538:	0f 1f 84 00 00 00 00 
    353f:	00 

0000000000003540 <lzma_memlimit_get>:
    3540:	48 85 ff             	test   %rdi,%rdi
    3543:	74 39                	je     357e <lzma_memlimit_get+0x3e>
    3545:	48 8b 4f 38          	mov    0x38(%rdi),%rcx
    3549:	48 85 c9             	test   %rcx,%rcx
    354c:	74 30                	je     357e <lzma_memlimit_get+0x3e>
    354e:	48 8b 41 30          	mov    0x30(%rcx),%rax
    3552:	48 85 c0             	test   %rax,%rax
    3555:	74 27                	je     357e <lzma_memlimit_get+0x3e>
    3557:	48 83 ec 18          	sub    $0x18,%rsp
    355b:	48 8b 39             	mov    (%rcx),%rdi
    355e:	48 8d 74 24 10       	lea    0x10(%rsp),%rsi
    3563:	48 8d 54 24 08       	lea    0x8(%rsp),%rdx
    3568:	31 c9                	xor    %ecx,%ecx
    356a:	ff d0                	call   *%rax
    356c:	89 c1                	mov    %eax,%ecx
    356e:	31 c0                	xor    %eax,%eax
    3570:	85 c9                	test   %ecx,%ecx
    3572:	75 05                	jne    3579 <lzma_memlimit_get+0x39>
    3574:	48 8b 44 24 08       	mov    0x8(%rsp),%rax
    3579:	48 83 c4 18          	add    $0x18,%rsp
    357d:	c3                   	ret    
    357e:	31 c0                	xor    %eax,%eax
    3580:	c3                   	ret    
    3581:	66 66 66 66 66 66 2e 	data16 data16 data16 data16 data16 cs nopw 0x0(%rax,%rax,1)
    3588:	0f 1f 84 00 00 00 00 
    358f:	00 

0000000000003590 <lzma_memlimit_set>:
    3590:	b8 0b 00 00 00       	mov    $0xb,%eax
    3595:	48 85 ff             	test   %rdi,%rdi
    3598:	74 3e                	je     35d8 <lzma_memlimit_set+0x48>
    359a:	48 8b 57 38          	mov    0x38(%rdi),%rdx
    359e:	48 85 d2             	test   %rdx,%rdx
    35a1:	74 35                	je     35d8 <lzma_memlimit_set+0x48>
    35a3:	4c 8b 42 30          	mov    0x30(%rdx),%r8
    35a7:	4d 85 c0             	test   %r8,%r8
    35aa:	74 2c                	je     35d8 <lzma_memlimit_set+0x48>
    35ac:	48 89 f1             	mov    %rsi,%rcx
    35af:	48 ff ce             	dec    %rsi
    35b2:	b8 06 00 00 00       	mov    $0x6,%eax
    35b7:	48 81 fe ff 7f 00 00 	cmp    $0x7fff,%rsi
    35be:	72 18                	jb     35d8 <lzma_memlimit_set+0x48>
    35c0:	48 83 ec 18          	sub    $0x18,%rsp
    35c4:	48 8b 3a             	mov    (%rdx),%rdi
    35c7:	48 8d 74 24 08       	lea    0x8(%rsp),%rsi
    35cc:	48 8d 54 24 10       	lea    0x10(%rsp),%rdx
    35d1:	41 ff d0             	call   *%r8
    35d4:	48 83 c4 18          	add    $0x18,%rsp
    35d8:	c3                   	ret    
    35d9:	0f 1f 80 00 00 00 00 	nopl   0x0(%rax)

00000000000035e0 <lzma_block_compressed_size>:
    35e0:	b8 0b 00 00 00       	mov    $0xb,%eax
    35e5:	48 85 ff             	test   %rdi,%rdi
    35e8:	74 05                	je     35ef <lzma_block_compressed_size+0xf>
    35ea:	83 3f 00             	cmpl   $0x0,(%rdi)
    35ed:	74 01                	je     35f0 <lzma_block_compressed_size+0x10>
    35ef:	c3                   	ret    
    35f0:	41 57                	push   %r15
    35f2:	41 56                	push   %r14
    35f4:	53                   	push   %rbx
    35f5:	44 8b 77 04          	mov    0x4(%rdi),%r14d
    35f9:	41 8d 4e f8          	lea    -0x8(%r14),%ecx
    35fd:	81 f9 f8 03 00 00    	cmp    $0x3f8,%ecx
    3603:	0f 87 9a 00 00 00    	ja     36a3 <lzma_block_compressed_size+0xc3>
    3609:	44 89 f1             	mov    %r14d,%ecx
    360c:	83 e1 03             	and    $0x3,%ecx
    360f:	0f 85 8e 00 00 00    	jne    36a3 <lzma_block_compressed_size+0xc3>
    3615:	4c 8b 7f 10          	mov    0x10(%rdi),%r15
    3619:	49 83 ff ff          	cmp    $0xffffffffffffffff,%r15
    361d:	0f 8c 80 00 00 00    	jl     36a3 <lzma_block_compressed_size+0xc3>
    3623:	4d 85 ff             	test   %r15,%r15
    3626:	74 7b                	je     36a3 <lzma_block_compressed_size+0xc3>
    3628:	48 89 f3             	mov    %rsi,%rbx
    362b:	8b 4f 08             	mov    0x8(%rdi),%ecx
    362e:	49 83 ff ff          	cmp    $0xffffffffffffffff,%r15
    3632:	74 39                	je     366d <lzma_block_compressed_size+0x8d>
    3634:	83 f9 0f             	cmp    $0xf,%ecx
    3637:	77 34                	ja     366d <lzma_block_compressed_size+0x8d>
    3639:	4d 01 f7             	add    %r14,%r15
    363c:	49 89 fe             	mov    %rdi,%r14
    363f:	89 cf                	mov    %ecx,%edi
    3641:	e8 0a 73 00 00       	call   a950 <lzma_check_size>
    3646:	89 c1                	mov    %eax,%ecx
    3648:	b8 0b 00 00 00       	mov    $0xb,%eax
    364d:	89 c9                	mov    %ecx,%ecx
    364f:	4c 01 f9             	add    %r15,%rcx
    3652:	48 ba fc ff ff ff ff 	movabs $0x7ffffffffffffffc,%rdx
    3659:	ff ff 7f 
    365c:	48 39 d1             	cmp    %rdx,%rcx
    365f:	77 42                	ja     36a3 <lzma_block_compressed_size+0xc3>
    3661:	4c 89 f7             	mov    %r14,%rdi
    3664:	45 8b 76 04          	mov    0x4(%r14),%r14d
    3668:	8b 4f 08             	mov    0x8(%rdi),%ecx
    366b:	eb 05                	jmp    3672 <lzma_block_compressed_size+0x92>
    366d:	83 f9 0f             	cmp    $0xf,%ecx
    3670:	77 31                	ja     36a3 <lzma_block_compressed_size+0xc3>
    3672:	49 89 ff             	mov    %rdi,%r15
    3675:	89 cf                	mov    %ecx,%edi
    3677:	e8 d4 72 00 00       	call   a950 <lzma_check_size>
    367c:	89 c1                	mov    %eax,%ecx
    367e:	44 01 f1             	add    %r14d,%ecx
    3681:	b8 09 00 00 00       	mov    $0x9,%eax
    3686:	48 29 cb             	sub    %rcx,%rbx
    3689:	76 18                	jbe    36a3 <lzma_block_compressed_size+0xc3>
    368b:	48 89 d9             	mov    %rbx,%rcx
    368e:	49 8b 57 10          	mov    0x10(%r15),%rdx
    3692:	48 83 fa ff          	cmp    $0xffffffffffffffff,%rdx
    3696:	74 05                	je     369d <lzma_block_compressed_size+0xbd>
    3698:	48 39 ca             	cmp    %rcx,%rdx
    369b:	75 06                	jne    36a3 <lzma_block_compressed_size+0xc3>
    369d:	49 89 4f 10          	mov    %rcx,0x10(%r15)
    36a1:	31 c0                	xor    %eax,%eax
    36a3:	5b                   	pop    %rbx
    36a4:	41 5e                	pop    %r14
    36a6:	41 5f                	pop    %r15
    36a8:	c3                   	ret    
    36a9:	0f 1f 80 00 00 00 00 	nopl   0x0(%rax)

00000000000036b0 <lzma_block_unpadded_size>:
    36b0:	48 85 ff             	test   %rdi,%rdi
    36b3:	74 05                	je     36ba <lzma_block_unpadded_size+0xa>
    36b5:	83 3f 00             	cmpl   $0x0,(%rdi)
    36b8:	74 03                	je     36bd <lzma_block_unpadded_size+0xd>
    36ba:	31 c0                	xor    %eax,%eax
    36bc:	c3                   	ret    
    36bd:	8b 4f 04             	mov    0x4(%rdi),%ecx
    36c0:	8d 51 f8             	lea    -0x8(%rcx),%edx
    36c3:	31 c0                	xor    %eax,%eax
    36c5:	81 fa f8 03 00 00    	cmp    $0x3f8,%edx
    36cb:	77 ef                	ja     36bc <lzma_block_unpadded_size+0xc>
    36cd:	89 ca                	mov    %ecx,%edx
    36cf:	83 e2 03             	and    $0x3,%edx
    36d2:	75 e8                	jne    36bc <lzma_block_unpadded_size+0xc>
    36d4:	53                   	push   %rbx
    36d5:	48 8b 5f 10          	mov    0x10(%rdi),%rbx
    36d9:	31 c0                	xor    %eax,%eax
    36db:	48 83 fb ff          	cmp    $0xffffffffffffffff,%rbx
    36df:	7c 3b                	jl     371c <lzma_block_unpadded_size+0x6c>
    36e1:	48 85 db             	test   %rbx,%rbx
    36e4:	74 36                	je     371c <lzma_block_unpadded_size+0x6c>
    36e6:	8b 7f 08             	mov    0x8(%rdi),%edi
    36e9:	31 c0                	xor    %eax,%eax
    36eb:	83 ff 10             	cmp    $0x10,%edi
    36ee:	48 19 c0             	sbb    %rax,%rax
    36f1:	48 83 fb ff          	cmp    $0xffffffffffffffff,%rbx
    36f5:	74 25                	je     371c <lzma_block_unpadded_size+0x6c>
    36f7:	83 ff 0f             	cmp    $0xf,%edi
    36fa:	77 20                	ja     371c <lzma_block_unpadded_size+0x6c>
    36fc:	48 01 cb             	add    %rcx,%rbx
    36ff:	e8 4c 72 00 00       	call   a950 <lzma_check_size>
    3704:	89 c1                	mov    %eax,%ecx
    3706:	48 01 d9             	add    %rbx,%rcx
    3709:	31 c0                	xor    %eax,%eax
    370b:	48 ba fc ff ff ff ff 	movabs $0x7ffffffffffffffc,%rdx
    3712:	ff ff 7f 
    3715:	48 39 d1             	cmp    %rdx,%rcx
    3718:	48 0f 46 c1          	cmovbe %rcx,%rax
    371c:	5b                   	pop    %rbx
    371d:	c3                   	ret    
    371e:	66 90                	xchg   %ax,%ax

0000000000003720 <lzma_block_total_size>:
    3720:	48 85 ff             	test   %rdi,%rdi
    3723:	74 05                	je     372a <lzma_block_total_size+0xa>
    3725:	83 3f 00             	cmpl   $0x0,(%rdi)
    3728:	74 03                	je     372d <lzma_block_total_size+0xd>
    372a:	31 c0                	xor    %eax,%eax
    372c:	c3                   	ret    
    372d:	8b 4f 04             	mov    0x4(%rdi),%ecx
    3730:	8d 51 f8             	lea    -0x8(%rcx),%edx
    3733:	31 c0                	xor    %eax,%eax
    3735:	81 fa f8 03 00 00    	cmp    $0x3f8,%edx
    373b:	77 ef                	ja     372c <lzma_block_total_size+0xc>
    373d:	89 ca                	mov    %ecx,%edx
    373f:	83 e2 03             	and    $0x3,%edx
    3742:	75 e8                	jne    372c <lzma_block_total_size+0xc>
    3744:	53                   	push   %rbx
    3745:	48 8b 5f 10          	mov    0x10(%rdi),%rbx
    3749:	31 c0                	xor    %eax,%eax
    374b:	48 83 fb ff          	cmp    $0xffffffffffffffff,%rbx
    374f:	7c 4a                	jl     379b <lzma_block_total_size+0x7b>
    3751:	48 85 db             	test   %rbx,%rbx
    3754:	74 45                	je     379b <lzma_block_total_size+0x7b>
    3756:	8b 7f 08             	mov    0x8(%rdi),%edi
    3759:	48 83 fb ff          	cmp    $0xffffffffffffffff,%rbx
    375d:	74 34                	je     3793 <lzma_block_total_size+0x73>
    375f:	83 ff 0f             	cmp    $0xf,%edi
    3762:	77 2f                	ja     3793 <lzma_block_total_size+0x73>
    3764:	48 01 cb             	add    %rcx,%rbx
    3767:	e8 e4 71 00 00       	call   a950 <lzma_check_size>
    376c:	89 c0                	mov    %eax,%eax
    376e:	48 8d 0c 03          	lea    (%rbx,%rax,1),%rcx
    3772:	48 8d 14 18          	lea    (%rax,%rbx,1),%rdx
    3776:	48 83 c2 03          	add    $0x3,%rdx
    377a:	48 83 e2 fc          	and    $0xfffffffffffffffc,%rdx
    377e:	31 c0                	xor    %eax,%eax
    3780:	48 be fc ff ff ff ff 	movabs $0x7ffffffffffffffc,%rsi
    3787:	ff ff 7f 
    378a:	48 39 f1             	cmp    %rsi,%rcx
    378d:	48 0f 46 c2          	cmovbe %rdx,%rax
    3791:	5b                   	pop    %rbx
    3792:	c3                   	ret    
    3793:	31 c0                	xor    %eax,%eax
    3795:	83 ff 10             	cmp    $0x10,%edi
    3798:	48 19 c0             	sbb    %rax,%rax
    379b:	5b                   	pop    %rbx
    379c:	c3                   	ret    
    379d:	0f 1f 00             	nopl   (%rax)

00000000000037a0 <lzma_easy_preset>:
    37a0:	41 56                	push   %r14
    37a2:	53                   	push   %rbx
    37a3:	50                   	push   %rax
    37a4:	48 89 fb             	mov    %rdi,%rbx
    37a7:	4c 8d 77 50          	lea    0x50(%rdi),%r14
    37ab:	4c 89 f7             	mov    %r14,%rdi
    37ae:	e8 cd e4 00 00       	call   11c80 <lzma_lzma_preset>
    37b3:	84 c0                	test   %al,%al
    37b5:	75 13                	jne    37ca <lzma_easy_preset+0x2a>
    37b7:	48 c7 03 21 00 00 00 	movq   $0x21,(%rbx)
    37be:	4c 89 73 08          	mov    %r14,0x8(%rbx)
    37c2:	48 c7 43 10 ff ff ff 	movq   $0xffffffffffffffff,0x10(%rbx)
    37c9:	ff 
    37ca:	84 c0                	test   %al,%al
    37cc:	0f 95 c0             	setne  %al
    37cf:	48 83 c4 08          	add    $0x8,%rsp
    37d3:	5b                   	pop    %rbx
    37d4:	41 5e                	pop    %r14
    37d6:	c3                   	ret    
    37d7:	66 0f 1f 84 00 00 00 	nopw   0x0(%rax,%rax,1)
    37de:	00 00 

00000000000037e0 <lzma_filters_copy>:
    37e0:	55                   	push   %rbp
    37e1:	41 57                	push   %r15
    37e3:	41 56                	push   %r14
    37e5:	41 55                	push   %r13
    37e7:	41 54                	push   %r12
    37e9:	53                   	push   %rbx
    37ea:	50                   	push   %rax
    37eb:	41 bf 0b 00 00 00    	mov    $0xb,%r15d
    37f1:	48 85 ff             	test   %rdi,%rdi
    37f4:	0f 84 44 04 00 00    	je     3c3e <lzma_filters_copy+0x45e>
    37fa:	48 89 f3             	mov    %rsi,%rbx
    37fd:	48 85 f6             	test   %rsi,%rsi
    3800:	0f 84 38 04 00 00    	je     3c3e <lzma_filters_copy+0x45e>
    3806:	49 89 fc             	mov    %rdi,%r12
    3809:	48 8b 07             	mov    (%rdi),%rax
    380c:	45 31 ff             	xor    %r15d,%r15d
    380f:	48 83 f8 ff          	cmp    $0xffffffffffffffff,%rax
    3813:	74 44                	je     3859 <lzma_filters_copy+0x79>
    3815:	49 89 d6             	mov    %rdx,%r14
    3818:	48 89 03             	mov    %rax,(%rbx)
    381b:	49 83 7c 24 08 00    	cmpq   $0x0,0x8(%r12)
    3821:	74 3d                	je     3860 <lzma_filters_copy+0x80>
    3823:	49 8b 04 24          	mov    (%r12),%rax
    3827:	41 bd 08 00 00 00    	mov    $0x8,%r13d
    382d:	b2 01                	mov    $0x1,%dl
    382f:	31 ed                	xor    %ebp,%ebp
    3831:	48 8d 48 01          	lea    0x1(%rax),%rcx
    3835:	48 83 f9 22          	cmp    $0x22,%rcx
    3839:	0f 87 db 00 00 00    	ja     391a <lzma_filters_copy+0x13a>
    383f:	48 8d 05 4a ff 01 00 	lea    0x1ff4a(%rip),%rax        # 23790 <_IO_stdin_used+0x790>
    3846:	48 63 0c 88          	movslq (%rax,%rcx,4),%rcx
    384a:	48 01 c1             	add    %rax,%rcx
    384d:	ff e1                	jmp    *%rcx
    384f:	bd 09 00 00 00       	mov    $0x9,%ebp
    3854:	e9 18 01 00 00       	jmp    3971 <lzma_filters_copy+0x191>
    3859:	31 ed                	xor    %ebp,%ebp
    385b:	e9 80 03 00 00       	jmp    3be0 <lzma_filters_copy+0x400>
    3860:	48 c7 43 08 00 00 00 	movq   $0x0,0x8(%rbx)
    3867:	00 
    3868:	49 8b 44 24 10       	mov    0x10(%r12),%rax
    386d:	48 83 f8 ff          	cmp    $0xffffffffffffffff,%rax
    3871:	0f 84 44 01 00 00    	je     39bb <lzma_filters_copy+0x1db>
    3877:	48 89 43 10          	mov    %rax,0x10(%rbx)
    387b:	49 83 7c 24 18 00    	cmpq   $0x0,0x18(%r12)
    3881:	74 3a                	je     38bd <lzma_filters_copy+0xdd>
    3883:	49 8b 44 24 10       	mov    0x10(%r12),%rax
    3888:	41 bd 08 00 00 00    	mov    $0x8,%r13d
    388e:	bd 01 00 00 00       	mov    $0x1,%ebp
    3893:	31 d2                	xor    %edx,%edx
    3895:	48 8d 48 01          	lea    0x1(%rax),%rcx
    3899:	48 83 f9 22          	cmp    $0x22,%rcx
    389d:	0f 87 31 01 00 00    	ja     39d4 <lzma_filters_copy+0x1f4>
    38a3:	48 8d 05 72 ff 01 00 	lea    0x1ff72(%rip),%rax        # 2381c <_IO_stdin_used+0x81c>
    38aa:	48 63 0c 88          	movslq (%rax,%rcx,4),%rcx
    38ae:	48 01 c1             	add    %rax,%rcx
    38b1:	ff e1                	jmp    *%rcx
    38b3:	ba 09 00 00 00       	mov    $0x9,%edx
    38b8:	e9 61 01 00 00       	jmp    3a1e <lzma_filters_copy+0x23e>
    38bd:	48 c7 43 18 00 00 00 	movq   $0x0,0x18(%rbx)
    38c4:	00 
    38c5:	49 8b 44 24 20       	mov    0x20(%r12),%rax
    38ca:	48 83 f8 ff          	cmp    $0xffffffffffffffff,%rax
    38ce:	0f 84 91 01 00 00    	je     3a65 <lzma_filters_copy+0x285>
    38d4:	48 89 43 20          	mov    %rax,0x20(%rbx)
    38d8:	49 83 7c 24 28 00    	cmpq   $0x0,0x28(%r12)
    38de:	74 4e                	je     392e <lzma_filters_copy+0x14e>
    38e0:	49 8b 44 24 20       	mov    0x20(%r12),%rax
    38e5:	41 bd 08 00 00 00    	mov    $0x8,%r13d
    38eb:	bd 02 00 00 00       	mov    $0x2,%ebp
    38f0:	31 d2                	xor    %edx,%edx
    38f2:	48 8d 48 01          	lea    0x1(%rax),%rcx
    38f6:	48 83 f9 22          	cmp    $0x22,%rcx
    38fa:	0f 87 6f 01 00 00    	ja     3a6f <lzma_filters_copy+0x28f>
    3900:	48 8d 05 a1 ff 01 00 	lea    0x1ffa1(%rip),%rax        # 238a8 <_IO_stdin_used+0x8a8>
    3907:	48 63 0c 88          	movslq (%rax,%rcx,4),%rcx
    390b:	48 01 c1             	add    %rax,%rcx
    390e:	ff e1                	jmp    *%rcx
    3910:	ba 09 00 00 00       	mov    $0x9,%edx
    3915:	e9 9f 01 00 00       	jmp    3ab9 <lzma_filters_copy+0x2d9>
    391a:	48 b9 01 00 00 00 00 	movabs $0x4000000000000001,%rcx
    3921:	00 00 40 
    3924:	48 39 c8             	cmp    %rcx,%rax
    3927:	74 48                	je     3971 <lzma_filters_copy+0x191>
    3929:	e9 d0 02 00 00       	jmp    3bfe <lzma_filters_copy+0x41e>
    392e:	48 c7 43 28 00 00 00 	movq   $0x0,0x28(%rbx)
    3935:	00 
    3936:	e9 b6 01 00 00       	jmp    3af1 <lzma_filters_copy+0x311>
    393b:	bd 01 00 00 00       	mov    $0x1,%ebp
    3940:	eb 2f                	jmp    3971 <lzma_filters_copy+0x191>
    3942:	bd 04 00 00 00       	mov    $0x4,%ebp
    3947:	eb 28                	jmp    3971 <lzma_filters_copy+0x191>
    3949:	bd 06 00 00 00       	mov    $0x6,%ebp
    394e:	eb 21                	jmp    3971 <lzma_filters_copy+0x191>
    3950:	bd 02 00 00 00       	mov    $0x2,%ebp
    3955:	eb 1a                	jmp    3971 <lzma_filters_copy+0x191>
    3957:	bd 03 00 00 00       	mov    $0x3,%ebp
    395c:	eb 13                	jmp    3971 <lzma_filters_copy+0x191>
    395e:	bd 08 00 00 00       	mov    $0x8,%ebp
    3963:	eb 0c                	jmp    3971 <lzma_filters_copy+0x191>
    3965:	bd 05 00 00 00       	mov    $0x5,%ebp
    396a:	eb 05                	jmp    3971 <lzma_filters_copy+0x191>
    396c:	bd 07 00 00 00       	mov    $0x7,%ebp
    3971:	48 8d 04 6d 00 00 00 	lea    0x0(,%rbp,2),%rax
    3978:	00 
    3979:	48 01 e8             	add    %rbp,%rax
    397c:	48 8d 0d 3d 01 02 00 	lea    0x2013d(%rip),%rcx        # 23ac0 <features>
    3983:	4c 8b 6c c1 08       	mov    0x8(%rcx,%rax,8),%r13
    3988:	4c 89 ef             	mov    %r13,%rdi
    398b:	4c 89 f6             	mov    %r14,%rsi
    398e:	e8 2d f5 ff ff       	call   2ec0 <lzma_alloc>
    3993:	48 89 43 08          	mov    %rax,0x8(%rbx)
    3997:	48 85 c0             	test   %rax,%rax
    399a:	74 29                	je     39c5 <lzma_filters_copy+0x1e5>
    399c:	49 8b 74 24 08       	mov    0x8(%r12),%rsi
    39a1:	48 89 c7             	mov    %rax,%rdi
    39a4:	4c 89 ea             	mov    %r13,%rdx
    39a7:	e8 a4 e7 ff ff       	call   2150 <memcpy@plt>
    39ac:	49 8b 44 24 10       	mov    0x10(%r12),%rax
    39b1:	48 83 f8 ff          	cmp    $0xffffffffffffffff,%rax
    39b5:	0f 85 bc fe ff ff    	jne    3877 <lzma_filters_copy+0x97>
    39bb:	bd 01 00 00 00       	mov    $0x1,%ebp
    39c0:	e9 1b 02 00 00       	jmp    3be0 <lzma_filters_copy+0x400>
    39c5:	41 bd 05 00 00 00    	mov    $0x5,%r13d
    39cb:	31 ed                	xor    %ebp,%ebp
    39cd:	b2 01                	mov    $0x1,%dl
    39cf:	e9 2a 02 00 00       	jmp    3bfe <lzma_filters_copy+0x41e>
    39d4:	48 b9 01 00 00 00 00 	movabs $0x4000000000000001,%rcx
    39db:	00 00 40 
    39de:	48 39 c8             	cmp    %rcx,%rax
    39e1:	74 3b                	je     3a1e <lzma_filters_copy+0x23e>
    39e3:	e9 16 02 00 00       	jmp    3bfe <lzma_filters_copy+0x41e>
    39e8:	ba 01 00 00 00       	mov    $0x1,%edx
    39ed:	eb 2f                	jmp    3a1e <lzma_filters_copy+0x23e>
    39ef:	ba 04 00 00 00       	mov    $0x4,%edx
    39f4:	eb 28                	jmp    3a1e <lzma_filters_copy+0x23e>
    39f6:	ba 06 00 00 00       	mov    $0x6,%edx
    39fb:	eb 21                	jmp    3a1e <lzma_filters_copy+0x23e>
    39fd:	ba 02 00 00 00       	mov    $0x2,%edx
    3a02:	eb 1a                	jmp    3a1e <lzma_filters_copy+0x23e>
    3a04:	ba 03 00 00 00       	mov    $0x3,%edx
    3a09:	eb 13                	jmp    3a1e <lzma_filters_copy+0x23e>
    3a0b:	ba 08 00 00 00       	mov    $0x8,%edx
    3a10:	eb 0c                	jmp    3a1e <lzma_filters_copy+0x23e>
    3a12:	ba 05 00 00 00       	mov    $0x5,%edx
    3a17:	eb 05                	jmp    3a1e <lzma_filters_copy+0x23e>
    3a19:	ba 07 00 00 00       	mov    $0x7,%edx
    3a1e:	48 8d 04 52          	lea    (%rdx,%rdx,2),%rax
    3a22:	48 8d 0d 97 00 02 00 	lea    0x20097(%rip),%rcx        # 23ac0 <features>
    3a29:	4c 8b 6c c1 08       	mov    0x8(%rcx,%rax,8),%r13
    3a2e:	4c 89 ef             	mov    %r13,%rdi
    3a31:	4c 89 f6             	mov    %r14,%rsi
    3a34:	e8 87 f4 ff ff       	call   2ec0 <lzma_alloc>
    3a39:	48 89 43 18          	mov    %rax,0x18(%rbx)
    3a3d:	48 85 c0             	test   %rax,%rax
    3a40:	0f 84 b0 01 00 00    	je     3bf6 <lzma_filters_copy+0x416>
    3a46:	49 8b 74 24 18       	mov    0x18(%r12),%rsi
    3a4b:	48 89 c7             	mov    %rax,%rdi
    3a4e:	4c 89 ea             	mov    %r13,%rdx
    3a51:	e8 fa e6 ff ff       	call   2150 <memcpy@plt>
    3a56:	49 8b 44 24 20       	mov    0x20(%r12),%rax
    3a5b:	48 83 f8 ff          	cmp    $0xffffffffffffffff,%rax
    3a5f:	0f 85 6f fe ff ff    	jne    38d4 <lzma_filters_copy+0xf4>
    3a65:	bd 02 00 00 00       	mov    $0x2,%ebp
    3a6a:	e9 71 01 00 00       	jmp    3be0 <lzma_filters_copy+0x400>
    3a6f:	48 b9 01 00 00 00 00 	movabs $0x4000000000000001,%rcx
    3a76:	00 00 40 
    3a79:	48 39 c8             	cmp    %rcx,%rax
    3a7c:	74 3b                	je     3ab9 <lzma_filters_copy+0x2d9>
    3a7e:	e9 7b 01 00 00       	jmp    3bfe <lzma_filters_copy+0x41e>
    3a83:	ba 01 00 00 00       	mov    $0x1,%edx
    3a88:	eb 2f                	jmp    3ab9 <lzma_filters_copy+0x2d9>
    3a8a:	ba 04 00 00 00       	mov    $0x4,%edx
    3a8f:	eb 28                	jmp    3ab9 <lzma_filters_copy+0x2d9>
    3a91:	ba 06 00 00 00       	mov    $0x6,%edx
    3a96:	eb 21                	jmp    3ab9 <lzma_filters_copy+0x2d9>
    3a98:	ba 02 00 00 00       	mov    $0x2,%edx
    3a9d:	eb 1a                	jmp    3ab9 <lzma_filters_copy+0x2d9>
    3a9f:	ba 03 00 00 00       	mov    $0x3,%edx
    3aa4:	eb 13                	jmp    3ab9 <lzma_filters_copy+0x2d9>
    3aa6:	ba 08 00 00 00       	mov    $0x8,%edx
    3aab:	eb 0c                	jmp    3ab9 <lzma_filters_copy+0x2d9>
    3aad:	ba 05 00 00 00       	mov    $0x5,%edx
    3ab2:	eb 05                	jmp    3ab9 <lzma_filters_copy+0x2d9>
    3ab4:	ba 07 00 00 00       	mov    $0x7,%edx
    3ab9:	48 8d 04 52          	lea    (%rdx,%rdx,2),%rax
    3abd:	48 8d 0d fc ff 01 00 	lea    0x1fffc(%rip),%rcx        # 23ac0 <features>
    3ac4:	4c 8b 6c c1 08       	mov    0x8(%rcx,%rax,8),%r13
    3ac9:	4c 89 ef             	mov    %r13,%rdi
    3acc:	4c 89 f6             	mov    %r14,%rsi
    3acf:	e8 ec f3 ff ff       	call   2ec0 <lzma_alloc>
    3ad4:	48 89 43 28          	mov    %rax,0x28(%rbx)
    3ad8:	48 85 c0             	test   %rax,%rax
    3adb:	0f 84 15 01 00 00    	je     3bf6 <lzma_filters_copy+0x416>
    3ae1:	49 8b 74 24 28       	mov    0x28(%r12),%rsi
    3ae6:	48 89 c7             	mov    %rax,%rdi
    3ae9:	4c 89 ea             	mov    %r13,%rdx
    3aec:	e8 5f e6 ff ff       	call   2150 <memcpy@plt>
    3af1:	49 8b 44 24 30       	mov    0x30(%r12),%rax
    3af6:	48 83 f8 ff          	cmp    $0xffffffffffffffff,%rax
    3afa:	74 3f                	je     3b3b <lzma_filters_copy+0x35b>
    3afc:	48 89 43 30          	mov    %rax,0x30(%rbx)
    3b00:	49 83 7c 24 38 00    	cmpq   $0x0,0x38(%r12)
    3b06:	74 3d                	je     3b45 <lzma_filters_copy+0x365>
    3b08:	49 8b 44 24 30       	mov    0x30(%r12),%rax
    3b0d:	41 bd 08 00 00 00    	mov    $0x8,%r13d
    3b13:	bd 03 00 00 00       	mov    $0x3,%ebp
    3b18:	31 d2                	xor    %edx,%edx
    3b1a:	48 8d 48 01          	lea    0x1(%rax),%rcx
    3b1e:	48 83 f9 22          	cmp    $0x22,%rcx
    3b22:	77 2b                	ja     3b4f <lzma_filters_copy+0x36f>
    3b24:	48 8d 05 09 fe 01 00 	lea    0x1fe09(%rip),%rax        # 23934 <_IO_stdin_used+0x934>
    3b2b:	48 63 0c 88          	movslq (%rax,%rcx,4),%rcx
    3b2f:	48 01 c1             	add    %rax,%rcx
    3b32:	ff e1                	jmp    *%rcx
    3b34:	ba 09 00 00 00       	mov    $0x9,%edx
    3b39:	eb 5e                	jmp    3b99 <lzma_filters_copy+0x3b9>
    3b3b:	bd 03 00 00 00       	mov    $0x3,%ebp
    3b40:	e9 9b 00 00 00       	jmp    3be0 <lzma_filters_copy+0x400>
    3b45:	48 c7 43 38 00 00 00 	movq   $0x0,0x38(%rbx)
    3b4c:	00 
    3b4d:	eb 7e                	jmp    3bcd <lzma_filters_copy+0x3ed>
    3b4f:	48 b9 01 00 00 00 00 	movabs $0x4000000000000001,%rcx
    3b56:	00 00 40 
    3b59:	48 39 c8             	cmp    %rcx,%rax
    3b5c:	74 3b                	je     3b99 <lzma_filters_copy+0x3b9>
    3b5e:	e9 9b 00 00 00       	jmp    3bfe <lzma_filters_copy+0x41e>
    3b63:	ba 01 00 00 00       	mov    $0x1,%edx
    3b68:	eb 2f                	jmp    3b99 <lzma_filters_copy+0x3b9>
    3b6a:	ba 04 00 00 00       	mov    $0x4,%edx
    3b6f:	eb 28                	jmp    3b99 <lzma_filters_copy+0x3b9>
    3b71:	ba 06 00 00 00       	mov    $0x6,%edx
    3b76:	eb 21                	jmp    3b99 <lzma_filters_copy+0x3b9>
    3b78:	ba 02 00 00 00       	mov    $0x2,%edx
    3b7d:	eb 1a                	jmp    3b99 <lzma_filters_copy+0x3b9>
    3b7f:	ba 03 00 00 00       	mov    $0x3,%edx
    3b84:	eb 13                	jmp    3b99 <lzma_filters_copy+0x3b9>
    3b86:	ba 08 00 00 00       	mov    $0x8,%edx
    3b8b:	eb 0c                	jmp    3b99 <lzma_filters_copy+0x3b9>
    3b8d:	ba 05 00 00 00       	mov    $0x5,%edx
    3b92:	eb 05                	jmp    3b99 <lzma_filters_copy+0x3b9>
    3b94:	ba 07 00 00 00       	mov    $0x7,%edx
    3b99:	48 8d 04 52          	lea    (%rdx,%rdx,2),%rax
    3b9d:	48 8d 0d 1c ff 01 00 	lea    0x1ff1c(%rip),%rcx        # 23ac0 <features>
    3ba4:	4c 8b 6c c1 08       	mov    0x8(%rcx,%rax,8),%r13
    3ba9:	4c 89 ef             	mov    %r13,%rdi
    3bac:	4c 89 f6             	mov    %r14,%rsi
    3baf:	e8 0c f3 ff ff       	call   2ec0 <lzma_alloc>
    3bb4:	48 89 43 38          	mov    %rax,0x38(%rbx)
    3bb8:	48 85 c0             	test   %rax,%rax
    3bbb:	74 39                	je     3bf6 <lzma_filters_copy+0x416>
    3bbd:	49 8b 74 24 38       	mov    0x38(%r12),%rsi
    3bc2:	48 89 c7             	mov    %rax,%rdi
    3bc5:	4c 89 ea             	mov    %r13,%rdx
    3bc8:	e8 83 e5 ff ff       	call   2150 <memcpy@plt>
    3bcd:	41 bd 08 00 00 00    	mov    $0x8,%r13d
    3bd3:	bd 04 00 00 00       	mov    $0x4,%ebp
    3bd8:	49 83 7c 24 40 ff    	cmpq   $0xffffffffffffffff,0x40(%r12)
    3bde:	75 25                	jne    3c05 <lzma_filters_copy+0x425>
    3be0:	c1 e5 04             	shl    $0x4,%ebp
    3be3:	48 c7 04 2b ff ff ff 	movq   $0xffffffffffffffff,(%rbx,%rbp,1)
    3bea:	ff 
    3beb:	48 c7 44 2b 08 00 00 	movq   $0x0,0x8(%rbx,%rbp,1)
    3bf2:	00 00 
    3bf4:	eb 48                	jmp    3c3e <lzma_filters_copy+0x45e>
    3bf6:	41 bd 05 00 00 00    	mov    $0x5,%r13d
    3bfc:	31 d2                	xor    %edx,%edx
    3bfe:	45 89 ef             	mov    %r13d,%r15d
    3c01:	84 d2                	test   %dl,%dl
    3c03:	75 39                	jne    3c3e <lzma_filters_copy+0x45e>
    3c05:	89 e8                	mov    %ebp,%eax
    3c07:	c1 e0 04             	shl    $0x4,%eax
    3c0a:	48 01 c3             	add    %rax,%rbx
    3c0d:	48 83 c3 f8          	add    $0xfffffffffffffff8,%rbx
    3c11:	66 66 66 66 66 66 2e 	data16 data16 data16 data16 data16 cs nopw 0x0(%rax,%rax,1)
    3c18:	0f 1f 84 00 00 00 00 
    3c1f:	00 
    3c20:	48 8b 3b             	mov    (%rbx),%rdi
    3c23:	4c 89 f6             	mov    %r14,%rsi
    3c26:	e8 c5 f2 ff ff       	call   2ef0 <lzma_free>
    3c2b:	48 c7 03 00 00 00 00 	movq   $0x0,(%rbx)
    3c32:	48 83 c3 f0          	add    $0xfffffffffffffff0,%rbx
    3c36:	48 ff cd             	dec    %rbp
    3c39:	75 e5                	jne    3c20 <lzma_filters_copy+0x440>
    3c3b:	45 89 ef             	mov    %r13d,%r15d
    3c3e:	44 89 f8             	mov    %r15d,%eax
    3c41:	48 83 c4 08          	add    $0x8,%rsp
    3c45:	5b                   	pop    %rbx
    3c46:	41 5c                	pop    %r12
    3c48:	41 5d                	pop    %r13
    3c4a:	41 5e                	pop    %r14
    3c4c:	41 5f                	pop    %r15
    3c4e:	5d                   	pop    %rbp
    3c4f:	c3                   	ret    

0000000000003c50 <lzma_raw_coder_init>:
    3c50:	55                   	push   %rbp
    3c51:	41 57                	push   %r15
    3c53:	41 56                	push   %r14
    3c55:	41 55                	push   %r13
    3c57:	41 54                	push   %r12
    3c59:	53                   	push   %rbx
    3c5a:	48 81 ec 88 00 00 00 	sub    $0x88,%rsp
    3c61:	48 89 4c 24 08       	mov    %rcx,0x8(%rsp)
    3c66:	b8 0b 00 00 00       	mov    $0xb,%eax
    3c6b:	48 85 d2             	test   %rdx,%rdx
    3c6e:	0f 84 91 01 00 00    	je     3e05 <lzma_raw_coder_init+0x1b5>
    3c74:	49 89 d6             	mov    %rdx,%r14
    3c77:	48 8b 1a             	mov    (%rdx),%rbx
    3c7a:	48 83 fb ff          	cmp    $0xffffffffffffffff,%rbx
    3c7e:	0f 84 81 01 00 00    	je     3e05 <lzma_raw_coder_init+0x1b5>
    3c84:	4c 8d 6c 24 08       	lea    0x8(%rsp),%r13
    3c89:	49 8d 56 10          	lea    0x10(%r14),%rdx
    3c8d:	41 b3 01             	mov    $0x1,%r11b
    3c90:	31 c9                	xor    %ecx,%ecx
    3c92:	4c 8d 15 27 fd 01 00 	lea    0x1fd27(%rip),%r10        # 239c0 <_IO_stdin_used+0x9c0>
    3c99:	31 ed                	xor    %ebp,%ebp
    3c9b:	b8 08 00 00 00       	mov    $0x8,%eax
    3ca0:	49 bf 01 00 00 00 00 	movabs $0x4000000000000001,%r15
    3ca7:	00 00 40 
    3caa:	66 0f 1f 44 00 00    	nopw   0x0(%rax,%rax,1)
    3cb0:	45 31 e4             	xor    %r12d,%r12d
    3cb3:	4c 8d 4b fd          	lea    -0x3(%rbx),%r9
    3cb7:	49 83 f9 1e          	cmp    $0x1e,%r9
    3cbb:	77 3b                	ja     3cf8 <lzma_raw_coder_init+0xa8>
    3cbd:	4b 63 1c 8a          	movslq (%r10,%r9,4),%rbx
    3cc1:	4c 01 d3             	add    %r10,%rbx
    3cc4:	41 b1 01             	mov    $0x1,%r9b
    3cc7:	ff e3                	jmp    *%rbx
    3cc9:	41 b4 01             	mov    $0x1,%r12b
    3ccc:	45 31 c9             	xor    %r9d,%r9d
    3ccf:	45 84 db             	test   %r11b,%r11b
    3cd2:	0f 84 2d 01 00 00    	je     3e05 <lzma_raw_coder_init+0x1b5>
    3cd8:	45 0f b6 d9          	movzbl %r9b,%r11d
    3cdc:	4c 01 d9             	add    %r11,%rcx
    3cdf:	48 ff c5             	inc    %rbp
    3ce2:	48 8b 1a             	mov    (%rdx),%rbx
    3ce5:	49 83 c5 18          	add    $0x18,%r13
    3ce9:	48 83 c2 10          	add    $0x10,%rdx
    3ced:	45 89 e3             	mov    %r12d,%r11d
    3cf0:	48 83 fb ff          	cmp    $0xffffffffffffffff,%rbx
    3cf4:	75 ba                	jne    3cb0 <lzma_raw_coder_init+0x60>
    3cf6:	eb 0d                	jmp    3d05 <lzma_raw_coder_init+0xb5>
    3cf8:	41 b1 01             	mov    $0x1,%r9b
    3cfb:	4c 39 fb             	cmp    %r15,%rbx
    3cfe:	74 cf                	je     3ccf <lzma_raw_coder_init+0x7f>
    3d00:	e9 00 01 00 00       	jmp    3e05 <lzma_raw_coder_init+0x1b5>
    3d05:	48 83 fd 05          	cmp    $0x5,%rbp
    3d09:	0f 93 c2             	setae  %dl
    3d0c:	41 80 f1 01          	xor    $0x1,%r9b
    3d10:	41 08 d1             	or     %dl,%r9b
    3d13:	0f 85 ec 00 00 00    	jne    3e05 <lzma_raw_coder_init+0x1b5>
    3d19:	48 83 f9 03          	cmp    $0x3,%rcx
    3d1d:	0f 87 e2 00 00 00    	ja     3e05 <lzma_raw_coder_init+0x1b5>
    3d23:	49 89 fc             	mov    %rdi,%r12
    3d26:	48 89 34 24          	mov    %rsi,(%rsp)
    3d2a:	45 84 c0             	test   %r8b,%r8b
    3d2d:	74 57                	je     3d86 <lzma_raw_coder_init+0x136>
    3d2f:	48 85 ed             	test   %rbp,%rbp
    3d32:	0f 84 94 00 00 00    	je     3dcc <lzma_raw_coder_init+0x17c>
    3d38:	4c 89 eb             	mov    %r13,%rbx
    3d3b:	0f 1f 44 00 00       	nopl   0x0(%rax,%rax,1)
    3d40:	49 8b 3e             	mov    (%r14),%rdi
    3d43:	ff 54 24 08          	call   *0x8(%rsp)
    3d47:	48 89 c1             	mov    %rax,%rcx
    3d4a:	b8 08 00 00 00       	mov    $0x8,%eax
    3d4f:	48 85 c9             	test   %rcx,%rcx
    3d52:	0f 84 ad 00 00 00    	je     3e05 <lzma_raw_coder_init+0x1b5>
    3d58:	48 8b 49 08          	mov    0x8(%rcx),%rcx
    3d5c:	48 85 c9             	test   %rcx,%rcx
    3d5f:	0f 84 a0 00 00 00    	je     3e05 <lzma_raw_coder_init+0x1b5>
    3d65:	49 8b 06             	mov    (%r14),%rax
    3d68:	48 89 43 f0          	mov    %rax,-0x10(%rbx)
    3d6c:	48 89 4b f8          	mov    %rcx,-0x8(%rbx)
    3d70:	49 8b 46 08          	mov    0x8(%r14),%rax
    3d74:	48 89 03             	mov    %rax,(%rbx)
    3d77:	49 83 c6 10          	add    $0x10,%r14
    3d7b:	48 83 c3 e8          	add    $0xffffffffffffffe8,%rbx
    3d7f:	48 ff cd             	dec    %rbp
    3d82:	75 bc                	jne    3d40 <lzma_raw_coder_init+0xf0>
    3d84:	eb 46                	jmp    3dcc <lzma_raw_coder_init+0x17c>
    3d86:	48 85 ed             	test   %rbp,%rbp
    3d89:	48 8d 5c 24 20       	lea    0x20(%rsp),%rbx
    3d8e:	74 3c                	je     3dcc <lzma_raw_coder_init+0x17c>
    3d90:	49 8b 3e             	mov    (%r14),%rdi
    3d93:	ff 54 24 08          	call   *0x8(%rsp)
    3d97:	48 89 c1             	mov    %rax,%rcx
    3d9a:	b8 08 00 00 00       	mov    $0x8,%eax
    3d9f:	48 85 c9             	test   %rcx,%rcx
    3da2:	74 61                	je     3e05 <lzma_raw_coder_init+0x1b5>
    3da4:	48 8b 49 08          	mov    0x8(%rcx),%rcx
    3da8:	48 85 c9             	test   %rcx,%rcx
    3dab:	74 58                	je     3e05 <lzma_raw_coder_init+0x1b5>
    3dad:	49 8b 06             	mov    (%r14),%rax
    3db0:	48 89 43 f0          	mov    %rax,-0x10(%rbx)
    3db4:	48 89 4b f8          	mov    %rcx,-0x8(%rbx)
    3db8:	49 8b 46 08          	mov    0x8(%r14),%rax
    3dbc:	48 89 03             	mov    %rax,(%rbx)
    3dbf:	48 83 c3 18          	add    $0x18,%rbx
    3dc3:	49 83 c6 10          	add    $0x10,%r14
    3dc7:	48 ff cd             	dec    %rbp
    3dca:	75 c4                	jne    3d90 <lzma_raw_coder_init+0x140>
    3dcc:	49 c7 45 08 ff ff ff 	movq   $0xffffffffffffffff,0x8(%r13)
    3dd3:	ff 
    3dd4:	49 c7 45 10 00 00 00 	movq   $0x0,0x10(%r13)
    3ddb:	00 
    3ddc:	48 8d 54 24 10       	lea    0x10(%rsp),%rdx
    3de1:	4c 89 e7             	mov    %r12,%rdi
    3de4:	48 8b 34 24          	mov    (%rsp),%rsi
    3de8:	e8 93 f1 ff ff       	call   2f80 <lzma_next_filter_init>
    3ded:	85 c0                	test   %eax,%eax
    3def:	74 12                	je     3e03 <lzma_raw_coder_init+0x1b3>
    3df1:	4c 89 e7             	mov    %r12,%rdi
    3df4:	48 8b 34 24          	mov    (%rsp),%rsi
    3df8:	89 c3                	mov    %eax,%ebx
    3dfa:	e8 41 f2 ff ff       	call   3040 <lzma_next_end>
    3dff:	89 d8                	mov    %ebx,%eax
    3e01:	eb 02                	jmp    3e05 <lzma_raw_coder_init+0x1b5>
    3e03:	31 c0                	xor    %eax,%eax
    3e05:	48 81 c4 88 00 00 00 	add    $0x88,%rsp
    3e0c:	5b                   	pop    %rbx
    3e0d:	41 5c                	pop    %r12
    3e0f:	41 5d                	pop    %r13
    3e11:	41 5e                	pop    %r14
    3e13:	41 5f                	pop    %r15
    3e15:	5d                   	pop    %rbp
    3e16:	c3                   	ret    
    3e17:	66 0f 1f 84 00 00 00 	nopw   0x0(%rax,%rax,1)
    3e1e:	00 00 

0000000000003e20 <lzma_raw_coder_memusage>:
    3e20:	48 c7 c0 ff ff ff ff 	mov    $0xffffffffffffffff,%rax
    3e27:	48 85 f6             	test   %rsi,%rsi
    3e2a:	0f 84 15 01 00 00    	je     3f45 <lzma_raw_coder_memusage+0x125>
    3e30:	55                   	push   %rbp
    3e31:	41 57                	push   %r15
    3e33:	41 56                	push   %r14
    3e35:	41 54                	push   %r12
    3e37:	53                   	push   %rbx
    3e38:	48 89 f3             	mov    %rsi,%rbx
    3e3b:	49 89 fe             	mov    %rdi,%r14
    3e3e:	48 8b 3e             	mov    (%rsi),%rdi
    3e41:	48 83 ff ff          	cmp    $0xffffffffffffffff,%rdi
    3e45:	0f 84 f2 00 00 00    	je     3f3d <lzma_raw_coder_memusage+0x11d>
    3e4b:	48 8d 53 10          	lea    0x10(%rbx),%rdx
    3e4f:	41 b2 01             	mov    $0x1,%r10b
    3e52:	31 c9                	xor    %ecx,%ecx
    3e54:	48 be 01 00 00 00 00 	movabs $0x4000000000000001,%rsi
    3e5b:	00 00 40 
    3e5e:	4c 8d 05 d7 fb 01 00 	lea    0x1fbd7(%rip),%r8        # 23a3c <_IO_stdin_used+0xa3c>
    3e65:	49 89 ff             	mov    %rdi,%r15
    3e68:	45 31 c9             	xor    %r9d,%r9d
    3e6b:	0f 1f 44 00 00       	nopl   0x0(%rax,%rax,1)
    3e70:	45 31 db             	xor    %r11d,%r11d
    3e73:	4d 8d 67 fd          	lea    -0x3(%r15),%r12
    3e77:	49 83 fc 1e          	cmp    $0x1e,%r12
    3e7b:	77 37                	ja     3eb4 <lzma_raw_coder_memusage+0x94>
    3e7d:	4f 63 3c a0          	movslq (%r8,%r12,4),%r15
    3e81:	4d 01 c7             	add    %r8,%r15
    3e84:	40 b5 01             	mov    $0x1,%bpl
    3e87:	41 ff e7             	jmp    *%r15
    3e8a:	41 b3 01             	mov    $0x1,%r11b
    3e8d:	31 ed                	xor    %ebp,%ebp
    3e8f:	45 84 d2             	test   %r10b,%r10b
    3e92:	0f 84 a5 00 00 00    	je     3f3d <lzma_raw_coder_memusage+0x11d>
    3e98:	44 0f b6 d5          	movzbl %bpl,%r10d
    3e9c:	4c 01 d1             	add    %r10,%rcx
    3e9f:	49 ff c1             	inc    %r9
    3ea2:	4c 8b 3a             	mov    (%rdx),%r15
    3ea5:	48 83 c2 10          	add    $0x10,%rdx
    3ea9:	45 89 da             	mov    %r11d,%r10d
    3eac:	49 83 ff ff          	cmp    $0xffffffffffffffff,%r15
    3eb0:	75 be                	jne    3e70 <lzma_raw_coder_memusage+0x50>
    3eb2:	eb 0d                	jmp    3ec1 <lzma_raw_coder_memusage+0xa1>
    3eb4:	40 b5 01             	mov    $0x1,%bpl
    3eb7:	49 39 f7             	cmp    %rsi,%r15
    3eba:	74 d3                	je     3e8f <lzma_raw_coder_memusage+0x6f>
    3ebc:	e9 7c 00 00 00       	jmp    3f3d <lzma_raw_coder_memusage+0x11d>
    3ec1:	49 83 f9 05          	cmp    $0x5,%r9
    3ec5:	0f 93 c2             	setae  %dl
    3ec8:	40 80 f5 01          	xor    $0x1,%bpl
    3ecc:	40 08 d5             	or     %dl,%bpl
    3ecf:	75 6c                	jne    3f3d <lzma_raw_coder_memusage+0x11d>
    3ed1:	48 83 f9 03          	cmp    $0x3,%rcx
    3ed5:	77 66                	ja     3f3d <lzma_raw_coder_memusage+0x11d>
    3ed7:	48 83 c3 10          	add    $0x10,%rbx
    3edb:	45 31 ff             	xor    %r15d,%r15d
    3ede:	eb 14                	jmp    3ef4 <lzma_raw_coder_memusage+0xd4>
    3ee0:	49 81 c7 00 04 00 00 	add    $0x400,%r15
    3ee7:	48 8b 3b             	mov    (%rbx),%rdi
    3eea:	48 83 c3 10          	add    $0x10,%rbx
    3eee:	48 83 ff ff          	cmp    $0xffffffffffffffff,%rdi
    3ef2:	74 36                	je     3f2a <lzma_raw_coder_memusage+0x10a>
    3ef4:	41 ff d6             	call   *%r14
    3ef7:	48 85 c0             	test   %rax,%rax
    3efa:	74 3a                	je     3f36 <lzma_raw_coder_memusage+0x116>
    3efc:	48 8b 40 10          	mov    0x10(%rax),%rax
    3f00:	48 85 c0             	test   %rax,%rax
    3f03:	74 db                	je     3ee0 <lzma_raw_coder_memusage+0xc0>
    3f05:	48 8b 7b f8          	mov    -0x8(%rbx),%rdi
    3f09:	ff d0                	call   *%rax
    3f0b:	b9 00 00 00 00       	mov    $0x0,%ecx
    3f10:	48 83 f8 ff          	cmp    $0xffffffffffffffff,%rax
    3f14:	48 0f 45 c8          	cmovne %rax,%rcx
    3f18:	74 1c                	je     3f36 <lzma_raw_coder_memusage+0x116>
    3f1a:	49 01 cf             	add    %rcx,%r15
    3f1d:	48 8b 3b             	mov    (%rbx),%rdi
    3f20:	48 83 c3 10          	add    $0x10,%rbx
    3f24:	48 83 ff ff          	cmp    $0xffffffffffffffff,%rdi
    3f28:	75 ca                	jne    3ef4 <lzma_raw_coder_memusage+0xd4>
    3f2a:	49 81 c7 00 80 00 00 	add    $0x8000,%r15
    3f31:	4c 89 f8             	mov    %r15,%rax
    3f34:	eb 07                	jmp    3f3d <lzma_raw_coder_memusage+0x11d>
    3f36:	48 c7 c0 ff ff ff ff 	mov    $0xffffffffffffffff,%rax
    3f3d:	5b                   	pop    %rbx
    3f3e:	41 5c                	pop    %r12
    3f40:	41 5e                	pop    %r14
    3f42:	41 5f                	pop    %r15
    3f44:	5d                   	pop    %rbp
    3f45:	c3                   	ret    
    3f46:	66 2e 0f 1f 84 00 00 	cs nopw 0x0(%rax,%rax,1)
    3f4d:	00 00 00 

0000000000003f50 <lzma_physmem>:
    3f50:	e9 3b ef ff ff       	jmp    2e90 <tuklib_physmem>
    3f55:	66 2e 0f 1f 84 00 00 	cs nopw 0x0(%rax,%rax,1)
    3f5c:	00 00 00 
    3f5f:	90                   	nop

0000000000003f60 <lzma_index_init>:
    3f60:	41 56                	push   %r14
    3f62:	53                   	push   %rbx
    3f63:	50                   	push   %rax
    3f64:	49 89 fe             	mov    %rdi,%r14
    3f67:	bf 50 00 00 00       	mov    $0x50,%edi
    3f6c:	4c 89 f6             	mov    %r14,%rsi
    3f6f:	e8 4c ef ff ff       	call   2ec0 <lzma_alloc>
    3f74:	48 85 c0             	test   %rax,%rax
    3f77:	0f 84 8c 00 00 00    	je     4009 <lzma_index_init+0xa9>
    3f7d:	48 89 c3             	mov    %rax,%rbx
    3f80:	0f 57 c0             	xorps  %xmm0,%xmm0
    3f83:	0f 11 40 0c          	movups %xmm0,0xc(%rax)
    3f87:	0f 11 00             	movups %xmm0,(%rax)
    3f8a:	0f 11 40 20          	movups %xmm0,0x20(%rax)
    3f8e:	0f 11 40 30          	movups %xmm0,0x30(%rax)
    3f92:	48 c7 40 40 00 02 00 	movq   $0x200,0x40(%rax)
    3f99:	00 
    3f9a:	c7 40 48 00 00 00 00 	movl   $0x0,0x48(%rax)
    3fa1:	bf a8 00 00 00       	mov    $0xa8,%edi
    3fa6:	4c 89 f6             	mov    %r14,%rsi
    3fa9:	e8 12 ef ff ff       	call   2ec0 <lzma_alloc>
    3fae:	48 85 c0             	test   %rax,%rax
    3fb1:	74 4b                	je     3ffe <lzma_index_init+0x9e>
    3fb3:	0f 57 c0             	xorps  %xmm0,%xmm0
    3fb6:	0f 11 40 10          	movups %xmm0,0x10(%rax)
    3fba:	0f 11 00             	movups %xmm0,(%rax)
    3fbd:	48 c7 40 20 00 00 00 	movq   $0x0,0x20(%rax)
    3fc4:	00 
    3fc5:	c7 40 28 01 00 00 00 	movl   $0x1,0x28(%rax)
    3fcc:	0f 11 40 58          	movups %xmm0,0x58(%rax)
    3fd0:	0f 11 40 30          	movups %xmm0,0x30(%rax)
    3fd4:	0f 11 40 40          	movups %xmm0,0x40(%rax)
    3fd8:	c7 40 50 00 00 00 00 	movl   $0x0,0x50(%rax)
    3fdf:	c7 40 68 ff ff ff ff 	movl   $0xffffffff,0x68(%rax)
    3fe6:	48 c7 80 a0 00 00 00 	movq   $0x0,0xa0(%rax)
    3fed:	00 00 00 00 
    3ff1:	48 89 df             	mov    %rbx,%rdi
    3ff4:	48 89 c6             	mov    %rax,%rsi
    3ff7:	e8 24 00 00 00       	call   4020 <index_tree_append>
    3ffc:	eb 0d                	jmp    400b <lzma_index_init+0xab>
    3ffe:	48 89 df             	mov    %rbx,%rdi
    4001:	4c 89 f6             	mov    %r14,%rsi
    4004:	e8 e7 ee ff ff       	call   2ef0 <lzma_free>
    4009:	31 db                	xor    %ebx,%ebx
    400b:	48 89 d8             	mov    %rbx,%rax
    400e:	48 83 c4 08          	add    $0x8,%rsp
    4012:	5b                   	pop    %rbx
    4013:	41 5e                	pop    %r14
    4015:	c3                   	ret    
    4016:	66 2e 0f 1f 84 00 00 	cs nopw 0x0(%rax,%rax,1)
    401d:	00 00 00 

0000000000004020 <index_tree_append>:
    4020:	48 8b 47 10          	mov    0x10(%rdi),%rax
    4024:	48 89 46 10          	mov    %rax,0x10(%rsi)
    4028:	0f 57 c0             	xorps  %xmm0,%xmm0
    402b:	0f 11 46 18          	movups %xmm0,0x18(%rsi)
    402f:	ff 47 18             	incl   0x18(%rdi)
    4032:	48 83 3f 00          	cmpq   $0x0,(%rdi)
    4036:	0f 84 81 01 00 00    	je     41bd <index_tree_append+0x19d>
    403c:	48 8b 47 10          	mov    0x10(%rdi),%rax
    4040:	48 89 70 20          	mov    %rsi,0x20(%rax)
    4044:	48 89 77 10          	mov    %rsi,0x10(%rdi)
    4048:	8b 47 18             	mov    0x18(%rdi),%eax
    404b:	89 c1                	mov    %eax,%ecx
    404d:	c1 e1 10             	shl    $0x10,%ecx
    4050:	31 d2                	xor    %edx,%edx
    4052:	3d 00 00 01 00       	cmp    $0x10000,%eax
    4057:	0f 93 c2             	setae  %dl
    405a:	0f 43 c8             	cmovae %eax,%ecx
    405d:	c1 e2 04             	shl    $0x4,%edx
    4060:	44 8d 42 0f          	lea    0xf(%rdx),%r8d
    4064:	41 89 c9             	mov    %ecx,%r9d
    4067:	41 c1 e1 08          	shl    $0x8,%r9d
    406b:	83 ca 07             	or     $0x7,%edx
    406e:	81 f9 00 00 00 01    	cmp    $0x1000000,%ecx
    4074:	44 0f 43 c9          	cmovae %ecx,%r9d
    4078:	41 0f 43 d0          	cmovae %r8d,%edx
    407c:	45 89 c8             	mov    %r9d,%r8d
    407f:	41 c1 e0 04          	shl    $0x4,%r8d
    4083:	44 8d 52 fc          	lea    -0x4(%rdx),%r10d
    4087:	41 81 f9 00 00 00 10 	cmp    $0x10000000,%r9d
    408e:	45 0f 43 c1          	cmovae %r9d,%r8d
    4092:	44 0f 43 d2          	cmovae %edx,%r10d
    4096:	42 8d 0c 85 00 00 00 	lea    0x0(,%r8,4),%ecx
    409d:	00 
    409e:	41 81 f8 00 00 00 40 	cmp    $0x40000000,%r8d
    40a5:	41 0f 43 c8          	cmovae %r8d,%ecx
    40a9:	41 8d 52 fe          	lea    -0x2(%r10),%edx
    40ad:	41 0f 43 d2          	cmovae %r10d,%edx
    40b1:	f7 d1                	not    %ecx
    40b3:	c1 f9 1f             	sar    $0x1f,%ecx
    40b6:	01 d1                	add    %edx,%ecx
    40b8:	ba 01 00 00 00       	mov    $0x1,%edx
    40bd:	d3 e2                	shl    %cl,%edx
    40bf:	39 d0                	cmp    %edx,%eax
    40c1:	0f 84 f5 00 00 00    	je     41bc <index_tree_append+0x19c>
    40c7:	89 c1                	mov    %eax,%ecx
    40c9:	c1 e9 10             	shr    $0x10,%ecx
    40cc:	31 d2                	xor    %edx,%edx
    40ce:	66 85 c0             	test   %ax,%ax
    40d1:	0f 45 c8             	cmovne %eax,%ecx
    40d4:	0f 94 c2             	sete   %dl
    40d7:	c1 e2 04             	shl    $0x4,%edx
    40da:	89 c8                	mov    %ecx,%eax
    40dc:	c1 e8 08             	shr    $0x8,%eax
    40df:	44 8d 42 08          	lea    0x8(%rdx),%r8d
    40e3:	84 c9                	test   %cl,%cl
    40e5:	0f 45 c1             	cmovne %ecx,%eax
    40e8:	44 0f 45 c2          	cmovne %edx,%r8d
    40ec:	89 c1                	mov    %eax,%ecx
    40ee:	c1 e9 04             	shr    $0x4,%ecx
    40f1:	41 8d 50 04          	lea    0x4(%r8),%edx
    40f5:	a8 0f                	test   $0xf,%al
    40f7:	0f 45 c8             	cmovne %eax,%ecx
    40fa:	41 0f 45 d0          	cmovne %r8d,%edx
    40fe:	41 89 c8             	mov    %ecx,%r8d
    4101:	41 c1 e8 02          	shr    $0x2,%r8d
    4105:	44 8d 4a 02          	lea    0x2(%rdx),%r9d
    4109:	f6 c1 03             	test   $0x3,%cl
    410c:	44 0f 45 c1          	cmovne %ecx,%r8d
    4110:	41 f7 d0             	not    %r8d
    4113:	44 0f 45 ca          	cmovne %edx,%r9d
    4117:	41 83 e0 01          	and    $0x1,%r8d
    411b:	43 8d 04 01          	lea    (%r9,%r8,1),%eax
    411f:	83 c0 02             	add    $0x2,%eax
    4122:	43 8d 0c 01          	lea    (%r9,%r8,1),%ecx
    4126:	ff c1                	inc    %ecx
    4128:	89 c2                	mov    %eax,%edx
    412a:	83 e2 07             	and    $0x7,%edx
    412d:	74 20                	je     414f <index_tree_append+0x12f>
    412f:	45 31 c0             	xor    %r8d,%r8d
    4132:	66 66 66 66 66 2e 0f 	data16 data16 data16 data16 cs nopw 0x0(%rax,%rax,1)
    4139:	1f 84 00 00 00 00 00 
    4140:	48 8b 76 10          	mov    0x10(%rsi),%rsi
    4144:	41 ff c0             	inc    %r8d
    4147:	44 39 c2             	cmp    %r8d,%edx
    414a:	75 f4                	jne    4140 <index_tree_append+0x120>
    414c:	44 29 c0             	sub    %r8d,%eax
    414f:	83 f9 07             	cmp    $0x7,%ecx
    4152:	72 31                	jb     4185 <index_tree_append+0x165>
    4154:	66 66 66 2e 0f 1f 84 	data16 data16 cs nopw 0x0(%rax,%rax,1)
    415b:	00 00 00 00 00 
    4160:	48 8b 4e 10          	mov    0x10(%rsi),%rcx
    4164:	48 8b 49 10          	mov    0x10(%rcx),%rcx
    4168:	48 8b 49 10          	mov    0x10(%rcx),%rcx
    416c:	48 8b 49 10          	mov    0x10(%rcx),%rcx
    4170:	48 8b 49 10          	mov    0x10(%rcx),%rcx
    4174:	48 8b 49 10          	mov    0x10(%rcx),%rcx
    4178:	48 8b 49 10          	mov    0x10(%rcx),%rcx
    417c:	48 8b 71 10          	mov    0x10(%rcx),%rsi
    4180:	83 c0 f8             	add    $0xfffffff8,%eax
    4183:	75 db                	jne    4160 <index_tree_append+0x140>
    4185:	48 8b 4e 10          	mov    0x10(%rsi),%rcx
    4189:	48 8b 46 20          	mov    0x20(%rsi),%rax
    418d:	48 8d 51 20          	lea    0x20(%rcx),%rdx
    4191:	48 85 c9             	test   %rcx,%rcx
    4194:	48 0f 44 d7          	cmove  %rdi,%rdx
    4198:	48 89 02             	mov    %rax,(%rdx)
    419b:	48 8b 4e 10          	mov    0x10(%rsi),%rcx
    419f:	48 89 48 10          	mov    %rcx,0x10(%rax)
    41a3:	48 8b 48 18          	mov    0x18(%rax),%rcx
    41a7:	48 89 4e 20          	mov    %rcx,0x20(%rsi)
    41ab:	48 85 c9             	test   %rcx,%rcx
    41ae:	74 04                	je     41b4 <index_tree_append+0x194>
    41b0:	48 89 71 10          	mov    %rsi,0x10(%rcx)
    41b4:	48 89 70 18          	mov    %rsi,0x18(%rax)
    41b8:	48 89 46 10          	mov    %rax,0x10(%rsi)
    41bc:	c3                   	ret    
    41bd:	48 89 37             	mov    %rsi,(%rdi)
    41c0:	48 89 77 08          	mov    %rsi,0x8(%rdi)
    41c4:	48 89 77 10          	mov    %rsi,0x10(%rdi)
    41c8:	c3                   	ret    
    41c9:	0f 1f 80 00 00 00 00 	nopl   0x0(%rax)

00000000000041d0 <lzma_index_end>:
    41d0:	48 85 ff             	test   %rdi,%rdi
    41d3:	74 37                	je     420c <lzma_index_end+0x3c>
    41d5:	48 8b 07             	mov    (%rdi),%rax
    41d8:	48 85 c0             	test   %rax,%rax
    41db:	0f 84 0f ed ff ff    	je     2ef0 <lzma_free>
    41e1:	41 56                	push   %r14
    41e3:	53                   	push   %rbx
    41e4:	50                   	push   %rax
    41e5:	48 8d 15 24 00 00 00 	lea    0x24(%rip),%rdx        # 4210 <index_stream_end>
    41ec:	49 89 fe             	mov    %rdi,%r14
    41ef:	48 89 c7             	mov    %rax,%rdi
    41f2:	48 89 f3             	mov    %rsi,%rbx
    41f5:	e8 06 12 00 00       	call   5400 <index_tree_node_end>
    41fa:	4c 89 f7             	mov    %r14,%rdi
    41fd:	48 89 de             	mov    %rbx,%rsi
    4200:	48 83 c4 08          	add    $0x8,%rsp
    4204:	5b                   	pop    %rbx
    4205:	41 5e                	pop    %r14
    4207:	e9 e4 ec ff ff       	jmp    2ef0 <lzma_free>
    420c:	c3                   	ret    
    420d:	0f 1f 00             	nopl   (%rax)

0000000000004210 <index_stream_end>:
    4210:	48 8b 7f 38          	mov    0x38(%rdi),%rdi
    4214:	48 85 ff             	test   %rdi,%rdi
    4217:	74 07                	je     4220 <index_stream_end+0x10>
    4219:	31 d2                	xor    %edx,%edx
    421b:	e9 e0 11 00 00       	jmp    5400 <index_tree_node_end>
    4220:	c3                   	ret    
    4221:	66 66 66 66 66 66 2e 	data16 data16 data16 data16 data16 cs nopw 0x0(%rax,%rax,1)
    4228:	0f 1f 84 00 00 00 00 
    422f:	00 

0000000000004230 <lzma_index_prealloc>:
    4230:	48 b8 fb ff ff ff ff 	movabs $0xffffffffffffffb,%rax
    4237:	ff ff 0f 
    423a:	48 39 c6             	cmp    %rax,%rsi
    423d:	48 0f 42 c6          	cmovb  %rsi,%rax
    4241:	48 89 47 40          	mov    %rax,0x40(%rdi)
    4245:	c3                   	ret    
    4246:	66 2e 0f 1f 84 00 00 	cs nopw 0x0(%rax,%rax,1)
    424d:	00 00 00 

0000000000004250 <lzma_index_memusage>:
    4250:	48 8d 86 ff 01 00 00 	lea    0x1ff(%rsi),%rax
    4257:	48 c1 e8 09          	shr    $0x9,%rax
    425b:	48 69 cf 28 01 00 00 	imul   $0x128,%rdi,%rcx
    4262:	48 69 c0 60 20 00 00 	imul   $0x2060,%rax,%rax
    4269:	48 ba 00 00 00 00 ff 	movabs $0xffffffff00000000,%rdx
    4270:	ff ff ff 
    4273:	48 01 d7             	add    %rdx,%rdi
    4276:	48 83 ca 01          	or     $0x1,%rdx
    427a:	49 c7 c0 8f ff ff ff 	mov    $0xffffffffffffff8f,%r8
    4281:	49 29 c8             	sub    %rcx,%r8
    4284:	49 39 c0             	cmp    %rax,%r8
    4287:	48 8d 44 01 70       	lea    0x70(%rcx,%rax,1),%rax
    428c:	48 c7 c1 ff ff ff ff 	mov    $0xffffffffffffffff,%rcx
    4293:	48 0f 42 c1          	cmovb  %rcx,%rax
    4297:	49 b8 00 08 fd 00 55 	movabs $0xfd08e5500fd0800,%r8
    429e:	8e d0 0f 
    42a1:	4c 39 c6             	cmp    %r8,%rsi
    42a4:	48 0f 47 c1          	cmova  %rcx,%rax
    42a8:	48 39 d7             	cmp    %rdx,%rdi
    42ab:	48 0f 42 c1          	cmovb  %rcx,%rax
    42af:	c3                   	ret    

00000000000042b0 <lzma_index_memused>:
    42b0:	8b 4f 18             	mov    0x18(%rdi),%ecx
    42b3:	48 8b 47 30          	mov    0x30(%rdi),%rax
    42b7:	48 8d 90 ff 01 00 00 	lea    0x1ff(%rax),%rdx
    42be:	48 c1 ea 09          	shr    $0x9,%rdx
    42c2:	48 69 f1 28 01 00 00 	imul   $0x128,%rcx,%rsi
    42c9:	48 69 d2 60 20 00 00 	imul   $0x2060,%rdx,%rdx
    42d0:	48 c7 c7 8f ff ff ff 	mov    $0xffffffffffffff8f,%rdi
    42d7:	48 29 f7             	sub    %rsi,%rdi
    42da:	48 39 d7             	cmp    %rdx,%rdi
    42dd:	48 8d 54 16 70       	lea    0x70(%rsi,%rdx,1),%rdx
    42e2:	48 c7 c6 ff ff ff ff 	mov    $0xffffffffffffffff,%rsi
    42e9:	48 0f 42 d6          	cmovb  %rsi,%rdx
    42ed:	48 bf 00 08 fd 00 55 	movabs $0xfd08e5500fd0800,%rdi
    42f4:	8e d0 0f 
    42f7:	48 39 f8             	cmp    %rdi,%rax
    42fa:	48 0f 47 d6          	cmova  %rsi,%rdx
    42fe:	31 c0                	xor    %eax,%eax
    4300:	48 83 f9 01          	cmp    $0x1,%rcx
    4304:	48 19 c0             	sbb    %rax,%rax
    4307:	48 09 d0             	or     %rdx,%rax
    430a:	c3                   	ret    
    430b:	0f 1f 44 00 00       	nopl   0x0(%rax,%rax,1)

0000000000004310 <lzma_index_block_count>:
    4310:	48 8b 47 30          	mov    0x30(%rdi),%rax
    4314:	c3                   	ret    
    4315:	66 66 2e 0f 1f 84 00 	data16 cs nopw 0x0(%rax,%rax,1)
    431c:	00 00 00 00 

0000000000004320 <lzma_index_stream_count>:
    4320:	8b 47 18             	mov    0x18(%rdi),%eax
    4323:	c3                   	ret    
    4324:	66 66 66 2e 0f 1f 84 	data16 data16 cs nopw 0x0(%rax,%rax,1)
    432b:	00 00 00 00 00 

0000000000004330 <lzma_index_size>:
    4330:	53                   	push   %rbx
    4331:	48 8b 47 30          	mov    0x30(%rdi),%rax
    4335:	48 8b 5f 38          	mov    0x38(%rdi),%rbx
    4339:	48 89 c7             	mov    %rax,%rdi
    433c:	e8 9f 11 00 00       	call   54e0 <lzma_vli_size>
    4341:	ff c0                	inc    %eax
    4343:	48 01 d8             	add    %rbx,%rax
    4346:	48 83 c0 07          	add    $0x7,%rax
    434a:	48 83 e0 fc          	and    $0xfffffffffffffffc,%rax
    434e:	5b                   	pop    %rbx
    434f:	c3                   	ret    

0000000000004350 <lzma_index_total_size>:
    4350:	48 8b 47 28          	mov    0x28(%rdi),%rax
    4354:	c3                   	ret    
    4355:	66 66 2e 0f 1f 84 00 	data16 cs nopw 0x0(%rax,%rax,1)
    435c:	00 00 00 00 

0000000000004360 <lzma_index_stream_size>:
    4360:	41 56                	push   %r14
    4362:	53                   	push   %rbx
    4363:	50                   	push   %rax
    4364:	48 8b 5f 28          	mov    0x28(%rdi),%rbx
    4368:	48 8b 47 30          	mov    0x30(%rdi),%rax
    436c:	4c 8b 77 38          	mov    0x38(%rdi),%r14
    4370:	48 89 c7             	mov    %rax,%rdi
    4373:	e8 68 11 00 00       	call   54e0 <lzma_vli_size>
    4378:	ff c0                	inc    %eax
    437a:	4c 01 f0             	add    %r14,%rax
    437d:	48 83 c0 07          	add    $0x7,%rax
    4381:	48 83 e0 fc          	and    $0xfffffffffffffffc,%rax
    4385:	48 01 d8             	add    %rbx,%rax
    4388:	48 83 c0 18          	add    $0x18,%rax
    438c:	48 83 c4 08          	add    $0x8,%rsp
    4390:	5b                   	pop    %rbx
    4391:	41 5e                	pop    %r14
    4393:	c3                   	ret    
    4394:	66 66 66 2e 0f 1f 84 	data16 data16 cs nopw 0x0(%rax,%rax,1)
    439b:	00 00 00 00 00 

00000000000043a0 <lzma_index_file_size>:
    43a0:	41 56                	push   %r14
    43a2:	53                   	push   %rbx
    43a3:	50                   	push   %rax
    43a4:	48 8b 47 10          	mov    0x10(%rdi),%rax
    43a8:	48 8b 58 08          	mov    0x8(%rax),%rbx
    43ac:	48 8b 48 48          	mov    0x48(%rax),%rcx
    43b0:	48 85 c9             	test   %rcx,%rcx
    43b3:	74 56                	je     440b <lzma_index_file_size+0x6b>
    43b5:	48 8b 51 38          	mov    0x38(%rcx),%rdx
    43b9:	48 c1 e2 04          	shl    $0x4,%rdx
    43bd:	48 8b 4c 11 48       	mov    0x48(%rcx,%rdx,1),%rcx
    43c2:	48 83 c1 03          	add    $0x3,%rcx
    43c6:	48 83 e1 fc          	and    $0xfffffffffffffffc,%rcx
    43ca:	48 01 cb             	add    %rcx,%rbx
    43cd:	48 03 98 a0 00 00 00 	add    0xa0(%rax),%rbx
    43d4:	48 83 c3 18          	add    $0x18,%rbx
    43d8:	78 43                	js     441d <lzma_index_file_size+0x7d>
    43da:	48 8b 78 58          	mov    0x58(%rax),%rdi
    43de:	4c 8b 70 60          	mov    0x60(%rax),%r14
    43e2:	e8 f9 10 00 00       	call   54e0 <lzma_vli_size>
    43e7:	ff c0                	inc    %eax
    43e9:	49 8d 0c 06          	lea    (%r14,%rax,1),%rcx
    43ed:	48 83 c1 07          	add    $0x7,%rcx
    43f1:	48 83 e1 fc          	and    $0xfffffffffffffffc,%rcx
    43f5:	48 01 d9             	add    %rbx,%rcx
    43f8:	48 c7 c0 ff ff ff ff 	mov    $0xffffffffffffffff,%rax
    43ff:	48 0f 49 c1          	cmovns %rcx,%rax
    4403:	48 83 c4 08          	add    $0x8,%rsp
    4407:	5b                   	pop    %rbx
    4408:	41 5e                	pop    %r14
    440a:	c3                   	ret    
    440b:	31 c9                	xor    %ecx,%ecx
    440d:	48 01 cb             	add    %rcx,%rbx
    4410:	48 03 98 a0 00 00 00 	add    0xa0(%rax),%rbx
    4417:	48 83 c3 18          	add    $0x18,%rbx
    441b:	79 bd                	jns    43da <lzma_index_file_size+0x3a>
    441d:	48 c7 c0 ff ff ff ff 	mov    $0xffffffffffffffff,%rax
    4424:	48 83 c4 08          	add    $0x8,%rsp
    4428:	5b                   	pop    %rbx
    4429:	41 5e                	pop    %r14
    442b:	c3                   	ret    
    442c:	0f 1f 40 00          	nopl   0x0(%rax)

0000000000004430 <lzma_index_uncompressed_size>:
    4430:	48 8b 47 20          	mov    0x20(%rdi),%rax
    4434:	c3                   	ret    
    4435:	66 66 2e 0f 1f 84 00 	data16 cs nopw 0x0(%rax,%rax,1)
    443c:	00 00 00 00 

0000000000004440 <lzma_index_checks>:
    4440:	8b 47 48             	mov    0x48(%rdi),%eax
    4443:	48 8b 4f 10          	mov    0x10(%rdi),%rcx
    4447:	83 79 68 ff          	cmpl   $0xffffffff,0x68(%rcx)
    444b:	74 07                	je     4454 <lzma_index_checks+0x14>
    444d:	0f b6 49 78          	movzbl 0x78(%rcx),%ecx
    4451:	0f ab c8             	bts    %ecx,%eax
    4454:	c3                   	ret    
    4455:	66 66 2e 0f 1f 84 00 	data16 cs nopw 0x0(%rax,%rax,1)
    445c:	00 00 00 00 

0000000000004460 <lzma_index_padding_size>:
    4460:	53                   	push   %rbx
    4461:	48 8b 47 30          	mov    0x30(%rdi),%rax
    4465:	8b 5f 38             	mov    0x38(%rdi),%ebx
    4468:	48 89 c7             	mov    %rax,%rdi
    446b:	e8 70 10 00 00       	call   54e0 <lzma_vli_size>
    4470:	01 d8                	add    %ebx,%eax
    4472:	b9 03 00 00 00       	mov    $0x3,%ecx
    4477:	29 c1                	sub    %eax,%ecx
    4479:	83 e1 03             	and    $0x3,%ecx
    447c:	89 c8                	mov    %ecx,%eax
    447e:	5b                   	pop    %rbx
    447f:	c3                   	ret    

0000000000004480 <lzma_index_stream_flags>:
    4480:	b8 0b 00 00 00       	mov    $0xb,%eax
    4485:	48 85 ff             	test   %rdi,%rdi
    4488:	74 50                	je     44da <lzma_index_stream_flags+0x5a>
    448a:	41 56                	push   %r14
    448c:	53                   	push   %rbx
    448d:	50                   	push   %rax
    448e:	48 89 f3             	mov    %rsi,%rbx
    4491:	48 85 f6             	test   %rsi,%rsi
    4494:	74 3d                	je     44d3 <lzma_index_stream_flags+0x53>
    4496:	49 89 fe             	mov    %rdi,%r14
    4499:	48 89 df             	mov    %rbx,%rdi
    449c:	48 89 de             	mov    %rbx,%rsi
    449f:	e8 bc 0f 00 00       	call   5460 <lzma_stream_flags_compare>
    44a4:	85 c0                	test   %eax,%eax
    44a6:	75 2b                	jne    44d3 <lzma_index_stream_flags+0x53>
    44a8:	49 8b 46 10          	mov    0x10(%r14),%rax
    44ac:	48 8b 4b 30          	mov    0x30(%rbx),%rcx
    44b0:	48 89 88 98 00 00 00 	mov    %rcx,0x98(%rax)
    44b7:	0f 10 03             	movups (%rbx),%xmm0
    44ba:	0f 10 4b 10          	movups 0x10(%rbx),%xmm1
    44be:	0f 10 53 20          	movups 0x20(%rbx),%xmm2
    44c2:	0f 11 90 88 00 00 00 	movups %xmm2,0x88(%rax)
    44c9:	0f 11 48 78          	movups %xmm1,0x78(%rax)
    44cd:	0f 11 40 68          	movups %xmm0,0x68(%rax)
    44d1:	31 c0                	xor    %eax,%eax
    44d3:	48 83 c4 08          	add    $0x8,%rsp
    44d7:	5b                   	pop    %rbx
    44d8:	41 5e                	pop    %r14
    44da:	c3                   	ret    
    44db:	0f 1f 44 00 00       	nopl   0x0(%rax,%rax,1)

00000000000044e0 <lzma_index_stream_padding>:
    44e0:	b8 0b 00 00 00       	mov    $0xb,%eax
    44e5:	48 85 ff             	test   %rdi,%rdi
    44e8:	0f 84 d0 00 00 00    	je     45be <lzma_index_stream_padding+0xde>
    44ee:	48 b9 03 00 00 00 00 	movabs $0x8000000000000003,%rcx
    44f5:	00 00 80 
    44f8:	48 21 f1             	and    %rsi,%rcx
    44fb:	0f 85 bd 00 00 00    	jne    45be <lzma_index_stream_padding+0xde>
    4501:	41 57                	push   %r15
    4503:	41 56                	push   %r14
    4505:	41 55                	push   %r13
    4507:	41 54                	push   %r12
    4509:	53                   	push   %rbx
    450a:	48 8b 5f 10          	mov    0x10(%rdi),%rbx
    450e:	4c 8b b3 a0 00 00 00 	mov    0xa0(%rbx),%r14
    4515:	48 c7 83 a0 00 00 00 	movq   $0x0,0xa0(%rbx)
    451c:	00 00 00 00 
    4520:	48 8b 47 10          	mov    0x10(%rdi),%rax
    4524:	4c 8b 78 08          	mov    0x8(%rax),%r15
    4528:	48 8b 48 48          	mov    0x48(%rax),%rcx
    452c:	48 85 c9             	test   %rcx,%rcx
    452f:	74 56                	je     4587 <lzma_index_stream_padding+0xa7>
    4531:	48 8b 51 38          	mov    0x38(%rcx),%rdx
    4535:	48 c1 e2 04          	shl    $0x4,%rdx
    4539:	48 8b 4c 11 48       	mov    0x48(%rcx,%rdx,1),%rcx
    453e:	48 83 c1 03          	add    $0x3,%rcx
    4542:	48 83 e1 fc          	and    $0xfffffffffffffffc,%rcx
    4546:	49 01 cf             	add    %rcx,%r15
    4549:	4c 03 b8 a0 00 00 00 	add    0xa0(%rax),%r15
    4550:	49 83 c7 18          	add    $0x18,%r15
    4554:	78 43                	js     4599 <lzma_index_stream_padding+0xb9>
    4556:	48 8b 78 58          	mov    0x58(%rax),%rdi
    455a:	4c 8b 68 60          	mov    0x60(%rax),%r13
    455e:	49 89 f4             	mov    %rsi,%r12
    4561:	e8 7a 0f 00 00       	call   54e0 <lzma_vli_size>
    4566:	4c 89 e6             	mov    %r12,%rsi
    4569:	ff c0                	inc    %eax
    456b:	4a 8d 0c 28          	lea    (%rax,%r13,1),%rcx
    456f:	48 83 c1 07          	add    $0x7,%rcx
    4573:	48 83 e1 fc          	and    $0xfffffffffffffffc,%rcx
    4577:	4c 01 f9             	add    %r15,%rcx
    457a:	48 c7 c0 ff ff ff ff 	mov    $0xffffffffffffffff,%rax
    4581:	48 0f 49 c1          	cmovns %rcx,%rax
    4585:	eb 19                	jmp    45a0 <lzma_index_stream_padding+0xc0>
    4587:	31 c9                	xor    %ecx,%ecx
    4589:	49 01 cf             	add    %rcx,%r15
    458c:	4c 03 b8 a0 00 00 00 	add    0xa0(%rax),%r15
    4593:	49 83 c7 18          	add    $0x18,%r15
    4597:	79 bd                	jns    4556 <lzma_index_stream_padding+0x76>
    4599:	48 c7 c0 ff ff ff ff 	mov    $0xffffffffffffffff,%rax
    45a0:	48 01 f0             	add    %rsi,%rax
    45a3:	4c 0f 49 f6          	cmovns %rsi,%r14
    45a7:	48 c1 f8 3f          	sar    $0x3f,%rax
    45ab:	83 e0 09             	and    $0x9,%eax
    45ae:	4c 89 b3 a0 00 00 00 	mov    %r14,0xa0(%rbx)
    45b5:	5b                   	pop    %rbx
    45b6:	41 5c                	pop    %r12
    45b8:	41 5d                	pop    %r13
    45ba:	41 5e                	pop    %r14
    45bc:	41 5f                	pop    %r15
    45be:	c3                   	ret    
    45bf:	90                   	nop

00000000000045c0 <lzma_index_append>:
    45c0:	55                   	push   %rbp
    45c1:	41 57                	push   %r15
    45c3:	41 56                	push   %r14
    45c5:	41 55                	push   %r13
    45c7:	41 54                	push   %r12
    45c9:	53                   	push   %rbx
    45ca:	48 83 ec 38          	sub    $0x38,%rsp
    45ce:	b8 0b 00 00 00       	mov    $0xb,%eax
    45d3:	48 89 4c 24 10       	mov    %rcx,0x10(%rsp)
    45d8:	48 85 c9             	test   %rcx,%rcx
    45db:	0f 88 17 02 00 00    	js     47f8 <lzma_index_append+0x238>
    45e1:	49 89 ff             	mov    %rdi,%r15
    45e4:	48 85 ff             	test   %rdi,%rdi
    45e7:	0f 84 0b 02 00 00    	je     47f8 <lzma_index_append+0x238>
    45ed:	48 89 d3             	mov    %rdx,%rbx
    45f0:	48 b9 03 00 00 00 00 	movabs $0x8000000000000003,%rcx
    45f7:	00 00 80 
    45fa:	48 01 ca             	add    %rcx,%rdx
    45fd:	48 83 c1 05          	add    $0x5,%rcx
    4601:	48 39 ca             	cmp    %rcx,%rdx
    4604:	0f 82 ee 01 00 00    	jb     47f8 <lzma_index_append+0x238>
    460a:	4d 8b 6f 10          	mov    0x10(%r15),%r13
    460e:	4d 8b 65 48          	mov    0x48(%r13),%r12
    4612:	4d 85 e4             	test   %r12,%r12
    4615:	48 89 74 24 30       	mov    %rsi,0x30(%rsp)
    461a:	74 22                	je     463e <lzma_index_append+0x7e>
    461c:	49 8b 44 24 38       	mov    0x38(%r12),%rax
    4621:	48 c1 e0 04          	shl    $0x4,%rax
    4625:	49 8b 4c 04 40       	mov    0x40(%r12,%rax,1),%rcx
    462a:	48 89 4c 24 08       	mov    %rcx,0x8(%rsp)
    462f:	4d 8b 74 04 48       	mov    0x48(%r12,%rax,1),%r14
    4634:	49 83 c6 03          	add    $0x3,%r14
    4638:	49 83 e6 fc          	and    $0xfffffffffffffffc,%r14
    463c:	eb 0a                	jmp    4648 <lzma_index_append+0x88>
    463e:	45 31 f6             	xor    %r14d,%r14d
    4641:	31 c0                	xor    %eax,%eax
    4643:	48 89 44 24 08       	mov    %rax,0x8(%rsp)
    4648:	48 89 df             	mov    %rbx,%rdi
    464b:	e8 90 0e 00 00       	call   54e0 <lzma_vli_size>
    4650:	89 c5                	mov    %eax,%ebp
    4652:	48 8b 7c 24 10       	mov    0x10(%rsp),%rdi
    4657:	e8 84 0e 00 00       	call   54e0 <lzma_vli_size>
    465c:	89 c1                	mov    %eax,%ecx
    465e:	48 89 5c 24 28       	mov    %rbx,0x28(%rsp)
    4663:	4c 01 f3             	add    %r14,%rbx
    4666:	48 83 c3 03          	add    $0x3,%rbx
    466a:	48 83 e3 fc          	and    $0xfffffffffffffffc,%rbx
    466e:	49 03 5d 08          	add    0x8(%r13),%rbx
    4672:	49 03 9d a0 00 00 00 	add    0xa0(%r13),%rbx
    4679:	48 83 c3 18          	add    $0x18,%rbx
    467d:	b8 09 00 00 00       	mov    $0x9,%eax
    4682:	0f 88 70 01 00 00    	js     47f8 <lzma_index_append+0x238>
    4688:	4c 89 7c 24 20       	mov    %r15,0x20(%rsp)
    468d:	01 e9                	add    %ebp,%ecx
    468f:	49 8b 7d 58          	mov    0x58(%r13),%rdi
    4693:	48 ff c7             	inc    %rdi
    4696:	48 89 4c 24 18       	mov    %rcx,0x18(%rsp)
    469b:	48 8d 69 07          	lea    0x7(%rcx),%rbp
    469f:	4d 8b 7d 60          	mov    0x60(%r13),%r15
    46a3:	49 01 ef             	add    %rbp,%r15
    46a6:	e8 35 0e 00 00       	call   54e0 <lzma_vli_size>
    46ab:	ff c0                	inc    %eax
    46ad:	4c 01 f8             	add    %r15,%rax
    46b0:	48 83 e0 fc          	and    $0xfffffffffffffffc,%rax
    46b4:	48 01 d8             	add    %rbx,%rax
    46b7:	78 60                	js     4719 <lzma_index_append+0x159>
    46b9:	48 8b 5c 24 20       	mov    0x20(%rsp),%rbx
    46be:	48 8b 7b 30          	mov    0x30(%rbx),%rdi
    46c2:	48 ff c7             	inc    %rdi
    46c5:	48 03 6b 38          	add    0x38(%rbx),%rbp
    46c9:	e8 12 0e 00 00       	call   54e0 <lzma_vli_size>
    46ce:	ff c0                	inc    %eax
    46d0:	48 01 e8             	add    %rbp,%rax
    46d3:	48 83 e0 fc          	and    $0xfffffffffffffffc,%rax
    46d7:	48 b9 00 00 00 00 04 	movabs $0x400000000,%rcx
    46de:	00 00 00 
    46e1:	48 39 c8             	cmp    %rcx,%rax
    46e4:	48 8b 74 24 30       	mov    0x30(%rsp),%rsi
    46e9:	b8 09 00 00 00       	mov    $0x9,%eax
    46ee:	4c 8b 7c 24 28       	mov    0x28(%rsp),%r15
    46f3:	0f 87 ff 00 00 00    	ja     47f8 <lzma_index_append+0x238>
    46f9:	4d 85 e4             	test   %r12,%r12
    46fc:	74 25                	je     4723 <lzma_index_append+0x163>
    46fe:	49 8b 44 24 38       	mov    0x38(%r12),%rax
    4703:	48 ff c0             	inc    %rax
    4706:	49 3b 44 24 30       	cmp    0x30(%r12),%rax
    470b:	73 16                	jae    4723 <lzma_index_append+0x163>
    470d:	49 89 44 24 38       	mov    %rax,0x38(%r12)
    4712:	48 8b 6c 24 08       	mov    0x8(%rsp),%rbp
    4717:	eb 6b                	jmp    4784 <lzma_index_append+0x1c4>
    4719:	b8 09 00 00 00       	mov    $0x9,%eax
    471e:	e9 d5 00 00 00       	jmp    47f8 <lzma_index_append+0x238>
    4723:	48 8b 7b 40          	mov    0x40(%rbx),%rdi
    4727:	48 c1 e7 04          	shl    $0x4,%rdi
    472b:	48 83 c7 40          	add    $0x40,%rdi
    472f:	e8 8c e7 ff ff       	call   2ec0 <lzma_alloc>
    4734:	48 85 c0             	test   %rax,%rax
    4737:	48 8b 6c 24 08       	mov    0x8(%rsp),%rbp
    473c:	0f 84 b1 00 00 00    	je     47f3 <lzma_index_append+0x233>
    4742:	49 89 c4             	mov    %rax,%r12
    4745:	49 8d 7d 38          	lea    0x38(%r13),%rdi
    4749:	48 c7 40 38 00 00 00 	movq   $0x0,0x38(%rax)
    4750:	00 
    4751:	48 8b 43 40          	mov    0x40(%rbx),%rax
    4755:	49 89 44 24 30       	mov    %rax,0x30(%r12)
    475a:	48 c7 43 40 00 02 00 	movq   $0x200,0x40(%rbx)
    4761:	00 
    4762:	49 89 2c 24          	mov    %rbp,(%r12)
    4766:	4d 89 74 24 08       	mov    %r14,0x8(%r12)
    476b:	49 8b 45 58          	mov    0x58(%r13),%rax
    476f:	48 ff c0             	inc    %rax
    4772:	49 89 44 24 28       	mov    %rax,0x28(%r12)
    4777:	4c 89 e6             	mov    %r12,%rsi
    477a:	e8 a1 f8 ff ff       	call   4020 <index_tree_append>
    477f:	49 8b 44 24 38       	mov    0x38(%r12),%rax
    4784:	4d 01 fe             	add    %r15,%r14
    4787:	48 8b 4c 24 10       	mov    0x10(%rsp),%rcx
    478c:	48 01 cd             	add    %rcx,%rbp
    478f:	48 c1 e0 04          	shl    $0x4,%rax
    4793:	49 89 6c 04 40       	mov    %rbp,0x40(%r12,%rax,1)
    4798:	4d 89 74 04 48       	mov    %r14,0x48(%r12,%rax,1)
    479d:	f3 41 0f 6f 45 58    	movdqu 0x58(%r13),%xmm0
    47a3:	48 8b 44 24 18       	mov    0x18(%rsp),%rax
    47a8:	66 48 0f 6e c8       	movq   %rax,%xmm1
    47ad:	66 0f 6f 15 fb f3 01 	movdqa 0x1f3fb(%rip),%xmm2        # 23bb0 <features+0xf0>
    47b4:	00 
    47b5:	66 0f 6c d1          	punpcklqdq %xmm1,%xmm2
    47b9:	66 0f d4 d0          	paddq  %xmm0,%xmm2
    47bd:	f3 41 0f 7f 55 58    	movdqu %xmm2,0x58(%r13)
    47c3:	49 83 c7 03          	add    $0x3,%r15
    47c7:	49 83 e7 fc          	and    $0xfffffffffffffffc,%r15
    47cb:	66 49 0f 6e c7       	movq   %r15,%xmm0
    47d0:	48 01 4b 20          	add    %rcx,0x20(%rbx)
    47d4:	f3 0f 6f 4b 28       	movdqu 0x28(%rbx),%xmm1
    47d9:	66 0f c6 05 de f3 01 	shufpd $0x2,0x1f3de(%rip),%xmm0        # 23bc0 <features+0x100>
    47e0:	00 02 
    47e2:	66 0f d4 c1          	paddq  %xmm1,%xmm0
    47e6:	f3 0f 7f 43 28       	movdqu %xmm0,0x28(%rbx)
    47eb:	48 01 43 38          	add    %rax,0x38(%rbx)
    47ef:	31 c0                	xor    %eax,%eax
    47f1:	eb 05                	jmp    47f8 <lzma_index_append+0x238>
    47f3:	b8 05 00 00 00       	mov    $0x5,%eax
    47f8:	48 83 c4 38          	add    $0x38,%rsp
    47fc:	5b                   	pop    %rbx
    47fd:	41 5c                	pop    %r12
    47ff:	41 5d                	pop    %r13
    4801:	41 5e                	pop    %r14
    4803:	41 5f                	pop    %r15
    4805:	5d                   	pop    %rbp
    4806:	c3                   	ret    
    4807:	66 0f 1f 84 00 00 00 	nopw   0x0(%rax,%rax,1)
    480e:	00 00 

0000000000004810 <lzma_index_cat>:
    4810:	55                   	push   %rbp
    4811:	41 57                	push   %r15
    4813:	41 56                	push   %r14
    4815:	41 55                	push   %r13
    4817:	41 54                	push   %r12
    4819:	53                   	push   %rbx
    481a:	48 83 ec 68          	sub    $0x68,%rsp
    481e:	49 89 d6             	mov    %rdx,%r14
    4821:	48 89 f5             	mov    %rsi,%rbp
    4824:	49 89 ff             	mov    %rdi,%r15
    4827:	48 8b 5f 10          	mov    0x10(%rdi),%rbx
    482b:	4c 8b 63 08          	mov    0x8(%rbx),%r12
    482f:	48 8b 43 48          	mov    0x48(%rbx),%rax
    4833:	48 85 c0             	test   %rax,%rax
    4836:	74 4f                	je     4887 <lzma_index_cat+0x77>
    4838:	48 8b 48 38          	mov    0x38(%rax),%rcx
    483c:	48 c1 e1 04          	shl    $0x4,%rcx
    4840:	48 8b 44 08 48       	mov    0x48(%rax,%rcx,1),%rax
    4845:	48 83 c0 03          	add    $0x3,%rax
    4849:	48 83 e0 fc          	and    $0xfffffffffffffffc,%rax
    484d:	49 01 c4             	add    %rax,%r12
    4850:	4c 03 a3 a0 00 00 00 	add    0xa0(%rbx),%r12
    4857:	49 83 c4 18          	add    $0x18,%r12
    485b:	78 3c                	js     4899 <lzma_index_cat+0x89>
    485d:	48 8b 7b 58          	mov    0x58(%rbx),%rdi
    4861:	4c 8b 6b 60          	mov    0x60(%rbx),%r13
    4865:	e8 76 0c 00 00       	call   54e0 <lzma_vli_size>
    486a:	ff c0                	inc    %eax
    486c:	4c 01 e8             	add    %r13,%rax
    486f:	48 83 c0 07          	add    $0x7,%rax
    4873:	48 83 e0 fc          	and    $0xfffffffffffffffc,%rax
    4877:	4c 01 e0             	add    %r12,%rax
    487a:	49 c7 c4 ff ff ff ff 	mov    $0xffffffffffffffff,%r12
    4881:	4c 0f 49 e0          	cmovns %rax,%r12
    4885:	eb 19                	jmp    48a0 <lzma_index_cat+0x90>
    4887:	31 c0                	xor    %eax,%eax
    4889:	49 01 c4             	add    %rax,%r12
    488c:	4c 03 a3 a0 00 00 00 	add    0xa0(%rbx),%r12
    4893:	49 83 c4 18          	add    $0x18,%r12
    4897:	79 c4                	jns    485d <lzma_index_cat+0x4d>
    4899:	49 c7 c4 ff ff ff ff 	mov    $0xffffffffffffffff,%r12
    48a0:	48 8b 45 10          	mov    0x10(%rbp),%rax
    48a4:	4c 8b 68 08          	mov    0x8(%rax),%r13
    48a8:	48 8b 48 48          	mov    0x48(%rax),%rcx
    48ac:	48 85 c9             	test   %rcx,%rcx
    48af:	74 17                	je     48c8 <lzma_index_cat+0xb8>
    48b1:	48 8b 51 38          	mov    0x38(%rcx),%rdx
    48b5:	48 c1 e2 04          	shl    $0x4,%rdx
    48b9:	48 8b 4c 11 48       	mov    0x48(%rcx,%rdx,1),%rcx
    48be:	48 83 c1 03          	add    $0x3,%rcx
    48c2:	48 83 e1 fc          	and    $0xfffffffffffffffc,%rcx
    48c6:	eb 02                	jmp    48ca <lzma_index_cat+0xba>
    48c8:	31 c9                	xor    %ecx,%ecx
    48ca:	48 89 2c 24          	mov    %rbp,(%rsp)
    48ce:	49 01 cd             	add    %rcx,%r13
    48d1:	4c 03 a8 a0 00 00 00 	add    0xa0(%rax),%r13
    48d8:	49 83 c5 18          	add    $0x18,%r13
    48dc:	78 38                	js     4916 <lzma_index_cat+0x106>
    48de:	48 8b 78 58          	mov    0x58(%rax),%rdi
    48e2:	48 8b 68 60          	mov    0x60(%rax),%rbp
    48e6:	e8 f5 0b 00 00       	call   54e0 <lzma_vli_size>
    48eb:	ff c0                	inc    %eax
    48ed:	48 8d 0c 28          	lea    (%rax,%rbp,1),%rcx
    48f1:	48 83 c1 07          	add    $0x7,%rcx
    48f5:	48 83 e1 fc          	and    $0xfffffffffffffffc,%rcx
    48f9:	4c 01 e9             	add    %r13,%rcx
    48fc:	48 c7 c0 ff ff ff ff 	mov    $0xffffffffffffffff,%rax
    4903:	48 0f 49 c1          	cmovns %rcx,%rax
    4907:	bd 09 00 00 00       	mov    $0x9,%ebp
    490c:	4c 01 e0             	add    %r12,%rax
    490f:	79 1a                	jns    492b <lzma_index_cat+0x11b>
    4911:	e9 e3 01 00 00       	jmp    4af9 <lzma_index_cat+0x2e9>
    4916:	48 c7 c0 ff ff ff ff 	mov    $0xffffffffffffffff,%rax
    491d:	bd 09 00 00 00       	mov    $0x9,%ebp
    4922:	4c 01 e0             	add    %r12,%rax
    4925:	0f 88 ce 01 00 00    	js     4af9 <lzma_index_cat+0x2e9>
    492b:	4c 89 64 24 28       	mov    %r12,0x28(%rsp)
    4930:	49 8b 57 20          	mov    0x20(%r15),%rdx
    4934:	4c 8b 24 24          	mov    (%rsp),%r12
    4938:	49 8b 4c 24 20       	mov    0x20(%r12),%rcx
    493d:	48 89 c8             	mov    %rcx,%rax
    4940:	48 01 d0             	add    %rdx,%rax
    4943:	0f 88 b0 01 00 00    	js     4af9 <lzma_index_cat+0x2e9>
    4949:	48 89 54 24 10       	mov    %rdx,0x10(%rsp)
    494e:	48 89 4c 24 18       	mov    %rcx,0x18(%rsp)
    4953:	4c 89 74 24 20       	mov    %r14,0x20(%rsp)
    4958:	49 8b 7f 30          	mov    0x30(%r15),%rdi
    495c:	4d 8b 77 38          	mov    0x38(%r15),%r14
    4960:	48 89 7c 24 08       	mov    %rdi,0x8(%rsp)
    4965:	e8 76 0b 00 00       	call   54e0 <lzma_vli_size>
    496a:	41 89 c5             	mov    %eax,%r13d
    496d:	41 ff c5             	inc    %r13d
    4970:	4d 01 f5             	add    %r14,%r13
    4973:	41 0f 10 44 24 30    	movups 0x30(%r12),%xmm0
    4979:	0f 29 44 24 30       	movaps %xmm0,0x30(%rsp)
    497e:	49 8b 7c 24 30       	mov    0x30(%r12),%rdi
    4983:	e8 58 0b 00 00       	call   54e0 <lzma_vli_size>
    4988:	ff c0                	inc    %eax
    498a:	66 0f 70 44 24 30 ee 	pshufd $0xee,0x30(%rsp),%xmm0
    4991:	66 48 0f 7e c1       	movq   %xmm0,%rcx
    4996:	4c 01 e9             	add    %r13,%rcx
    4999:	48 01 c8             	add    %rcx,%rax
    499c:	48 83 c0 0b          	add    $0xb,%rax
    49a0:	48 83 e0 fc          	and    $0xfffffffffffffffc,%rax
    49a4:	48 b9 00 00 00 00 04 	movabs $0x400000000,%rcx
    49ab:	00 00 00 
    49ae:	48 39 c8             	cmp    %rcx,%rax
    49b1:	0f 87 42 01 00 00    	ja     4af9 <lzma_index_cat+0x2e9>
    49b7:	4c 8b 6b 48          	mov    0x48(%rbx),%r13
    49bb:	4d 85 ed             	test   %r13,%r13
    49be:	4c 8b 74 24 20       	mov    0x20(%rsp),%r14
    49c3:	4c 8b 64 24 28       	mov    0x28(%rsp),%r12
    49c8:	0f 84 a8 00 00 00    	je     4a76 <lzma_index_cat+0x266>
    49ce:	49 8b 7d 38          	mov    0x38(%r13),%rdi
    49d2:	48 ff c7             	inc    %rdi
    49d5:	49 3b 7d 30          	cmp    0x30(%r13),%rdi
    49d9:	0f 83 97 00 00 00    	jae    4a76 <lzma_index_cat+0x266>
    49df:	48 c1 e7 04          	shl    $0x4,%rdi
    49e3:	48 83 c7 40          	add    $0x40,%rdi
    49e7:	4c 89 f6             	mov    %r14,%rsi
    49ea:	e8 d1 e4 ff ff       	call   2ec0 <lzma_alloc>
    49ef:	48 85 c0             	test   %rax,%rax
    49f2:	0f 84 12 01 00 00    	je     4b0a <lzma_index_cat+0x2fa>
    49f8:	48 89 c5             	mov    %rax,%rbp
    49fb:	49 8b 45 20          	mov    0x20(%r13),%rax
    49ff:	48 89 45 20          	mov    %rax,0x20(%rbp)
    4a03:	f3 41 0f 6f 45 00    	movdqu 0x0(%r13),%xmm0
    4a09:	41 0f 10 4d 10       	movups 0x10(%r13),%xmm1
    4a0e:	0f 11 4d 10          	movups %xmm1,0x10(%rbp)
    4a12:	f3 0f 7f 45 00       	movdqu %xmm0,0x0(%rbp)
    4a17:	49 8b 55 38          	mov    0x38(%r13),%rdx
    4a1b:	48 ff c2             	inc    %rdx
    4a1e:	48 89 55 30          	mov    %rdx,0x30(%rbp)
    4a22:	49 8b 45 38          	mov    0x38(%r13),%rax
    4a26:	48 89 45 38          	mov    %rax,0x38(%rbp)
    4a2a:	49 8b 45 28          	mov    0x28(%r13),%rax
    4a2e:	48 89 45 28          	mov    %rax,0x28(%rbp)
    4a32:	48 89 ef             	mov    %rbp,%rdi
    4a35:	48 83 c7 40          	add    $0x40,%rdi
    4a39:	49 8d 75 40          	lea    0x40(%r13),%rsi
    4a3d:	48 c1 e2 04          	shl    $0x4,%rdx
    4a41:	e8 0a d7 ff ff       	call   2150 <memcpy@plt>
    4a46:	49 8b 45 10          	mov    0x10(%r13),%rax
    4a4a:	48 85 c0             	test   %rax,%rax
    4a4d:	74 04                	je     4a53 <lzma_index_cat+0x243>
    4a4f:	48 89 68 20          	mov    %rbp,0x20(%rax)
    4a53:	4c 39 6b 40          	cmp    %r13,0x40(%rbx)
    4a57:	75 08                	jne    4a61 <lzma_index_cat+0x251>
    4a59:	48 89 6b 40          	mov    %rbp,0x40(%rbx)
    4a5d:	48 89 6b 38          	mov    %rbp,0x38(%rbx)
    4a61:	4c 39 6b 48          	cmp    %r13,0x48(%rbx)
    4a65:	75 04                	jne    4a6b <lzma_index_cat+0x25b>
    4a67:	48 89 6b 48          	mov    %rbp,0x48(%rbx)
    4a6b:	4c 89 ef             	mov    %r13,%rdi
    4a6e:	4c 89 f6             	mov    %r14,%rsi
    4a71:	e8 7a e4 ff ff       	call   2ef0 <lzma_free>
    4a76:	48 8b 44 24 10       	mov    0x10(%rsp),%rax
    4a7b:	48 89 44 24 40       	mov    %rax,0x40(%rsp)
    4a80:	4c 89 64 24 48       	mov    %r12,0x48(%rsp)
    4a85:	48 8b 44 24 08       	mov    0x8(%rsp),%rax
    4a8a:	48 89 44 24 50       	mov    %rax,0x50(%rsp)
    4a8f:	41 8b 47 18          	mov    0x18(%r15),%eax
    4a93:	89 44 24 58          	mov    %eax,0x58(%rsp)
    4a97:	4c 89 7c 24 60       	mov    %r15,0x60(%rsp)
    4a9c:	48 8b 1c 24          	mov    (%rsp),%rbx
    4aa0:	48 8b 33             	mov    (%rbx),%rsi
    4aa3:	48 8d 7c 24 40       	lea    0x40(%rsp),%rdi
    4aa8:	e8 73 00 00 00       	call   4b20 <index_cat_helper>
    4aad:	48 8b 44 24 18       	mov    0x18(%rsp),%rax
    4ab2:	49 01 47 20          	add    %rax,0x20(%r15)
    4ab6:	48 8b 43 28          	mov    0x28(%rbx),%rax
    4aba:	49 01 47 28          	add    %rax,0x28(%r15)
    4abe:	f3 41 0f 6f 47 30    	movdqu 0x30(%r15),%xmm0
    4ac4:	66 0f d4 44 24 30    	paddq  0x30(%rsp),%xmm0
    4aca:	f3 41 0f 7f 47 30    	movdqu %xmm0,0x30(%r15)
    4ad0:	41 8b 47 48          	mov    0x48(%r15),%eax
    4ad4:	49 8b 4f 10          	mov    0x10(%r15),%rcx
    4ad8:	83 79 68 ff          	cmpl   $0xffffffff,0x68(%rcx)
    4adc:	74 07                	je     4ae5 <lzma_index_cat+0x2d5>
    4ade:	0f b6 49 78          	movzbl 0x78(%rcx),%ecx
    4ae2:	0f ab c8             	bts    %ecx,%eax
    4ae5:	0b 43 48             	or     0x48(%rbx),%eax
    4ae8:	41 89 47 48          	mov    %eax,0x48(%r15)
    4aec:	48 89 df             	mov    %rbx,%rdi
    4aef:	4c 89 f6             	mov    %r14,%rsi
    4af2:	e8 f9 e3 ff ff       	call   2ef0 <lzma_free>
    4af7:	31 ed                	xor    %ebp,%ebp
    4af9:	89 e8                	mov    %ebp,%eax
    4afb:	48 83 c4 68          	add    $0x68,%rsp
    4aff:	5b                   	pop    %rbx
    4b00:	41 5c                	pop    %r12
    4b02:	41 5d                	pop    %r13
    4b04:	41 5e                	pop    %r14
    4b06:	41 5f                	pop    %r15
    4b08:	5d                   	pop    %rbp
    4b09:	c3                   	ret    
    4b0a:	bd 05 00 00 00       	mov    $0x5,%ebp
    4b0f:	eb e8                	jmp    4af9 <lzma_index_cat+0x2e9>
    4b11:	66 66 66 66 66 66 2e 	data16 data16 data16 data16 data16 cs nopw 0x0(%rax,%rax,1)
    4b18:	0f 1f 84 00 00 00 00 
    4b1f:	00 

0000000000004b20 <index_cat_helper>:
    4b20:	41 57                	push   %r15
    4b22:	41 56                	push   %r14
    4b24:	53                   	push   %rbx
    4b25:	49 89 f6             	mov    %rsi,%r14
    4b28:	48 89 fb             	mov    %rdi,%rbx
    4b2b:	eb 34                	jmp    4b61 <index_cat_helper+0x41>
    4b2d:	0f 1f 00             	nopl   (%rax)
    4b30:	48 8b 03             	mov    (%rbx),%rax
    4b33:	49 01 06             	add    %rax,(%r14)
    4b36:	48 8b 43 08          	mov    0x8(%rbx),%rax
    4b3a:	49 01 46 08          	add    %rax,0x8(%r14)
    4b3e:	8b 43 18             	mov    0x18(%rbx),%eax
    4b41:	41 01 46 28          	add    %eax,0x28(%r14)
    4b45:	48 8b 43 10          	mov    0x10(%rbx),%rax
    4b49:	49 01 46 30          	add    %rax,0x30(%r14)
    4b4d:	48 8b 7b 20          	mov    0x20(%rbx),%rdi
    4b51:	4c 89 f6             	mov    %r14,%rsi
    4b54:	e8 c7 f4 ff ff       	call   4020 <index_tree_append>
    4b59:	4d 89 fe             	mov    %r15,%r14
    4b5c:	4d 85 ff             	test   %r15,%r15
    4b5f:	74 17                	je     4b78 <index_cat_helper+0x58>
    4b61:	49 8b 76 18          	mov    0x18(%r14),%rsi
    4b65:	4d 8b 7e 20          	mov    0x20(%r14),%r15
    4b69:	48 85 f6             	test   %rsi,%rsi
    4b6c:	74 c2                	je     4b30 <index_cat_helper+0x10>
    4b6e:	48 89 df             	mov    %rbx,%rdi
    4b71:	e8 aa ff ff ff       	call   4b20 <index_cat_helper>
    4b76:	eb b8                	jmp    4b30 <index_cat_helper+0x10>
    4b78:	5b                   	pop    %rbx
    4b79:	41 5e                	pop    %r14
    4b7b:	41 5f                	pop    %r15
    4b7d:	c3                   	ret    
    4b7e:	66 90                	xchg   %ax,%ax

0000000000004b80 <lzma_index_dup>:
    4b80:	55                   	push   %rbp
    4b81:	41 57                	push   %r15
    4b83:	41 56                	push   %r14
    4b85:	41 55                	push   %r13
    4b87:	41 54                	push   %r12
    4b89:	53                   	push   %rbx
    4b8a:	48 83 ec 28          	sub    $0x28,%rsp
    4b8e:	48 89 f3             	mov    %rsi,%rbx
    4b91:	49 89 ff             	mov    %rdi,%r15
    4b94:	bf 50 00 00 00       	mov    $0x50,%edi
    4b99:	e8 22 e3 ff ff       	call   2ec0 <lzma_alloc>
    4b9e:	48 85 c0             	test   %rax,%rax
    4ba1:	0f 84 83 00 00 00    	je     4c2a <lzma_index_dup+0xaa>
    4ba7:	49 89 c5             	mov    %rax,%r13
    4baa:	48 89 1c 24          	mov    %rbx,(%rsp)
    4bae:	48 b9 fb ff ff ff ff 	movabs $0xffffffffffffffb,%rcx
    4bb5:	ff ff 0f 
    4bb8:	0f 57 c0             	xorps  %xmm0,%xmm0
    4bbb:	0f 11 40 0c          	movups %xmm0,0xc(%rax)
    4bbf:	0f 11 00             	movups %xmm0,(%rax)
    4bc2:	0f 11 40 20          	movups %xmm0,0x20(%rax)
    4bc6:	0f 11 40 30          	movups %xmm0,0x30(%rax)
    4bca:	48 c7 40 40 00 02 00 	movq   $0x200,0x40(%rax)
    4bd1:	00 
    4bd2:	c7 40 48 00 00 00 00 	movl   $0x0,0x48(%rax)
    4bd9:	49 8b 47 20          	mov    0x20(%r15),%rax
    4bdd:	49 89 45 20          	mov    %rax,0x20(%r13)
    4be1:	49 8b 47 28          	mov    0x28(%r15),%rax
    4be5:	49 89 45 28          	mov    %rax,0x28(%r13)
    4be9:	49 8b 47 30          	mov    0x30(%r15),%rax
    4bed:	49 89 45 30          	mov    %rax,0x30(%r13)
    4bf1:	49 8b 47 38          	mov    0x38(%r15),%rax
    4bf5:	49 89 45 38          	mov    %rax,0x38(%r13)
    4bf9:	49 8b 6f 08          	mov    0x8(%r15),%rbp
    4bfd:	48 39 4d 58          	cmp    %rcx,0x58(%rbp)
    4c01:	76 3c                	jbe    4c3f <lzma_index_dup+0xbf>
    4c03:	49 8b 7d 00          	mov    0x0(%r13),%rdi
    4c07:	48 85 ff             	test   %rdi,%rdi
    4c0a:	48 8b 1c 24          	mov    (%rsp),%rbx
    4c0e:	74 0f                	je     4c1f <lzma_index_dup+0x9f>
    4c10:	48 8d 15 f9 f5 ff ff 	lea    -0xa07(%rip),%rdx        # 4210 <index_stream_end>
    4c17:	48 89 de             	mov    %rbx,%rsi
    4c1a:	e8 e1 07 00 00       	call   5400 <index_tree_node_end>
    4c1f:	4c 89 ef             	mov    %r13,%rdi
    4c22:	48 89 de             	mov    %rbx,%rsi
    4c25:	e8 c6 e2 ff ff       	call   2ef0 <lzma_free>
    4c2a:	45 31 ed             	xor    %r13d,%r13d
    4c2d:	4c 89 e8             	mov    %r13,%rax
    4c30:	48 83 c4 28          	add    $0x28,%rsp
    4c34:	5b                   	pop    %rbx
    4c35:	41 5c                	pop    %r12
    4c37:	41 5d                	pop    %r13
    4c39:	41 5e                	pop    %r14
    4c3b:	41 5f                	pop    %r15
    4c3d:	5d                   	pop    %rbp
    4c3e:	c3                   	ret    
    4c3f:	4c 8d 75 58          	lea    0x58(%rbp),%r14
    4c43:	4c 89 6c 24 08       	mov    %r13,0x8(%rsp)
    4c48:	0f 10 45 00          	movups 0x0(%rbp),%xmm0
    4c4c:	0f 29 44 24 10       	movaps %xmm0,0x10(%rsp)
    4c51:	8b 5d 28             	mov    0x28(%rbp),%ebx
    4c54:	4c 8b 65 30          	mov    0x30(%rbp),%r12
    4c58:	bf a8 00 00 00       	mov    $0xa8,%edi
    4c5d:	48 8b 34 24          	mov    (%rsp),%rsi
    4c61:	e8 5a e2 ff ff       	call   2ec0 <lzma_alloc>
    4c66:	48 85 c0             	test   %rax,%rax
    4c69:	74 98                	je     4c03 <lzma_index_dup+0x83>
    4c6b:	49 89 c7             	mov    %rax,%r15
    4c6e:	0f 28 44 24 10       	movaps 0x10(%rsp),%xmm0
    4c73:	0f 11 00             	movups %xmm0,(%rax)
    4c76:	0f 57 c0             	xorps  %xmm0,%xmm0
    4c79:	0f 11 40 10          	movups %xmm0,0x10(%rax)
    4c7d:	48 c7 40 20 00 00 00 	movq   $0x0,0x20(%rax)
    4c84:	00 
    4c85:	89 58 28             	mov    %ebx,0x28(%rax)
    4c88:	4c 89 60 30          	mov    %r12,0x30(%rax)
    4c8c:	0f 11 40 38          	movups %xmm0,0x38(%rax)
    4c90:	0f 11 40 44          	movups %xmm0,0x44(%rax)
    4c94:	0f 11 40 58          	movups %xmm0,0x58(%rax)
    4c98:	c7 40 68 ff ff ff ff 	movl   $0xffffffff,0x68(%rax)
    4c9f:	48 c7 80 a0 00 00 00 	movq   $0x0,0xa0(%rax)
    4ca6:	00 00 00 00 
    4caa:	48 83 7d 40 00       	cmpq   $0x0,0x40(%rbp)
    4caf:	0f 84 2d 01 00 00    	je     4de2 <lzma_index_dup+0x262>
    4cb5:	49 8d 5f 38          	lea    0x38(%r15),%rbx
    4cb9:	4c 89 f8             	mov    %r15,%rax
    4cbc:	48 83 c0 68          	add    $0x68,%rax
    4cc0:	49 8b 0e             	mov    (%r14),%rcx
    4cc3:	49 89 4f 58          	mov    %rcx,0x58(%r15)
    4cc7:	48 8b 4d 60          	mov    0x60(%rbp),%rcx
    4ccb:	49 89 4f 60          	mov    %rcx,0x60(%r15)
    4ccf:	48 8b 8d 98 00 00 00 	mov    0x98(%rbp),%rcx
    4cd6:	48 89 48 30          	mov    %rcx,0x30(%rax)
    4cda:	0f 10 45 68          	movups 0x68(%rbp),%xmm0
    4cde:	0f 10 4d 78          	movups 0x78(%rbp),%xmm1
    4ce2:	0f 10 95 88 00 00 00 	movups 0x88(%rbp),%xmm2
    4ce9:	0f 11 50 20          	movups %xmm2,0x20(%rax)
    4ced:	0f 11 48 10          	movups %xmm1,0x10(%rax)
    4cf1:	0f 11 00             	movups %xmm0,(%rax)
    4cf4:	48 8b 85 a0 00 00 00 	mov    0xa0(%rbp),%rax
    4cfb:	49 89 87 a0 00 00 00 	mov    %rax,0xa0(%r15)
    4d02:	49 8b 3e             	mov    (%r14),%rdi
    4d05:	48 c1 e7 04          	shl    $0x4,%rdi
    4d09:	48 83 c7 40          	add    $0x40,%rdi
    4d0d:	48 8b 34 24          	mov    (%rsp),%rsi
    4d11:	e8 aa e1 ff ff       	call   2ec0 <lzma_alloc>
    4d16:	48 85 c0             	test   %rax,%rax
    4d19:	0f 84 27 01 00 00    	je     4e46 <lzma_index_dup+0x2c6>
    4d1f:	49 89 c5             	mov    %rax,%r13
    4d22:	48 89 5c 24 10       	mov    %rbx,0x10(%rsp)
    4d27:	0f 57 c0             	xorps  %xmm0,%xmm0
    4d2a:	0f 11 00             	movups %xmm0,(%rax)
    4d2d:	48 c7 40 28 01 00 00 	movq   $0x1,0x28(%rax)
    4d34:	00 
    4d35:	49 8b 06             	mov    (%r14),%rax
    4d38:	49 89 45 30          	mov    %rax,0x30(%r13)
    4d3c:	48 ff c8             	dec    %rax
    4d3f:	49 89 45 38          	mov    %rax,0x38(%r13)
    4d43:	48 8b 5d 40          	mov    0x40(%rbp),%rbx
    4d47:	4d 89 ee             	mov    %r13,%r14
    4d4a:	49 83 c6 40          	add    $0x40,%r14
    4d4e:	45 31 e4             	xor    %r12d,%r12d
    4d51:	66 66 66 66 66 66 2e 	data16 data16 data16 data16 data16 cs nopw 0x0(%rax,%rax,1)
    4d58:	0f 1f 84 00 00 00 00 
    4d5f:	00 
    4d60:	4c 89 e7             	mov    %r12,%rdi
    4d63:	48 c1 e7 04          	shl    $0x4,%rdi
    4d67:	4c 01 f7             	add    %r14,%rdi
    4d6a:	48 8d 73 40          	lea    0x40(%rbx),%rsi
    4d6e:	48 8b 53 38          	mov    0x38(%rbx),%rdx
    4d72:	48 c1 e2 04          	shl    $0x4,%rdx
    4d76:	48 83 c2 10          	add    $0x10,%rdx
    4d7a:	e8 d1 d3 ff ff       	call   2150 <memcpy@plt>
    4d7f:	48 8b 43 20          	mov    0x20(%rbx),%rax
    4d83:	48 8b 4b 38          	mov    0x38(%rbx),%rcx
    4d87:	49 01 cc             	add    %rcx,%r12
    4d8a:	49 ff c4             	inc    %r12
    4d8d:	48 89 d9             	mov    %rbx,%rcx
    4d90:	48 85 c0             	test   %rax,%rax
    4d93:	74 1b                	je     4db0 <lzma_index_dup+0x230>
    4d95:	66 66 2e 0f 1f 84 00 	data16 cs nopw 0x0(%rax,%rax,1)
    4d9c:	00 00 00 00 
    4da0:	48 89 c3             	mov    %rax,%rbx
    4da3:	48 8b 40 18          	mov    0x18(%rax),%rax
    4da7:	48 85 c0             	test   %rax,%rax
    4daa:	75 f4                	jne    4da0 <lzma_index_dup+0x220>
    4dac:	eb b2                	jmp    4d60 <lzma_index_dup+0x1e0>
    4dae:	66 90                	xchg   %ax,%ax
    4db0:	48 8b 59 10          	mov    0x10(%rcx),%rbx
    4db4:	48 85 db             	test   %rbx,%rbx
    4db7:	74 17                	je     4dd0 <lzma_index_dup+0x250>
    4db9:	48 39 4b 20          	cmp    %rcx,0x20(%rbx)
    4dbd:	48 89 d9             	mov    %rbx,%rcx
    4dc0:	74 ee                	je     4db0 <lzma_index_dup+0x230>
    4dc2:	eb 9c                	jmp    4d60 <lzma_index_dup+0x1e0>
    4dc4:	66 66 66 2e 0f 1f 84 	data16 data16 cs nopw 0x0(%rax,%rax,1)
    4dcb:	00 00 00 00 00 
    4dd0:	48 8b 7c 24 10       	mov    0x10(%rsp),%rdi
    4dd5:	4c 89 ee             	mov    %r13,%rsi
    4dd8:	e8 43 f2 ff ff       	call   4020 <index_tree_append>
    4ddd:	4c 8b 6c 24 08       	mov    0x8(%rsp),%r13
    4de2:	4c 89 ef             	mov    %r13,%rdi
    4de5:	4c 89 fe             	mov    %r15,%rsi
    4de8:	e8 33 f2 ff ff       	call   4020 <index_tree_append>
    4ded:	48 8b 4d 20          	mov    0x20(%rbp),%rcx
    4df1:	48 85 c9             	test   %rcx,%rcx
    4df4:	74 1a                	je     4e10 <lzma_index_dup+0x290>
    4df6:	66 2e 0f 1f 84 00 00 	cs nopw 0x0(%rax,%rax,1)
    4dfd:	00 00 00 
    4e00:	48 89 c8             	mov    %rcx,%rax
    4e03:	48 8b 49 18          	mov    0x18(%rcx),%rcx
    4e07:	48 85 c9             	test   %rcx,%rcx
    4e0a:	75 f4                	jne    4e00 <lzma_index_dup+0x280>
    4e0c:	eb 18                	jmp    4e26 <lzma_index_dup+0x2a6>
    4e0e:	66 90                	xchg   %ax,%ax
    4e10:	48 8b 45 10          	mov    0x10(%rbp),%rax
    4e14:	48 85 c0             	test   %rax,%rax
    4e17:	0f 84 10 fe ff ff    	je     4c2d <lzma_index_dup+0xad>
    4e1d:	48 39 68 20          	cmp    %rbp,0x20(%rax)
    4e21:	48 89 c5             	mov    %rax,%rbp
    4e24:	74 ea                	je     4e10 <lzma_index_dup+0x290>
    4e26:	4c 8d 70 58          	lea    0x58(%rax),%r14
    4e2a:	48 89 c5             	mov    %rax,%rbp
    4e2d:	48 b9 fb ff ff ff ff 	movabs $0xffffffffffffffb,%rcx
    4e34:	ff ff 0f 
    4e37:	48 39 48 58          	cmp    %rcx,0x58(%rax)
    4e3b:	0f 86 07 fe ff ff    	jbe    4c48 <lzma_index_dup+0xc8>
    4e41:	e9 bd fd ff ff       	jmp    4c03 <lzma_index_dup+0x83>
    4e46:	48 8b 3b             	mov    (%rbx),%rdi
    4e49:	48 85 ff             	test   %rdi,%rdi
    4e4c:	4c 8b 6c 24 08       	mov    0x8(%rsp),%r13
    4e51:	0f 84 ac fd ff ff    	je     4c03 <lzma_index_dup+0x83>
    4e57:	48 8b 34 24          	mov    (%rsp),%rsi
    4e5b:	31 d2                	xor    %edx,%edx
    4e5d:	e8 9e 05 00 00       	call   5400 <index_tree_node_end>
    4e62:	e9 9c fd ff ff       	jmp    4c03 <lzma_index_dup+0x83>
    4e67:	66 0f 1f 84 00 00 00 	nopw   0x0(%rax,%rax,1)
    4e6e:	00 00 

0000000000004e70 <lzma_index_iter_init>:
    4e70:	48 89 b7 00 01 00 00 	mov    %rsi,0x100(%rdi)
    4e77:	0f 57 c0             	xorps  %xmm0,%xmm0
    4e7a:	0f 11 87 08 01 00 00 	movups %xmm0,0x108(%rdi)
    4e81:	0f 11 87 18 01 00 00 	movups %xmm0,0x118(%rdi)
    4e88:	c3                   	ret    
    4e89:	0f 1f 80 00 00 00 00 	nopl   0x0(%rax)

0000000000004e90 <lzma_index_iter_rewind>:
    4e90:	0f 57 c0             	xorps  %xmm0,%xmm0
    4e93:	0f 11 87 18 01 00 00 	movups %xmm0,0x118(%rdi)
    4e9a:	0f 11 87 08 01 00 00 	movups %xmm0,0x108(%rdi)
    4ea1:	c3                   	ret    
    4ea2:	66 66 66 66 66 2e 0f 	data16 data16 data16 data16 cs nopw 0x0(%rax,%rax,1)
    4ea9:	1f 84 00 00 00 00 00 

0000000000004eb0 <lzma_index_iter_next>:
    4eb0:	b0 01                	mov    $0x1,%al
    4eb2:	83 fe 03             	cmp    $0x3,%esi
    4eb5:	0f 87 35 02 00 00    	ja     50f0 <lzma_index_iter_next+0x240>
    4ebb:	50                   	push   %rax
    4ebc:	48 8b 8f 08 01 00 00 	mov    0x108(%rdi),%rcx
    4ec3:	83 fe 01             	cmp    $0x1,%esi
    4ec6:	75 05                	jne    4ecd <lzma_index_iter_next+0x1d>
    4ec8:	45 31 c0             	xor    %r8d,%r8d
    4ecb:	eb 5e                	jmp    4f2b <lzma_index_iter_next+0x7b>
    4ecd:	48 8b 97 20 01 00 00 	mov    0x120(%rdi),%rdx
    4ed4:	48 83 fa 02          	cmp    $0x2,%rdx
    4ed8:	74 4a                	je     4f24 <lzma_index_iter_next+0x74>
    4eda:	48 83 fa 01          	cmp    $0x1,%rdx
    4ede:	74 0e                	je     4eee <lzma_index_iter_next+0x3e>
    4ee0:	48 85 d2             	test   %rdx,%rdx
    4ee3:	75 e3                	jne    4ec8 <lzma_index_iter_next+0x18>
    4ee5:	48 8d 97 10 01 00 00 	lea    0x110(%rdi),%rdx
    4eec:	eb 3a                	jmp    4f28 <lzma_index_iter_next+0x78>
    4eee:	48 8b 97 10 01 00 00 	mov    0x110(%rdi),%rdx
    4ef5:	4c 8b 4a 20          	mov    0x20(%rdx),%r9
    4ef9:	4d 85 c9             	test   %r9,%r9
    4efc:	74 1b                	je     4f19 <lzma_index_iter_next+0x69>
    4efe:	66 90                	xchg   %ax,%ax
    4f00:	4d 89 c8             	mov    %r9,%r8
    4f03:	4d 8b 49 18          	mov    0x18(%r9),%r9
    4f07:	4d 85 c9             	test   %r9,%r9
    4f0a:	75 f4                	jne    4f00 <lzma_index_iter_next+0x50>
    4f0c:	eb 1d                	jmp    4f2b <lzma_index_iter_next+0x7b>
    4f0e:	66 90                	xchg   %ax,%ax
    4f10:	49 39 50 20          	cmp    %rdx,0x20(%r8)
    4f14:	4c 89 c2             	mov    %r8,%rdx
    4f17:	75 12                	jne    4f2b <lzma_index_iter_next+0x7b>
    4f19:	4c 8b 42 10          	mov    0x10(%rdx),%r8
    4f1d:	4d 85 c0             	test   %r8,%r8
    4f20:	75 ee                	jne    4f10 <lzma_index_iter_next+0x60>
    4f22:	eb a4                	jmp    4ec8 <lzma_index_iter_next+0x18>
    4f24:	48 8d 51 40          	lea    0x40(%rcx),%rdx
    4f28:	4c 8b 02             	mov    (%rdx),%r8
    4f2b:	48 8b 97 00 01 00 00 	mov    0x100(%rdi),%rdx
    4f32:	4c 8b 8f 18 01 00 00 	mov    0x118(%rdi),%r9
    4f39:	48 85 c9             	test   %rcx,%rcx
    4f3c:	74 22                	je     4f60 <lzma_index_iter_next+0xb0>
    4f3e:	4d 85 c0             	test   %r8,%r8
    4f41:	0f 84 d9 00 00 00    	je     5020 <lzma_index_iter_next+0x170>
    4f47:	4d 3b 48 38          	cmp    0x38(%r8),%r9
    4f4b:	0f 83 7c 00 00 00    	jae    4fcd <lzma_index_iter_next+0x11d>
    4f51:	49 ff c1             	inc    %r9
    4f54:	e9 43 01 00 00       	jmp    509c <lzma_index_iter_next+0x1ec>
    4f59:	0f 1f 80 00 00 00 00 	nopl   0x0(%rax)
    4f60:	48 8b 4a 08          	mov    0x8(%rdx),%rcx
    4f64:	4c 8b 41 40          	mov    0x40(%rcx),%r8
    4f68:	83 fe 02             	cmp    $0x2,%esi
    4f6b:	0f 82 5c 01 00 00    	jb     50cd <lzma_index_iter_next+0x21d>
    4f71:	4d 85 c0             	test   %r8,%r8
    4f74:	0f 85 1f 01 00 00    	jne    5099 <lzma_index_iter_next+0x1e9>
    4f7a:	49 89 ca             	mov    %rcx,%r10
    4f7d:	4d 8b 42 20          	mov    0x20(%r10),%r8
    4f81:	4d 85 c0             	test   %r8,%r8
    4f84:	74 1a                	je     4fa0 <lzma_index_iter_next+0xf0>
    4f86:	66 2e 0f 1f 84 00 00 	cs nopw 0x0(%rax,%rax,1)
    4f8d:	00 00 00 
    4f90:	4c 89 c1             	mov    %r8,%rcx
    4f93:	4d 8b 40 18          	mov    0x18(%r8),%r8
    4f97:	4d 85 c0             	test   %r8,%r8
    4f9a:	75 f4                	jne    4f90 <lzma_index_iter_next+0xe0>
    4f9c:	eb 18                	jmp    4fb6 <lzma_index_iter_next+0x106>
    4f9e:	66 90                	xchg   %ax,%ax
    4fa0:	49 8b 4a 10          	mov    0x10(%r10),%rcx
    4fa4:	48 85 c9             	test   %rcx,%rcx
    4fa7:	0f 84 3f 01 00 00    	je     50ec <lzma_index_iter_next+0x23c>
    4fad:	4c 39 51 20          	cmp    %r10,0x20(%rcx)
    4fb1:	49 89 ca             	mov    %rcx,%r10
    4fb4:	74 ea                	je     4fa0 <lzma_index_iter_next+0xf0>
    4fb6:	4c 8b 41 40          	mov    0x40(%rcx),%r8
    4fba:	49 89 ca             	mov    %rcx,%r10
    4fbd:	41 b9 00 00 00 00    	mov    $0x0,%r9d
    4fc3:	4d 85 c0             	test   %r8,%r8
    4fc6:	74 b5                	je     4f7d <lzma_index_iter_next+0xcd>
    4fc8:	e9 cf 00 00 00       	jmp    509c <lzma_index_iter_next+0x1ec>
    4fcd:	4d 8b 48 20          	mov    0x20(%r8),%r9
    4fd1:	4d 85 c9             	test   %r9,%r9
    4fd4:	74 2a                	je     5000 <lzma_index_iter_next+0x150>
    4fd6:	66 2e 0f 1f 84 00 00 	cs nopw 0x0(%rax,%rax,1)
    4fdd:	00 00 00 
    4fe0:	4d 89 c8             	mov    %r9,%r8
    4fe3:	4d 8b 49 18          	mov    0x18(%r9),%r9
    4fe7:	4d 85 c9             	test   %r9,%r9
    4fea:	75 f4                	jne    4fe0 <lzma_index_iter_next+0x130>
    4fec:	e9 a8 00 00 00       	jmp    5099 <lzma_index_iter_next+0x1e9>
    4ff1:	66 66 66 66 66 66 2e 	data16 data16 data16 data16 data16 cs nopw 0x0(%rax,%rax,1)
    4ff8:	0f 1f 84 00 00 00 00 
    4fff:	00 
    5000:	4d 8b 48 10          	mov    0x10(%r8),%r9
    5004:	4d 85 c9             	test   %r9,%r9
    5007:	74 17                	je     5020 <lzma_index_iter_next+0x170>
    5009:	4d 39 41 20          	cmp    %r8,0x20(%r9)
    500d:	4d 89 c8             	mov    %r9,%r8
    5010:	74 ee                	je     5000 <lzma_index_iter_next+0x150>
    5012:	4d 89 c8             	mov    %r9,%r8
    5015:	e9 7f 00 00 00       	jmp    5099 <lzma_index_iter_next+0x1e9>
    501a:	66 0f 1f 44 00 00    	nopw   0x0(%rax,%rax,1)
    5020:	83 fe 02             	cmp    $0x2,%esi
    5023:	72 3d                	jb     5062 <lzma_index_iter_next+0x1b2>
    5025:	4c 8b 41 20          	mov    0x20(%rcx),%r8
    5029:	4d 85 c0             	test   %r8,%r8
    502c:	74 12                	je     5040 <lzma_index_iter_next+0x190>
    502e:	66 90                	xchg   %ax,%ax
    5030:	4d 89 c1             	mov    %r8,%r9
    5033:	4d 8b 40 18          	mov    0x18(%r8),%r8
    5037:	4d 85 c0             	test   %r8,%r8
    503a:	75 f4                	jne    5030 <lzma_index_iter_next+0x180>
    503c:	eb 18                	jmp    5056 <lzma_index_iter_next+0x1a6>
    503e:	66 90                	xchg   %ax,%ax
    5040:	4c 8b 49 10          	mov    0x10(%rcx),%r9
    5044:	4d 85 c9             	test   %r9,%r9
    5047:	0f 84 9f 00 00 00    	je     50ec <lzma_index_iter_next+0x23c>
    504d:	49 39 49 20          	cmp    %rcx,0x20(%r9)
    5051:	4c 89 c9             	mov    %r9,%rcx
    5054:	74 ea                	je     5040 <lzma_index_iter_next+0x190>
    5056:	49 83 79 40 00       	cmpq   $0x0,0x40(%r9)
    505b:	4c 89 c9             	mov    %r9,%rcx
    505e:	74 c5                	je     5025 <lzma_index_iter_next+0x175>
    5060:	eb 30                	jmp    5092 <lzma_index_iter_next+0x1e2>
    5062:	4c 8b 41 20          	mov    0x20(%rcx),%r8
    5066:	4d 85 c0             	test   %r8,%r8
    5069:	74 15                	je     5080 <lzma_index_iter_next+0x1d0>
    506b:	0f 1f 44 00 00       	nopl   0x0(%rax,%rax,1)
    5070:	4d 89 c1             	mov    %r8,%r9
    5073:	4d 8b 40 18          	mov    0x18(%r8),%r8
    5077:	4d 85 c0             	test   %r8,%r8
    507a:	75 f4                	jne    5070 <lzma_index_iter_next+0x1c0>
    507c:	eb 14                	jmp    5092 <lzma_index_iter_next+0x1e2>
    507e:	66 90                	xchg   %ax,%ax
    5080:	4c 8b 49 10          	mov    0x10(%rcx),%r9
    5084:	4d 85 c9             	test   %r9,%r9
    5087:	74 63                	je     50ec <lzma_index_iter_next+0x23c>
    5089:	49 39 49 20          	cmp    %rcx,0x20(%r9)
    508d:	4c 89 c9             	mov    %r9,%rcx
    5090:	74 ee                	je     5080 <lzma_index_iter_next+0x1d0>
    5092:	4d 8b 41 40          	mov    0x40(%r9),%r8
    5096:	4c 89 c9             	mov    %r9,%rcx
    5099:	45 31 c9             	xor    %r9d,%r9d
    509c:	83 fe 03             	cmp    $0x3,%esi
    509f:	75 2f                	jne    50d0 <lzma_index_iter_next+0x220>
    50a1:	4d 85 c9             	test   %r9,%r9
    50a4:	74 1a                	je     50c0 <lzma_index_iter_next+0x210>
    50a6:	4d 89 ca             	mov    %r9,%r10
    50a9:	49 c1 e2 04          	shl    $0x4,%r10
    50ad:	4f 8b 5c 10 30       	mov    0x30(%r8,%r10,1),%r11
    50b2:	4f 3b 5c 10 40       	cmp    0x40(%r8,%r10,1),%r11
    50b7:	0f 84 7c fe ff ff    	je     4f39 <lzma_index_iter_next+0x89>
    50bd:	eb 11                	jmp    50d0 <lzma_index_iter_next+0x220>
    50bf:	90                   	nop
    50c0:	4d 8b 10             	mov    (%r8),%r10
    50c3:	4d 3b 50 40          	cmp    0x40(%r8),%r10
    50c7:	0f 84 6c fe ff ff    	je     4f39 <lzma_index_iter_next+0x89>
    50cd:	45 31 c9             	xor    %r9d,%r9d
    50d0:	48 89 8f 08 01 00 00 	mov    %rcx,0x108(%rdi)
    50d7:	4c 89 87 10 01 00 00 	mov    %r8,0x110(%rdi)
    50de:	4c 89 8f 18 01 00 00 	mov    %r9,0x118(%rdi)
    50e5:	e8 16 00 00 00       	call   5100 <iter_set_info>
    50ea:	31 c0                	xor    %eax,%eax
    50ec:	48 83 c4 08          	add    $0x8,%rsp
    50f0:	c3                   	ret    
    50f1:	66 66 66 66 66 66 2e 	data16 data16 data16 data16 data16 cs nopw 0x0(%rax,%rax,1)
    50f8:	0f 1f 84 00 00 00 00 
    50ff:	00 

0000000000005100 <iter_set_info>:
    5100:	55                   	push   %rbp
    5101:	41 57                	push   %r15
    5103:	41 56                	push   %r14
    5105:	41 55                	push   %r13
    5107:	41 54                	push   %r12
    5109:	53                   	push   %rbx
    510a:	50                   	push   %rax
    510b:	48 89 fb             	mov    %rdi,%rbx
    510e:	4c 8b a7 08 01 00 00 	mov    0x108(%rdi),%r12
    5115:	4c 8b b7 10 01 00 00 	mov    0x110(%rdi),%r14
    511c:	4d 85 f6             	test   %r14,%r14
    511f:	74 25                	je     5146 <iter_set_info+0x46>
    5121:	48 8b 83 00 01 00 00 	mov    0x100(%rbx),%rax
    5128:	4c 39 60 10          	cmp    %r12,0x10(%rax)
    512c:	75 0b                	jne    5139 <iter_set_info+0x39>
    512e:	4d 39 74 24 48       	cmp    %r14,0x48(%r12)
    5133:	0f 84 af 01 00 00    	je     52e8 <iter_set_info+0x1e8>
    5139:	48 c7 83 20 01 00 00 	movq   $0x0,0x120(%rbx)
    5140:	00 00 00 00 
    5144:	eb 0b                	jmp    5151 <iter_set_info+0x51>
    5146:	48 c7 83 20 01 00 00 	movq   $0x2,0x120(%rbx)
    514d:	02 00 00 00 
    5151:	4c 8b bb 18 01 00 00 	mov    0x118(%rbx),%r15
    5158:	41 8b 44 24 28       	mov    0x28(%r12),%eax
    515d:	48 89 43 20          	mov    %rax,0x20(%rbx)
    5161:	49 8b 44 24 58       	mov    0x58(%r12),%rax
    5166:	48 89 43 28          	mov    %rax,0x28(%rbx)
    516a:	49 8b 44 24 08       	mov    0x8(%r12),%rax
    516f:	48 89 43 30          	mov    %rax,0x30(%rbx)
    5173:	49 8b 04 24          	mov    (%r12),%rax
    5177:	48 89 43 38          	mov    %rax,0x38(%rbx)
    517b:	31 c0                	xor    %eax,%eax
    517d:	41 83 7c 24 68 ff    	cmpl   $0xffffffff,0x68(%r12)
    5183:	49 8d 4c 24 68       	lea    0x68(%r12),%rcx
    5188:	48 0f 45 c1          	cmovne %rcx,%rax
    518c:	48 89 03             	mov    %rax,(%rbx)
    518f:	49 8b 84 24 a0 00 00 	mov    0xa0(%r12),%rax
    5196:	00 
    5197:	48 89 43 50          	mov    %rax,0x50(%rbx)
    519b:	4d 8b 6c 24 48       	mov    0x48(%r12),%r13
    51a0:	4d 85 ed             	test   %r13,%r13
    51a3:	74 57                	je     51fc <iter_set_info+0xfc>
    51a5:	49 8b 7c 24 58       	mov    0x58(%r12),%rdi
    51aa:	49 8b 6c 24 60       	mov    0x60(%r12),%rbp
    51af:	e8 2c 03 00 00       	call   54e0 <lzma_vli_size>
    51b4:	ff c0                	inc    %eax
    51b6:	48 01 e8             	add    %rbp,%rax
    51b9:	48 83 c0 07          	add    $0x7,%rax
    51bd:	48 83 e0 fc          	and    $0xfffffffffffffffc,%rax
    51c1:	49 8b 4d 38          	mov    0x38(%r13),%rcx
    51c5:	48 c1 e1 04          	shl    $0x4,%rcx
    51c9:	49 8b 4c 0d 48       	mov    0x48(%r13,%rcx,1),%rcx
    51ce:	48 83 c1 03          	add    $0x3,%rcx
    51d2:	48 83 e1 fc          	and    $0xfffffffffffffffc,%rcx
    51d6:	48 01 c8             	add    %rcx,%rax
    51d9:	48 83 c0 18          	add    $0x18,%rax
    51dd:	48 89 43 40          	mov    %rax,0x40(%rbx)
    51e1:	49 8b 45 38          	mov    0x38(%r13),%rax
    51e5:	48 c1 e0 04          	shl    $0x4,%rax
    51e9:	4d 8b 6c 05 40       	mov    0x40(%r13,%rax,1),%r13
    51ee:	4c 89 6b 48          	mov    %r13,0x48(%rbx)
    51f2:	4d 85 f6             	test   %r14,%r14
    51f5:	75 2e                	jne    5225 <iter_set_info+0x125>
    51f7:	e9 dd 00 00 00       	jmp    52d9 <iter_set_info+0x1d9>
    51fc:	45 31 ed             	xor    %r13d,%r13d
    51ff:	31 ff                	xor    %edi,%edi
    5201:	e8 da 02 00 00       	call   54e0 <lzma_vli_size>
    5206:	ff c0                	inc    %eax
    5208:	48 83 c0 07          	add    $0x7,%rax
    520c:	48 83 e0 fc          	and    $0xfffffffffffffffc,%rax
    5210:	48 83 c0 18          	add    $0x18,%rax
    5214:	48 89 43 40          	mov    %rax,0x40(%rbx)
    5218:	4c 89 6b 48          	mov    %r13,0x48(%rbx)
    521c:	4d 85 f6             	test   %r14,%r14
    521f:	0f 84 b4 00 00 00    	je     52d9 <iter_set_info+0x1d9>
    5225:	49 8b 46 28          	mov    0x28(%r14),%rax
    5229:	4c 01 f8             	add    %r15,%rax
    522c:	48 89 83 90 00 00 00 	mov    %rax,0x90(%rbx)
    5233:	49 03 44 24 30       	add    0x30(%r12),%rax
    5238:	48 89 43 78          	mov    %rax,0x78(%rbx)
    523c:	4d 85 ff             	test   %r15,%r15
    523f:	74 1a                	je     525b <iter_set_info+0x15b>
    5241:	49 8d 4f ff          	lea    -0x1(%r15),%rcx
    5245:	48 89 c8             	mov    %rcx,%rax
    5248:	48 c1 e0 04          	shl    $0x4,%rax
    524c:	49 8b 44 06 48       	mov    0x48(%r14,%rax,1),%rax
    5251:	48 83 c0 03          	add    $0x3,%rax
    5255:	48 83 e0 fc          	and    $0xfffffffffffffffc,%rax
    5259:	eb 0b                	jmp    5266 <iter_set_info+0x166>
    525b:	49 8b 46 08          	mov    0x8(%r14),%rax
    525f:	48 c7 c1 ff ff ff ff 	mov    $0xffffffffffffffff,%rcx
    5266:	48 c1 e1 04          	shl    $0x4,%rcx
    526a:	4d 85 ff             	test   %r15,%r15
    526d:	48 89 83 98 00 00 00 	mov    %rax,0x98(%rbx)
    5274:	49 8d 4c 0e 40       	lea    0x40(%r14,%rcx,1),%rcx
    5279:	49 0f 44 ce          	cmove  %r14,%rcx
    527d:	48 8b 09             	mov    (%rcx),%rcx
    5280:	48 89 8b a0 00 00 00 	mov    %rcx,0xa0(%rbx)
    5287:	49 c1 e7 04          	shl    $0x4,%r15
    528b:	4b 8b 54 3e 40       	mov    0x40(%r14,%r15,1),%rdx
    5290:	48 29 ca             	sub    %rcx,%rdx
    5293:	48 89 93 a8 00 00 00 	mov    %rdx,0xa8(%rbx)
    529a:	4b 8b 54 3e 48       	mov    0x48(%r14,%r15,1),%rdx
    529f:	48 29 c2             	sub    %rax,%rdx
    52a2:	48 89 93 b0 00 00 00 	mov    %rdx,0xb0(%rbx)
    52a9:	48 83 c2 03          	add    $0x3,%rdx
    52ad:	48 83 e2 fc          	and    $0xfffffffffffffffc,%rdx
    52b1:	48 89 93 b8 00 00 00 	mov    %rdx,0xb8(%rbx)
    52b8:	48 83 c0 0c          	add    $0xc,%rax
    52bc:	48 89 83 98 00 00 00 	mov    %rax,0x98(%rbx)
    52c3:	48 03 43 30          	add    0x30(%rbx),%rax
    52c7:	48 89 83 80 00 00 00 	mov    %rax,0x80(%rbx)
    52ce:	48 03 4b 38          	add    0x38(%rbx),%rcx
    52d2:	48 89 8b 88 00 00 00 	mov    %rcx,0x88(%rbx)
    52d9:	48 83 c4 08          	add    $0x8,%rsp
    52dd:	5b                   	pop    %rbx
    52de:	41 5c                	pop    %r12
    52e0:	41 5d                	pop    %r13
    52e2:	41 5e                	pop    %r14
    52e4:	41 5f                	pop    %r15
    52e6:	5d                   	pop    %rbp
    52e7:	c3                   	ret    
    52e8:	4d 39 74 24 40       	cmp    %r14,0x40(%r12)
    52ed:	74 1b                	je     530a <iter_set_info+0x20a>
    52ef:	48 c7 83 20 01 00 00 	movq   $0x1,0x120(%rbx)
    52f6:	01 00 00 00 
    52fa:	49 8b 46 10          	mov    0x10(%r14),%rax
    52fe:	48 89 83 10 01 00 00 	mov    %rax,0x110(%rbx)
    5305:	e9 47 fe ff ff       	jmp    5151 <iter_set_info+0x51>
    530a:	48 c7 83 20 01 00 00 	movq   $0x2,0x120(%rbx)
    5311:	02 00 00 00 
    5315:	48 c7 83 10 01 00 00 	movq   $0x0,0x110(%rbx)
    531c:	00 00 00 00 
    5320:	e9 2c fe ff ff       	jmp    5151 <iter_set_info+0x51>
    5325:	66 66 2e 0f 1f 84 00 	data16 cs nopw 0x0(%rax,%rax,1)
    532c:	00 00 00 00 

0000000000005330 <lzma_index_iter_locate>:
    5330:	48 8b 8f 00 01 00 00 	mov    0x100(%rdi),%rcx
    5337:	b0 01                	mov    $0x1,%al
    5339:	48 39 71 20          	cmp    %rsi,0x20(%rcx)
    533d:	0f 86 bb 00 00 00    	jbe    53fe <lzma_index_iter_locate+0xce>
    5343:	50                   	push   %rax
    5344:	48 8b 09             	mov    (%rcx),%rcx
    5347:	31 c0                	xor    %eax,%eax
    5349:	48 85 c9             	test   %rcx,%rcx
    534c:	74 18                	je     5366 <lzma_index_iter_locate+0x36>
    534e:	66 90                	xchg   %ax,%ax
    5350:	31 d2                	xor    %edx,%edx
    5352:	48 39 31             	cmp    %rsi,(%rcx)
    5355:	48 0f 46 c1          	cmovbe %rcx,%rax
    5359:	0f 96 c2             	setbe  %dl
    535c:	48 8b 4c d1 18       	mov    0x18(%rcx,%rdx,8),%rcx
    5361:	48 85 c9             	test   %rcx,%rcx
    5364:	75 ea                	jne    5350 <lzma_index_iter_locate+0x20>
    5366:	48 2b 30             	sub    (%rax),%rsi
    5369:	48 8b 50 38          	mov    0x38(%rax),%rdx
    536d:	31 c9                	xor    %ecx,%ecx
    536f:	48 85 d2             	test   %rdx,%rdx
    5372:	74 24                	je     5398 <lzma_index_iter_locate+0x68>
    5374:	66 66 66 2e 0f 1f 84 	data16 data16 cs nopw 0x0(%rax,%rax,1)
    537b:	00 00 00 00 00 
    5380:	45 31 c0             	xor    %r8d,%r8d
    5383:	48 39 32             	cmp    %rsi,(%rdx)
    5386:	48 0f 46 ca          	cmovbe %rdx,%rcx
    538a:	41 0f 96 c0          	setbe  %r8b
    538e:	4a 8b 54 c2 18       	mov    0x18(%rdx,%r8,8),%rdx
    5393:	48 85 d2             	test   %rdx,%rdx
    5396:	75 e8                	jne    5380 <lzma_index_iter_locate+0x50>
    5398:	4c 8b 41 38          	mov    0x38(%rcx),%r8
    539c:	31 d2                	xor    %edx,%edx
    539e:	4d 85 c0             	test   %r8,%r8
    53a1:	75 18                	jne    53bb <lzma_index_iter_locate+0x8b>
    53a3:	eb 39                	jmp    53de <lzma_index_iter_locate+0xae>
    53a5:	66 66 2e 0f 1f 84 00 	data16 cs nopw 0x0(%rax,%rax,1)
    53ac:	00 00 00 00 
    53b0:	4c 01 ca             	add    %r9,%rdx
    53b3:	48 ff c2             	inc    %rdx
    53b6:	4c 39 c2             	cmp    %r8,%rdx
    53b9:	73 23                	jae    53de <lzma_index_iter_locate+0xae>
    53bb:	4d 89 c1             	mov    %r8,%r9
    53be:	49 29 d1             	sub    %rdx,%r9
    53c1:	49 d1 e9             	shr    %r9
    53c4:	4d 8d 14 11          	lea    (%r9,%rdx,1),%r10
    53c8:	4d 89 d3             	mov    %r10,%r11
    53cb:	49 c1 e3 04          	shl    $0x4,%r11
    53cf:	4a 39 74 19 40       	cmp    %rsi,0x40(%rcx,%r11,1)
    53d4:	76 da                	jbe    53b0 <lzma_index_iter_locate+0x80>
    53d6:	4d 89 d0             	mov    %r10,%r8
    53d9:	4c 39 c2             	cmp    %r8,%rdx
    53dc:	72 dd                	jb     53bb <lzma_index_iter_locate+0x8b>
    53de:	48 89 87 08 01 00 00 	mov    %rax,0x108(%rdi)
    53e5:	48 89 8f 10 01 00 00 	mov    %rcx,0x110(%rdi)
    53ec:	48 89 97 18 01 00 00 	mov    %rdx,0x118(%rdi)
    53f3:	e8 08 fd ff ff       	call   5100 <iter_set_info>
    53f8:	31 c0                	xor    %eax,%eax
    53fa:	48 83 c4 08          	add    $0x8,%rsp
    53fe:	c3                   	ret    
    53ff:	90                   	nop

0000000000005400 <index_tree_node_end>:
    5400:	41 57                	push   %r15
    5402:	41 56                	push   %r14
    5404:	53                   	push   %rbx
    5405:	49 89 d7             	mov    %rdx,%r15
    5408:	48 89 f3             	mov    %rsi,%rbx
    540b:	49 89 fe             	mov    %rdi,%r14
    540e:	48 8b 7f 18          	mov    0x18(%rdi),%rdi
    5412:	48 85 ff             	test   %rdi,%rdi
    5415:	74 0b                	je     5422 <index_tree_node_end+0x22>
    5417:	48 89 de             	mov    %rbx,%rsi
    541a:	4c 89 fa             	mov    %r15,%rdx
    541d:	e8 de ff ff ff       	call   5400 <index_tree_node_end>
    5422:	49 8b 7e 20          	mov    0x20(%r14),%rdi
    5426:	48 85 ff             	test   %rdi,%rdi
    5429:	74 0b                	je     5436 <index_tree_node_end+0x36>
    542b:	48 89 de             	mov    %rbx,%rsi
    542e:	4c 89 fa             	mov    %r15,%rdx
    5431:	e8 ca ff ff ff       	call   5400 <index_tree_node_end>
    5436:	4d 85 ff             	test   %r15,%r15
    5439:	74 09                	je     5444 <index_tree_node_end+0x44>
    543b:	4c 89 f7             	mov    %r14,%rdi
    543e:	48 89 de             	mov    %rbx,%rsi
    5441:	41 ff d7             	call   *%r15
    5444:	4c 89 f7             	mov    %r14,%rdi
    5447:	48 89 de             	mov    %rbx,%rsi
    544a:	5b                   	pop    %rbx
    544b:	41 5e                	pop    %r14
    544d:	41 5f                	pop    %r15
    544f:	e9 9c da ff ff       	jmp    2ef0 <lzma_free>
    5454:	66 2e 0f 1f 84 00 00 	cs nopw 0x0(%rax,%rax,1)
    545b:	00 00 00 
    545e:	66 90                	xchg   %ax,%ax

0000000000005460 <lzma_stream_flags_compare>:
    5460:	b8 08 00 00 00       	mov    $0x8,%eax
    5465:	83 3f 00             	cmpl   $0x0,(%rdi)
    5468:	74 01                	je     546b <lzma_stream_flags_compare+0xb>
    546a:	c3                   	ret    
    546b:	83 3e 00             	cmpl   $0x0,(%rsi)
    546e:	75 fa                	jne    546a <lzma_stream_flags_compare+0xa>
    5470:	8b 4f 10             	mov    0x10(%rdi),%ecx
    5473:	b8 0b 00 00 00       	mov    $0xb,%eax
    5478:	83 f9 0f             	cmp    $0xf,%ecx
    547b:	77 ed                	ja     546a <lzma_stream_flags_compare+0xa>
    547d:	8b 56 10             	mov    0x10(%rsi),%edx
    5480:	83 fa 0f             	cmp    $0xf,%edx
    5483:	77 e5                	ja     546a <lzma_stream_flags_compare+0xa>
    5485:	39 d1                	cmp    %edx,%ecx
    5487:	75 4b                	jne    54d4 <lzma_stream_flags_compare+0x74>
    5489:	48 8b 4f 08          	mov    0x8(%rdi),%rcx
    548d:	48 83 f9 ff          	cmp    $0xffffffffffffffff,%rcx
    5491:	74 3e                	je     54d1 <lzma_stream_flags_compare+0x71>
    5493:	48 8b 56 08          	mov    0x8(%rsi),%rdx
    5497:	48 83 fa ff          	cmp    $0xffffffffffffffff,%rdx
    549b:	74 34                	je     54d1 <lzma_stream_flags_compare+0x71>
    549d:	48 be fd ff ff ff 03 	movabs $0x3fffffffd,%rsi
    54a4:	00 00 00 
    54a7:	48 8d 79 fc          	lea    -0x4(%rcx),%rdi
    54ab:	48 39 f7             	cmp    %rsi,%rdi
    54ae:	73 ba                	jae    546a <lzma_stream_flags_compare+0xa>
    54b0:	89 cf                	mov    %ecx,%edi
    54b2:	83 e7 03             	and    $0x3,%edi
    54b5:	75 b3                	jne    546a <lzma_stream_flags_compare+0xa>
    54b7:	48 8d 7a fc          	lea    -0x4(%rdx),%rdi
    54bb:	48 39 f7             	cmp    %rsi,%rdi
    54be:	73 aa                	jae    546a <lzma_stream_flags_compare+0xa>
    54c0:	89 d6                	mov    %edx,%esi
    54c2:	83 e6 03             	and    $0x3,%esi
    54c5:	75 a3                	jne    546a <lzma_stream_flags_compare+0xa>
    54c7:	b8 09 00 00 00       	mov    $0x9,%eax
    54cc:	48 39 d1             	cmp    %rdx,%rcx
    54cf:	75 99                	jne    546a <lzma_stream_flags_compare+0xa>
    54d1:	31 c0                	xor    %eax,%eax
    54d3:	c3                   	ret    
    54d4:	b8 09 00 00 00       	mov    $0x9,%eax
    54d9:	c3                   	ret    
    54da:	66 0f 1f 44 00 00    	nopw   0x0(%rax,%rax,1)

00000000000054e0 <lzma_vli_size>:
    54e0:	31 c0                	xor    %eax,%eax
    54e2:	48 85 ff             	test   %rdi,%rdi
    54e5:	78 18                	js     54ff <lzma_vli_size+0x1f>
    54e7:	48 89 f9             	mov    %rdi,%rcx
    54ea:	66 0f 1f 44 00 00    	nopw   0x0(%rax,%rax,1)
    54f0:	48 c1 e9 07          	shr    $0x7,%rcx
    54f4:	ff c0                	inc    %eax
    54f6:	48 83 ff 7f          	cmp    $0x7f,%rdi
    54fa:	48 89 cf             	mov    %rcx,%rdi
    54fd:	77 f1                	ja     54f0 <lzma_vli_size+0x10>
    54ff:	c3                   	ret    

0000000000005500 <lzma_alone_encoder>:
    5500:	41 56                	push   %r14
    5502:	53                   	push   %rbx
    5503:	50                   	push   %rax
    5504:	49 89 f6             	mov    %rsi,%r14
    5507:	48 89 fb             	mov    %rdi,%rbx
    550a:	e8 d1 db ff ff       	call   30e0 <lzma_strm_init>
    550f:	85 c0                	test   %eax,%eax
    5511:	74 08                	je     551b <lzma_alone_encoder+0x1b>
    5513:	48 83 c4 08          	add    $0x8,%rsp
    5517:	5b                   	pop    %rbx
    5518:	41 5e                	pop    %r14
    551a:	c3                   	ret    
    551b:	48 8b 73 30          	mov    0x30(%rbx),%rsi
    551f:	48 8b 7b 38          	mov    0x38(%rbx),%rdi
    5523:	4c 89 f2             	mov    %r14,%rdx
    5526:	e8 35 00 00 00       	call   5560 <alone_encoder_init>
    552b:	85 c0                	test   %eax,%eax
    552d:	74 14                	je     5543 <lzma_alone_encoder+0x43>
    552f:	48 89 df             	mov    %rbx,%rdi
    5532:	89 c3                	mov    %eax,%ebx
    5534:	e8 d7 de ff ff       	call   3410 <lzma_end>
    5539:	89 d8                	mov    %ebx,%eax
    553b:	48 83 c4 08          	add    $0x8,%rsp
    553f:	5b                   	pop    %rbx
    5540:	41 5e                	pop    %r14
    5542:	c3                   	ret    
    5543:	48 8b 43 38          	mov    0x38(%rbx),%rax
    5547:	c6 40 50 01          	movb   $0x1,0x50(%rax)
    554b:	48 8b 43 38          	mov    0x38(%rbx),%rax
    554f:	c6 40 53 01          	movb   $0x1,0x53(%rax)
    5553:	31 c0                	xor    %eax,%eax
    5555:	48 83 c4 08          	add    $0x8,%rsp
    5559:	5b                   	pop    %rbx
    555a:	41 5e                	pop    %r14
    555c:	c3                   	ret    
    555d:	0f 1f 00             	nopl   (%rax)

0000000000005560 <alone_encoder_init>:
    5560:	41 57                	push   %r15
    5562:	41 56                	push   %r14
    5564:	41 54                	push   %r12
    5566:	53                   	push   %rbx
    5567:	48 83 ec 38          	sub    $0x38,%rsp
    556b:	49 89 d7             	mov    %rdx,%r15
    556e:	48 89 f3             	mov    %rsi,%rbx
    5571:	49 89 fe             	mov    %rdi,%r14
    5574:	4c 8d 25 e5 ff ff ff 	lea    -0x1b(%rip),%r12        # 5560 <alone_encoder_init>
    557b:	4c 39 67 10          	cmp    %r12,0x10(%rdi)
    557f:	74 0b                	je     558c <alone_encoder_init+0x2c>
    5581:	4c 89 f7             	mov    %r14,%rdi
    5584:	48 89 de             	mov    %rbx,%rsi
    5587:	e8 b4 da ff ff       	call   3040 <lzma_next_end>
    558c:	4d 89 66 10          	mov    %r12,0x10(%r14)
    5590:	49 8b 06             	mov    (%r14),%rax
    5593:	48 85 c0             	test   %rax,%rax
    5596:	75 50                	jne    55e8 <alone_encoder_init+0x88>
    5598:	bf 60 00 00 00       	mov    $0x60,%edi
    559d:	48 89 de             	mov    %rbx,%rsi
    55a0:	e8 1b d9 ff ff       	call   2ec0 <lzma_alloc>
    55a5:	49 89 06             	mov    %rax,(%r14)
    55a8:	48 85 c0             	test   %rax,%rax
    55ab:	0f 84 ec 00 00 00    	je     569d <alone_encoder_init+0x13d>
    55b1:	48 8d 0d f8 00 00 00 	lea    0xf8(%rip),%rcx        # 56b0 <alone_encode>
    55b8:	49 89 4e 18          	mov    %rcx,0x18(%r14)
    55bc:	48 8d 0d bd 01 00 00 	lea    0x1bd(%rip),%rcx        # 5780 <alone_encoder_end>
    55c3:	49 89 4e 20          	mov    %rcx,0x20(%r14)
    55c7:	48 c7 00 00 00 00 00 	movq   $0x0,(%rax)
    55ce:	48 c7 40 08 ff ff ff 	movq   $0xffffffffffffffff,0x8(%rax)
    55d5:	ff 
    55d6:	0f 57 c0             	xorps  %xmm0,%xmm0
    55d9:	0f 11 40 10          	movups %xmm0,0x10(%rax)
    55dd:	0f 11 40 20          	movups %xmm0,0x20(%rax)
    55e1:	0f 11 40 30          	movups %xmm0,0x30(%rax)
    55e5:	49 8b 06             	mov    (%r14),%rax
    55e8:	c7 40 40 00 00 00 00 	movl   $0x0,0x40(%rax)
    55ef:	49 8b 06             	mov    (%r14),%rax
    55f2:	48 c7 40 48 00 00 00 	movq   $0x0,0x48(%rax)
    55f9:	00 
    55fa:	49 8b 36             	mov    (%r14),%rsi
    55fd:	48 83 c6 50          	add    $0x50,%rsi
    5601:	4c 89 ff             	mov    %r15,%rdi
    5604:	e8 17 b8 00 00       	call   10e20 <lzma_lzma_lclppb_encode>
    5609:	89 c1                	mov    %eax,%ecx
    560b:	b8 08 00 00 00       	mov    $0x8,%eax
    5610:	84 c9                	test   %cl,%cl
    5612:	0f 85 8a 00 00 00    	jne    56a2 <alone_encoder_init+0x142>
    5618:	41 8b 0f             	mov    (%r15),%ecx
    561b:	81 f9 00 10 00 00    	cmp    $0x1000,%ecx
    5621:	72 7f                	jb     56a2 <alone_encoder_init+0x142>
    5623:	ff c9                	dec    %ecx
    5625:	89 c8                	mov    %ecx,%eax
    5627:	c1 e8 02             	shr    $0x2,%eax
    562a:	09 c8                	or     %ecx,%eax
    562c:	89 c1                	mov    %eax,%ecx
    562e:	c1 e9 03             	shr    $0x3,%ecx
    5631:	09 c1                	or     %eax,%ecx
    5633:	89 c8                	mov    %ecx,%eax
    5635:	c1 e8 04             	shr    $0x4,%eax
    5638:	09 c8                	or     %ecx,%eax
    563a:	89 c1                	mov    %eax,%ecx
    563c:	c1 e9 08             	shr    $0x8,%ecx
    563f:	09 c1                	or     %eax,%ecx
    5641:	89 c8                	mov    %ecx,%eax
    5643:	c1 e8 10             	shr    $0x10,%eax
    5646:	09 c8                	or     %ecx,%eax
    5648:	ff c0                	inc    %eax
    564a:	b9 ff ff ff ff       	mov    $0xffffffff,%ecx
    564f:	0f 45 c8             	cmovne %eax,%ecx
    5652:	49 8b 06             	mov    (%r14),%rax
    5655:	89 48 51             	mov    %ecx,0x51(%rax)
    5658:	49 8b 06             	mov    (%r14),%rax
    565b:	48 c7 40 55 ff ff ff 	movq   $0xffffffffffffffff,0x55(%rax)
    5662:	ff 
    5663:	48 c7 04 24 00 00 00 	movq   $0x0,(%rsp)
    566a:	00 
    566b:	48 8d 05 de b6 00 00 	lea    0xb6de(%rip),%rax        # 10d50 <lzma_lzma_encoder_init>
    5672:	48 89 44 24 08       	mov    %rax,0x8(%rsp)
    5677:	4c 89 7c 24 10       	mov    %r15,0x10(%rsp)
    567c:	0f 57 c0             	xorps  %xmm0,%xmm0
    567f:	0f 11 44 24 18       	movups %xmm0,0x18(%rsp)
    5684:	48 c7 44 24 28 00 00 	movq   $0x0,0x28(%rsp)
    568b:	00 00 
    568d:	49 8b 3e             	mov    (%r14),%rdi
    5690:	48 89 e2             	mov    %rsp,%rdx
    5693:	48 89 de             	mov    %rbx,%rsi
    5696:	e8 e5 d8 ff ff       	call   2f80 <lzma_next_filter_init>
    569b:	eb 05                	jmp    56a2 <alone_encoder_init+0x142>
    569d:	b8 05 00 00 00       	mov    $0x5,%eax
    56a2:	48 83 c4 38          	add    $0x38,%rsp
    56a6:	5b                   	pop    %rbx
    56a7:	41 5c                	pop    %r12
    56a9:	41 5e                	pop    %r14
    56ab:	41 5f                	pop    %r15
    56ad:	c3                   	ret    
    56ae:	66 90                	xchg   %ax,%ax

00000000000056b0 <alone_encode>:
    56b0:	55                   	push   %rbp
    56b1:	41 57                	push   %r15
    56b3:	41 56                	push   %r14
    56b5:	41 55                	push   %r13
    56b7:	41 54                	push   %r12
    56b9:	53                   	push   %rbx
    56ba:	48 83 ec 18          	sub    $0x18,%rsp
    56be:	48 8b 5c 24 58       	mov    0x58(%rsp),%rbx
    56c3:	4c 8b 74 24 50       	mov    0x50(%rsp),%r14
    56c8:	49 39 1e             	cmp    %rbx,(%r14)
    56cb:	73 56                	jae    5723 <alone_encode+0x73>
    56cd:	44 8b 57 40          	mov    0x40(%rdi),%r10d
    56d1:	41 83 fa 01          	cmp    $0x1,%r10d
    56d5:	0f 84 82 00 00 00    	je     575d <alone_encode+0xad>
    56db:	b8 0b 00 00 00       	mov    $0xb,%eax
    56e0:	45 85 d2             	test   %r10d,%r10d
    56e3:	75 40                	jne    5725 <alone_encode+0x75>
    56e5:	48 89 74 24 10       	mov    %rsi,0x10(%rsp)
    56ea:	48 89 14 24          	mov    %rdx,(%rsp)
    56ee:	48 89 4c 24 08       	mov    %rcx,0x8(%rsp)
    56f3:	4d 89 c4             	mov    %r8,%r12
    56f6:	48 8d 47 50          	lea    0x50(%rdi),%rax
    56fa:	49 89 fd             	mov    %rdi,%r13
    56fd:	4c 8d 7f 48          	lea    0x48(%rdi),%r15
    5701:	ba 0d 00 00 00       	mov    $0xd,%edx
    5706:	48 89 c7             	mov    %rax,%rdi
    5709:	4c 89 fe             	mov    %r15,%rsi
    570c:	4c 89 cd             	mov    %r9,%rbp
    570f:	4c 89 c9             	mov    %r9,%rcx
    5712:	4d 89 f0             	mov    %r14,%r8
    5715:	49 89 d9             	mov    %rbx,%r9
    5718:	e8 03 d8 ff ff       	call   2f20 <lzma_bufcpy>
    571d:	49 83 3f 0d          	cmpq   $0xd,(%r15)
    5721:	73 11                	jae    5734 <alone_encode+0x84>
    5723:	31 c0                	xor    %eax,%eax
    5725:	48 83 c4 18          	add    $0x18,%rsp
    5729:	5b                   	pop    %rbx
    572a:	41 5c                	pop    %r12
    572c:	41 5d                	pop    %r13
    572e:	41 5e                	pop    %r14
    5730:	41 5f                	pop    %r15
    5732:	5d                   	pop    %rbp
    5733:	c3                   	ret    
    5734:	4c 89 ef             	mov    %r13,%rdi
    5737:	41 c7 45 40 01 00 00 	movl   $0x1,0x40(%r13)
    573e:	00 
    573f:	b8 00 00 00 00       	mov    $0x0,%eax
    5744:	49 39 1e             	cmp    %rbx,(%r14)
    5747:	49 89 e9             	mov    %rbp,%r9
    574a:	4d 89 e0             	mov    %r12,%r8
    574d:	48 8b 4c 24 08       	mov    0x8(%rsp),%rcx
    5752:	48 8b 14 24          	mov    (%rsp),%rdx
    5756:	48 8b 74 24 10       	mov    0x10(%rsp),%rsi
    575b:	73 c8                	jae    5725 <alone_encode+0x75>
    575d:	48 8b 07             	mov    (%rdi),%rax
    5760:	4c 8b 5f 18          	mov    0x18(%rdi),%r11
    5764:	48 89 c7             	mov    %rax,%rdi
    5767:	48 83 c4 18          	add    $0x18,%rsp
    576b:	5b                   	pop    %rbx
    576c:	41 5c                	pop    %r12
    576e:	41 5d                	pop    %r13
    5770:	41 5e                	pop    %r14
    5772:	41 5f                	pop    %r15
    5774:	5d                   	pop    %rbp
    5775:	41 ff e3             	jmp    *%r11
    5778:	0f 1f 84 00 00 00 00 	nopl   0x0(%rax,%rax,1)
    577f:	00 

0000000000005780 <alone_encoder_end>:
    5780:	41 56                	push   %r14
    5782:	53                   	push   %rbx
    5783:	50                   	push   %rax
    5784:	48 89 f3             	mov    %rsi,%rbx
    5787:	49 89 fe             	mov    %rdi,%r14
    578a:	e8 b1 d8 ff ff       	call   3040 <lzma_next_end>
    578f:	4c 89 f7             	mov    %r14,%rdi
    5792:	48 89 de             	mov    %rbx,%rsi
    5795:	48 83 c4 08          	add    $0x8,%rsp
    5799:	5b                   	pop    %rbx
    579a:	41 5e                	pop    %r14
    579c:	e9 4f d7 ff ff       	jmp    2ef0 <lzma_free>
    57a1:	66 2e 0f 1f 84 00 00 	cs nopw 0x0(%rax,%rax,1)
    57a8:	00 00 00 
    57ab:	0f 1f 44 00 00       	nopl   0x0(%rax,%rax,1)

00000000000057b0 <lzma_block_buffer_bound>:
    57b0:	48 b8 bb fb ff ff ff 	movabs $0x7ffffffffffffbbb,%rax
    57b7:	ff ff 7f 
    57ba:	48 8d 48 01          	lea    0x1(%rax),%rcx
    57be:	48 39 cf             	cmp    %rcx,%rdi
    57c1:	76 03                	jbe    57c6 <lzma_block_buffer_bound+0x16>
    57c3:	31 c0                	xor    %eax,%eax
    57c5:	c3                   	ret    
    57c6:	48 8d 8f ff ff 00 00 	lea    0xffff(%rdi),%rcx
    57cd:	48 c1 e9 10          	shr    $0x10,%rcx
    57d1:	48 8d 0c 49          	lea    (%rcx,%rcx,2),%rcx
    57d5:	48 29 c8             	sub    %rcx,%rax
    57d8:	48 39 f8             	cmp    %rdi,%rax
    57db:	73 03                	jae    57e0 <lzma_block_buffer_bound+0x30>
    57dd:	31 c0                	xor    %eax,%eax
    57df:	c3                   	ret    
    57e0:	48 8d 04 0f          	lea    (%rdi,%rcx,1),%rax
    57e4:	48 83 c0 04          	add    $0x4,%rax
    57e8:	48 83 e0 fc          	and    $0xfffffffffffffffc,%rax
    57ec:	48 83 c0 5c          	add    $0x5c,%rax
    57f0:	c3                   	ret    
    57f1:	66 66 66 66 66 66 2e 	data16 data16 data16 data16 data16 cs nopw 0x0(%rax,%rax,1)
    57f8:	0f 1f 84 00 00 00 00 
    57ff:	00 

0000000000005800 <lzma_block_buffer_encode>:
    5800:	48 85 ff             	test   %rdi,%rdi
    5803:	74 41                	je     5846 <lzma_block_buffer_encode+0x46>
    5805:	48 85 d2             	test   %rdx,%rdx
    5808:	0f 94 c0             	sete   %al
    580b:	48 85 c9             	test   %rcx,%rcx
    580e:	41 0f 95 c2          	setne  %r10b
    5812:	44 84 d0             	test   %r10b,%al
    5815:	75 2f                	jne    5846 <lzma_block_buffer_encode+0x46>
    5817:	4d 85 c0             	test   %r8,%r8
    581a:	74 2a                	je     5846 <lzma_block_buffer_encode+0x46>
    581c:	4d 85 c9             	test   %r9,%r9
    581f:	74 25                	je     5846 <lzma_block_buffer_encode+0x46>
    5821:	55                   	push   %rbp
    5822:	41 57                	push   %r15
    5824:	41 56                	push   %r14
    5826:	41 55                	push   %r13
    5828:	41 54                	push   %r12
    582a:	53                   	push   %rbx
    582b:	48 81 ec 88 00 00 00 	sub    $0x88,%rsp
    5832:	4c 8b b4 24 c0 00 00 	mov    0xc0(%rsp),%r14
    5839:	00 
    583a:	4d 39 31             	cmp    %r14,(%r9)
    583d:	76 0d                	jbe    584c <lzma_block_buffer_encode+0x4c>
    583f:	b8 0b 00 00 00       	mov    $0xb,%eax
    5844:	eb 10                	jmp    5856 <lzma_block_buffer_encode+0x56>
    5846:	b8 0b 00 00 00       	mov    $0xb,%eax
    584b:	c3                   	ret    
    584c:	b8 08 00 00 00       	mov    $0x8,%eax
    5851:	83 3f 00             	cmpl   $0x0,(%rdi)
    5854:	74 12                	je     5868 <lzma_block_buffer_encode+0x68>
    5856:	48 81 c4 88 00 00 00 	add    $0x88,%rsp
    585d:	5b                   	pop    %rbx
    585e:	41 5c                	pop    %r12
    5860:	41 5d                	pop    %r13
    5862:	41 5e                	pop    %r14
    5864:	41 5f                	pop    %r15
    5866:	5d                   	pop    %rbp
    5867:	c3                   	ret    
    5868:	44 8b 57 08          	mov    0x8(%rdi),%r10d
    586c:	41 83 fa 0f          	cmp    $0xf,%r10d
    5870:	77 cd                	ja     583f <lzma_block_buffer_encode+0x3f>
    5872:	48 83 7f 20 00       	cmpq   $0x0,0x20(%rdi)
    5877:	b8 0b 00 00 00       	mov    $0xb,%eax
    587c:	74 d8                	je     5856 <lzma_block_buffer_encode+0x56>
    587e:	48 89 f3             	mov    %rsi,%rbx
    5881:	48 89 54 24 10       	mov    %rdx,0x10(%rsp)
    5886:	48 89 cd             	mov    %rcx,%rbp
    5889:	49 89 fd             	mov    %rdi,%r13
    588c:	4c 89 44 24 18       	mov    %r8,0x18(%rsp)
    5891:	4d 89 cc             	mov    %r9,%r12
    5894:	44 89 d7             	mov    %r10d,%edi
    5897:	e8 94 50 00 00       	call   a930 <lzma_check_is_supported>
    589c:	84 c0                	test   %al,%al
    589e:	0f 84 74 01 00 00    	je     5a18 <lzma_block_buffer_encode+0x218>
    58a4:	4d 89 e7             	mov    %r12,%r15
    58a7:	41 8b 04 24          	mov    (%r12),%eax
    58ab:	44 89 f1             	mov    %r14d,%ecx
    58ae:	29 c1                	sub    %eax,%ecx
    58b0:	83 e1 03             	and    $0x3,%ecx
    58b3:	49 29 ce             	sub    %rcx,%r14
    58b6:	41 8b 7d 08          	mov    0x8(%r13),%edi
    58ba:	e8 91 50 00 00       	call   a950 <lzma_check_size>
    58bf:	89 c0                	mov    %eax,%eax
    58c1:	4c 89 f1             	mov    %r14,%rcx
    58c4:	49 2b 0c 24          	sub    (%r12),%rcx
    58c8:	49 89 c7             	mov    %rax,%r15
    58cb:	b8 0a 00 00 00       	mov    $0xa,%eax
    58d0:	4c 39 f9             	cmp    %r15,%rcx
    58d3:	76 81                	jbe    5856 <lzma_block_buffer_encode+0x56>
    58d5:	4d 29 fe             	sub    %r15,%r14
    58d8:	4c 89 34 24          	mov    %r14,(%rsp)
    58dc:	4c 89 ef             	mov    %r13,%rdi
    58df:	48 89 de             	mov    %rbx,%rsi
    58e2:	48 8b 54 24 10       	mov    0x10(%rsp),%rdx
    58e7:	48 89 e9             	mov    %rbp,%rcx
    58ea:	4c 8b 44 24 18       	mov    0x18(%rsp),%r8
    58ef:	4d 89 e1             	mov    %r12,%r9
    58f2:	e8 39 01 00 00       	call   5a30 <block_encode_normal>
    58f7:	4c 8b 4c 24 10       	mov    0x10(%rsp),%r9
    58fc:	48 89 ea             	mov    %rbp,%rdx
    58ff:	4c 89 ef             	mov    %r13,%rdi
    5902:	48 8b 4c 24 18       	mov    0x18(%rsp),%rcx
    5907:	4d 89 e0             	mov    %r12,%r8
    590a:	85 c0                	test   %eax,%eax
    590c:	74 32                	je     5940 <lzma_block_buffer_encode+0x140>
    590e:	83 f8 0a             	cmp    $0xa,%eax
    5911:	0f 85 3f ff ff ff    	jne    5856 <lzma_block_buffer_encode+0x56>
    5917:	4c 89 ef             	mov    %r13,%rdi
    591a:	4c 89 ce             	mov    %r9,%rsi
    591d:	4d 89 f1             	mov    %r14,%r9
    5920:	e8 ab 02 00 00       	call   5bd0 <block_encode_uncompressed>
    5925:	4c 8b 4c 24 10       	mov    0x10(%rsp),%r9
    592a:	48 89 ea             	mov    %rbp,%rdx
    592d:	4c 89 ef             	mov    %r13,%rdi
    5930:	48 8b 4c 24 18       	mov    0x18(%rsp),%rcx
    5935:	4d 89 e0             	mov    %r12,%r8
    5938:	85 c0                	test   %eax,%eax
    593a:	0f 85 16 ff ff ff    	jne    5856 <lzma_block_buffer_encode+0x56>
    5940:	48 8b 47 10          	mov    0x10(%rdi),%rax
    5944:	a8 03                	test   $0x3,%al
    5946:	74 51                	je     5999 <lzma_block_buffer_encode+0x199>
    5948:	49 8b 30             	mov    (%r8),%rsi
    594b:	4c 8d 56 01          	lea    0x1(%rsi),%r10
    594f:	4d 89 10             	mov    %r10,(%r8)
    5952:	c6 04 31 00          	movb   $0x0,(%rcx,%rsi,1)
    5956:	8d 70 01             	lea    0x1(%rax),%esi
    5959:	40 f6 c6 03          	test   $0x3,%sil
    595d:	74 3a                	je     5999 <lzma_block_buffer_encode+0x199>
    595f:	49 8b 30             	mov    (%r8),%rsi
    5962:	4c 8d 56 01          	lea    0x1(%rsi),%r10
    5966:	4d 89 10             	mov    %r10,(%r8)
    5969:	c6 04 31 00          	movb   $0x0,(%rcx,%rsi,1)
    596d:	89 c6                	mov    %eax,%esi
    596f:	83 e6 03             	and    $0x3,%esi
    5972:	83 fe 02             	cmp    $0x2,%esi
    5975:	74 22                	je     5999 <lzma_block_buffer_encode+0x199>
    5977:	49 8b 30             	mov    (%r8),%rsi
    597a:	4c 8d 56 01          	lea    0x1(%rsi),%r10
    597e:	4d 89 10             	mov    %r10,(%r8)
    5981:	c6 04 31 00          	movb   $0x0,(%rcx,%rsi,1)
    5985:	ff c8                	dec    %eax
    5987:	a8 03                	test   $0x3,%al
    5989:	74 0e                	je     5999 <lzma_block_buffer_encode+0x199>
    598b:	49 8b 00             	mov    (%r8),%rax
    598e:	48 8d 70 01          	lea    0x1(%rax),%rsi
    5992:	49 89 30             	mov    %rsi,(%r8)
    5995:	c6 04 01 00          	movb   $0x0,(%rcx,%rax,1)
    5999:	31 c0                	xor    %eax,%eax
    599b:	4d 85 ff             	test   %r15,%r15
    599e:	0f 84 b2 fe ff ff    	je     5856 <lzma_block_buffer_encode+0x56>
    59a4:	8b 77 08             	mov    0x8(%rdi),%esi
    59a7:	48 8d 5c 24 20       	lea    0x20(%rsp),%rbx
    59ac:	49 89 fe             	mov    %rdi,%r14
    59af:	48 89 df             	mov    %rbx,%rdi
    59b2:	4c 89 44 24 10       	mov    %r8,0x10(%rsp)
    59b7:	4c 89 fd             	mov    %r15,%rbp
    59ba:	49 89 cf             	mov    %rcx,%r15
    59bd:	49 89 d4             	mov    %rdx,%r12
    59c0:	4d 89 cd             	mov    %r9,%r13
    59c3:	e8 a8 4f 00 00       	call   a970 <lzma_check_init>
    59c8:	41 8b 76 08          	mov    0x8(%r14),%esi
    59cc:	48 89 df             	mov    %rbx,%rdi
    59cf:	4c 89 ea             	mov    %r13,%rdx
    59d2:	4c 89 e1             	mov    %r12,%rcx
    59d5:	e8 c6 4f 00 00       	call   a9a0 <lzma_check_update>
    59da:	41 8b 76 08          	mov    0x8(%r14),%esi
    59de:	48 89 df             	mov    %rbx,%rdi
    59e1:	e8 0a 50 00 00       	call   a9f0 <lzma_check_finish>
    59e6:	49 83 c6 28          	add    $0x28,%r14
    59ea:	4c 89 f7             	mov    %r14,%rdi
    59ed:	48 89 de             	mov    %rbx,%rsi
    59f0:	48 89 ea             	mov    %rbp,%rdx
    59f3:	e8 58 c7 ff ff       	call   2150 <memcpy@plt>
    59f8:	4c 8b 74 24 10       	mov    0x10(%rsp),%r14
    59fd:	4d 03 3e             	add    (%r14),%r15
    5a00:	4c 89 ff             	mov    %r15,%rdi
    5a03:	48 89 de             	mov    %rbx,%rsi
    5a06:	48 89 ea             	mov    %rbp,%rdx
    5a09:	e8 42 c7 ff ff       	call   2150 <memcpy@plt>
    5a0e:	31 c0                	xor    %eax,%eax
    5a10:	49 01 2e             	add    %rbp,(%r14)
    5a13:	e9 3e fe ff ff       	jmp    5856 <lzma_block_buffer_encode+0x56>
    5a18:	b8 03 00 00 00       	mov    $0x3,%eax
    5a1d:	e9 34 fe ff ff       	jmp    5856 <lzma_block_buffer_encode+0x56>
    5a22:	66 66 66 66 66 2e 0f 	data16 data16 data16 data16 cs nopw 0x0(%rax,%rax,1)
    5a29:	1f 84 00 00 00 00 00 

0000000000005a30 <block_encode_normal>:
    5a30:	48 b8 bb fb ff ff ff 	movabs $0x7ffffffffffffbbb,%rax
    5a37:	ff ff 7f 
    5a3a:	4c 8d 50 01          	lea    0x1(%rax),%r10
    5a3e:	4c 39 d1             	cmp    %r10,%rcx
    5a41:	77 17                	ja     5a5a <block_encode_normal+0x2a>
    5a43:	4c 8d 91 ff ff 00 00 	lea    0xffff(%rcx),%r10
    5a4a:	49 c1 ea 10          	shr    $0x10,%r10
    5a4e:	4f 8d 14 52          	lea    (%r10,%r10,2),%r10
    5a52:	4c 29 d0             	sub    %r10,%rax
    5a55:	48 39 c8             	cmp    %rcx,%rax
    5a58:	73 0e                	jae    5a68 <block_encode_normal+0x38>
    5a5a:	48 c7 47 10 00 00 00 	movq   $0x0,0x10(%rdi)
    5a61:	00 
    5a62:	b8 09 00 00 00       	mov    $0x9,%eax
    5a67:	c3                   	ret    
    5a68:	55                   	push   %rbp
    5a69:	41 57                	push   %r15
    5a6b:	41 56                	push   %r14
    5a6d:	41 55                	push   %r13
    5a6f:	41 54                	push   %r12
    5a71:	53                   	push   %rbx
    5a72:	48 83 ec 68          	sub    $0x68,%rsp
    5a76:	49 89 d7             	mov    %rdx,%r15
    5a79:	49 89 f6             	mov    %rsi,%r14
    5a7c:	4c 89 44 24 08       	mov    %r8,0x8(%rsp)
    5a81:	4d 89 cd             	mov    %r9,%r13
    5a84:	4a 8d 44 11 01       	lea    0x1(%rcx,%r10,1),%rax
    5a89:	48 89 47 10          	mov    %rax,0x10(%rdi)
    5a8d:	49 89 cc             	mov    %rcx,%r12
    5a90:	48 89 4f 18          	mov    %rcx,0x18(%rdi)
    5a94:	48 89 fb             	mov    %rdi,%rbx
    5a97:	e8 64 07 00 00       	call   6200 <lzma_block_header_size>
    5a9c:	85 c0                	test   %eax,%eax
    5a9e:	0f 85 1a 01 00 00    	jne    5bbe <block_encode_normal+0x18e>
    5aa4:	48 8b 8c 24 a0 00 00 	mov    0xa0(%rsp),%rcx
    5aab:	00 
    5aac:	49 8b 55 00          	mov    0x0(%r13),%rdx
    5ab0:	48 29 d1             	sub    %rdx,%rcx
    5ab3:	8b 6b 04             	mov    0x4(%rbx),%ebp
    5ab6:	b8 0a 00 00 00       	mov    $0xa,%eax
    5abb:	48 39 e9             	cmp    %rbp,%rcx
    5abe:	0f 86 fa 00 00 00    	jbe    5bbe <block_encode_normal+0x18e>
    5ac4:	48 89 14 24          	mov    %rdx,(%rsp)
    5ac8:	48 01 d5             	add    %rdx,%rbp
    5acb:	49 89 6d 00          	mov    %rbp,0x0(%r13)
    5acf:	48 8b 4b 10          	mov    0x10(%rbx),%rcx
    5ad3:	48 89 4c 24 10       	mov    %rcx,0x10(%rsp)
    5ad8:	0f 57 c0             	xorps  %xmm0,%xmm0
    5adb:	0f 29 44 24 20       	movaps %xmm0,0x20(%rsp)
    5ae0:	0f 29 44 24 50       	movaps %xmm0,0x50(%rsp)
    5ae5:	0f 29 44 24 40       	movaps %xmm0,0x40(%rsp)
    5aea:	0f 29 44 24 30       	movaps %xmm0,0x30(%rsp)
    5aef:	48 c7 44 24 28 ff ff 	movq   $0xffffffffffffffff,0x28(%rsp)
    5af6:	ff ff 
    5af8:	48 8b 53 20          	mov    0x20(%rbx),%rdx
    5afc:	48 8d 7c 24 20       	lea    0x20(%rsp),%rdi
    5b01:	4c 89 f6             	mov    %r14,%rsi
    5b04:	e8 b7 0d 00 00       	call   68c0 <lzma_raw_encoder_init>
    5b09:	85 c0                	test   %eax,%eax
    5b0b:	75 4f                	jne    5b5c <block_encode_normal+0x12c>
    5b0d:	48 8b 8c 24 a0 00 00 	mov    0xa0(%rsp),%rcx
    5b14:	00 
    5b15:	48 89 c8             	mov    %rcx,%rax
    5b18:	48 29 e8             	sub    %rbp,%rax
    5b1b:	48 8b 54 24 10       	mov    0x10(%rsp),%rdx
    5b20:	48 01 d5             	add    %rdx,%rbp
    5b23:	48 39 d0             	cmp    %rdx,%rax
    5b26:	48 0f 46 e9          	cmovbe %rcx,%rbp
    5b2a:	48 c7 44 24 18 00 00 	movq   $0x0,0x18(%rsp)
    5b31:	00 00 
    5b33:	48 8b 7c 24 20       	mov    0x20(%rsp),%rdi
    5b38:	48 83 ec 08          	sub    $0x8,%rsp
    5b3c:	48 8d 4c 24 20       	lea    0x20(%rsp),%rcx
    5b41:	4c 89 f6             	mov    %r14,%rsi
    5b44:	4c 89 fa             	mov    %r15,%rdx
    5b47:	4d 89 e0             	mov    %r12,%r8
    5b4a:	4c 8b 4c 24 10       	mov    0x10(%rsp),%r9
    5b4f:	6a 03                	push   $0x3
    5b51:	55                   	push   %rbp
    5b52:	41 55                	push   %r13
    5b54:	ff 54 24 58          	call   *0x58(%rsp)
    5b58:	48 83 c4 20          	add    $0x20,%rsp
    5b5c:	48 8d 7c 24 20       	lea    0x20(%rsp),%rdi
    5b61:	4c 89 f6             	mov    %r14,%rsi
    5b64:	89 c5                	mov    %eax,%ebp
    5b66:	e8 d5 d4 ff ff       	call   3040 <lzma_next_end>
    5b6b:	85 ed                	test   %ebp,%ebp
    5b6d:	74 40                	je     5baf <block_encode_normal+0x17f>
    5b6f:	89 e8                	mov    %ebp,%eax
    5b71:	83 fd 01             	cmp    $0x1,%ebp
    5b74:	4c 89 ea             	mov    %r13,%rdx
    5b77:	75 3e                	jne    5bb7 <block_encode_normal+0x187>
    5b79:	48 8b 02             	mov    (%rdx),%rax
    5b7c:	8b 4b 04             	mov    0x4(%rbx),%ecx
    5b7f:	48 8b 14 24          	mov    (%rsp),%rdx
    5b83:	48 01 d1             	add    %rdx,%rcx
    5b86:	48 29 c8             	sub    %rcx,%rax
    5b89:	48 89 43 10          	mov    %rax,0x10(%rbx)
    5b8d:	48 8b 74 24 08       	mov    0x8(%rsp),%rsi
    5b92:	48 01 d6             	add    %rdx,%rsi
    5b95:	48 89 df             	mov    %rbx,%rdi
    5b98:	e8 93 07 00 00       	call   6330 <lzma_block_header_encode>
    5b9d:	4c 89 ea             	mov    %r13,%rdx
    5ba0:	89 c1                	mov    %eax,%ecx
    5ba2:	b8 0b 00 00 00       	mov    $0xb,%eax
    5ba7:	85 c9                	test   %ecx,%ecx
    5ba9:	75 0c                	jne    5bb7 <block_encode_normal+0x187>
    5bab:	31 c0                	xor    %eax,%eax
    5bad:	eb 0f                	jmp    5bbe <block_encode_normal+0x18e>
    5baf:	b8 0a 00 00 00       	mov    $0xa,%eax
    5bb4:	4c 89 ea             	mov    %r13,%rdx
    5bb7:	48 8b 0c 24          	mov    (%rsp),%rcx
    5bbb:	48 89 0a             	mov    %rcx,(%rdx)
    5bbe:	48 83 c4 68          	add    $0x68,%rsp
    5bc2:	5b                   	pop    %rbx
    5bc3:	41 5c                	pop    %r12
    5bc5:	41 5d                	pop    %r13
    5bc7:	41 5e                	pop    %r14
    5bc9:	41 5f                	pop    %r15
    5bcb:	5d                   	pop    %rbp
    5bcc:	c3                   	ret    
    5bcd:	0f 1f 00             	nopl   (%rax)

0000000000005bd0 <block_encode_uncompressed>:
    5bd0:	55                   	push   %rbp
    5bd1:	41 57                	push   %r15
    5bd3:	41 56                	push   %r14
    5bd5:	41 55                	push   %r13
    5bd7:	41 54                	push   %r12
    5bd9:	53                   	push   %rbx
    5bda:	48 81 ec a8 00 00 00 	sub    $0xa8,%rsp
    5be1:	4c 89 cd             	mov    %r9,%rbp
    5be4:	4d 89 c6             	mov    %r8,%r14
    5be7:	48 89 4c 24 08       	mov    %rcx,0x8(%rsp)
    5bec:	48 89 d3             	mov    %rdx,%rbx
    5bef:	49 89 f7             	mov    %rsi,%r15
    5bf2:	49 89 fd             	mov    %rdi,%r13
    5bf5:	0f 57 c0             	xorps  %xmm0,%xmm0
    5bf8:	0f 29 44 24 30       	movaps %xmm0,0x30(%rsp)
    5bfd:	0f 29 84 24 90 00 00 	movaps %xmm0,0x90(%rsp)
    5c04:	00 
    5c05:	0f 29 84 24 80 00 00 	movaps %xmm0,0x80(%rsp)
    5c0c:	00 
    5c0d:	0f 29 44 24 70       	movaps %xmm0,0x70(%rsp)
    5c12:	0f 29 44 24 60       	movaps %xmm0,0x60(%rsp)
    5c17:	0f 29 44 24 50       	movaps %xmm0,0x50(%rsp)
    5c1c:	0f 29 44 24 40       	movaps %xmm0,0x40(%rsp)
    5c21:	c7 44 24 30 00 10 00 	movl   $0x1000,0x30(%rsp)
    5c28:	00 
    5c29:	48 c7 44 24 10 21 00 	movq   $0x21,0x10(%rsp)
    5c30:	00 00 
    5c32:	48 8d 44 24 30       	lea    0x30(%rsp),%rax
    5c37:	48 89 44 24 18       	mov    %rax,0x18(%rsp)
    5c3c:	48 c7 44 24 20 ff ff 	movq   $0xffffffffffffffff,0x20(%rsp)
    5c43:	ff ff 
    5c45:	4c 8b 67 20          	mov    0x20(%rdi),%r12
    5c49:	48 8d 44 24 10       	lea    0x10(%rsp),%rax
    5c4e:	48 89 47 20          	mov    %rax,0x20(%rdi)
    5c52:	e8 a9 05 00 00       	call   6200 <lzma_block_header_size>
    5c57:	85 c0                	test   %eax,%eax
    5c59:	74 0e                	je     5c69 <block_encode_uncompressed+0x99>
    5c5b:	4d 89 65 20          	mov    %r12,0x20(%r13)
    5c5f:	b8 0b 00 00 00       	mov    $0xb,%eax
    5c64:	e9 3a 01 00 00       	jmp    5da3 <block_encode_uncompressed+0x1d3>
    5c69:	49 8b 36             	mov    (%r14),%rsi
    5c6c:	48 29 f5             	sub    %rsi,%rbp
    5c6f:	41 8b 45 04          	mov    0x4(%r13),%eax
    5c73:	49 03 45 10          	add    0x10(%r13),%rax
    5c77:	48 39 c5             	cmp    %rax,%rbp
    5c7a:	73 0e                	jae    5c8a <block_encode_uncompressed+0xba>
    5c7c:	4d 89 65 20          	mov    %r12,0x20(%r13)
    5c80:	b8 0a 00 00 00       	mov    $0xa,%eax
    5c85:	e9 19 01 00 00       	jmp    5da3 <block_encode_uncompressed+0x1d3>
    5c8a:	48 03 74 24 08       	add    0x8(%rsp),%rsi
    5c8f:	4c 89 ef             	mov    %r13,%rdi
    5c92:	e8 99 06 00 00       	call   6330 <lzma_block_header_encode>
    5c97:	89 c1                	mov    %eax,%ecx
    5c99:	4d 89 65 20          	mov    %r12,0x20(%r13)
    5c9d:	b8 0b 00 00 00       	mov    $0xb,%eax
    5ca2:	85 c9                	test   %ecx,%ecx
    5ca4:	0f 85 f9 00 00 00    	jne    5da3 <block_encode_uncompressed+0x1d3>
    5caa:	41 8b 6d 04          	mov    0x4(%r13),%ebp
    5cae:	49 03 2e             	add    (%r14),%rbp
    5cb1:	48 85 db             	test   %rbx,%rbx
    5cb4:	0f 84 d7 00 00 00    	je     5d91 <block_encode_uncompressed+0x1c1>
    5cba:	48 8d 45 01          	lea    0x1(%rbp),%rax
    5cbe:	49 89 06             	mov    %rax,(%r14)
    5cc1:	48 8b 74 24 08       	mov    0x8(%rsp),%rsi
    5cc6:	c6 04 2e 01          	movb   $0x1,(%rsi,%rbp,1)
    5cca:	48 81 fb 00 00 01 00 	cmp    $0x10000,%rbx
    5cd1:	41 bd 00 00 01 00    	mov    $0x10000,%r13d
    5cd7:	4c 0f 42 eb          	cmovb  %rbx,%r13
    5cdb:	49 8d 45 ff          	lea    -0x1(%r13),%rax
    5cdf:	49 8b 0e             	mov    (%r14),%rcx
    5ce2:	48 8d 51 01          	lea    0x1(%rcx),%rdx
    5ce6:	49 89 16             	mov    %rdx,(%r14)
    5ce9:	88 24 0e             	mov    %ah,(%rsi,%rcx,1)
    5cec:	49 8b 0e             	mov    (%r14),%rcx
    5cef:	48 8d 51 01          	lea    0x1(%rcx),%rdx
    5cf3:	49 89 16             	mov    %rdx,(%r14)
    5cf6:	88 04 0e             	mov    %al,(%rsi,%rcx,1)
    5cf9:	49 8b 3e             	mov    (%r14),%rdi
    5cfc:	48 01 f7             	add    %rsi,%rdi
    5cff:	4d 89 fc             	mov    %r15,%r12
    5d02:	4c 89 fe             	mov    %r15,%rsi
    5d05:	4c 89 ea             	mov    %r13,%rdx
    5d08:	e8 43 c4 ff ff       	call   2150 <memcpy@plt>
    5d0d:	49 8b 2e             	mov    (%r14),%rbp
    5d10:	4c 01 ed             	add    %r13,%rbp
    5d13:	48 81 fb 01 00 01 00 	cmp    $0x10001,%rbx
    5d1a:	72 75                	jb     5d91 <block_encode_uncompressed+0x1c1>
    5d1c:	49 89 df             	mov    %rbx,%r15
    5d1f:	48 8b 5c 24 08       	mov    0x8(%rsp),%rbx
    5d24:	66 66 66 2e 0f 1f 84 	data16 data16 cs nopw 0x0(%rax,%rax,1)
    5d2b:	00 00 00 00 00 
    5d30:	48 8d 45 01          	lea    0x1(%rbp),%rax
    5d34:	49 89 06             	mov    %rax,(%r14)
    5d37:	c6 04 2b 02          	movb   $0x2,(%rbx,%rbp,1)
    5d3b:	4c 89 fd             	mov    %r15,%rbp
    5d3e:	4c 29 ed             	sub    %r13,%rbp
    5d41:	48 81 fd 00 00 01 00 	cmp    $0x10000,%rbp
    5d48:	b8 00 00 01 00       	mov    $0x10000,%eax
    5d4d:	48 0f 43 e8          	cmovae %rax,%rbp
    5d51:	48 8d 45 ff          	lea    -0x1(%rbp),%rax
    5d55:	49 8b 0e             	mov    (%r14),%rcx
    5d58:	48 8d 51 01          	lea    0x1(%rcx),%rdx
    5d5c:	49 89 16             	mov    %rdx,(%r14)
    5d5f:	88 24 0b             	mov    %ah,(%rbx,%rcx,1)
    5d62:	49 8b 0e             	mov    (%r14),%rcx
    5d65:	48 8d 51 01          	lea    0x1(%rcx),%rdx
    5d69:	49 89 16             	mov    %rdx,(%r14)
    5d6c:	88 04 0b             	mov    %al,(%rbx,%rcx,1)
    5d6f:	49 8b 3e             	mov    (%r14),%rdi
    5d72:	48 01 df             	add    %rbx,%rdi
    5d75:	4b 8d 34 2c          	lea    (%r12,%r13,1),%rsi
    5d79:	48 89 ea             	mov    %rbp,%rdx
    5d7c:	e8 cf c3 ff ff       	call   2150 <memcpy@plt>
    5d81:	49 01 ed             	add    %rbp,%r13
    5d84:	49 03 2e             	add    (%r14),%rbp
    5d87:	49 89 2e             	mov    %rbp,(%r14)
    5d8a:	4d 39 fd             	cmp    %r15,%r13
    5d8d:	72 a1                	jb     5d30 <block_encode_uncompressed+0x160>
    5d8f:	eb 05                	jmp    5d96 <block_encode_uncompressed+0x1c6>
    5d91:	48 8b 5c 24 08       	mov    0x8(%rsp),%rbx
    5d96:	48 8d 45 01          	lea    0x1(%rbp),%rax
    5d9a:	49 89 06             	mov    %rax,(%r14)
    5d9d:	c6 04 2b 00          	movb   $0x0,(%rbx,%rbp,1)
    5da1:	31 c0                	xor    %eax,%eax
    5da3:	48 81 c4 a8 00 00 00 	add    $0xa8,%rsp
    5daa:	5b                   	pop    %rbx
    5dab:	41 5c                	pop    %r12
    5dad:	41 5d                	pop    %r13
    5daf:	41 5e                	pop    %r14
    5db1:	41 5f                	pop    %r15
    5db3:	5d                   	pop    %rbp
    5db4:	c3                   	ret    
    5db5:	66 2e 0f 1f 84 00 00 	cs nopw 0x0(%rax,%rax,1)
    5dbc:	00 00 00 
    5dbf:	90                   	nop

0000000000005dc0 <lzma_block_encoder_init>:
    5dc0:	41 57                	push   %r15
    5dc2:	41 56                	push   %r14
    5dc4:	41 54                	push   %r12
    5dc6:	53                   	push   %rbx
    5dc7:	50                   	push   %rax
    5dc8:	49 89 d6             	mov    %rdx,%r14
    5dcb:	48 89 f3             	mov    %rsi,%rbx
    5dce:	49 89 ff             	mov    %rdi,%r15
    5dd1:	4c 8d 25 e8 ff ff ff 	lea    -0x18(%rip),%r12        # 5dc0 <lzma_block_encoder_init>
    5dd8:	4c 39 67 10          	cmp    %r12,0x10(%rdi)
    5ddc:	74 0b                	je     5de9 <lzma_block_encoder_init+0x29>
    5dde:	4c 89 ff             	mov    %r15,%rdi
    5de1:	48 89 de             	mov    %rbx,%rsi
    5de4:	e8 57 d2 ff ff       	call   3040 <lzma_next_end>
    5de9:	4d 89 67 10          	mov    %r12,0x10(%r15)
    5ded:	b8 0b 00 00 00       	mov    $0xb,%eax
    5df2:	4d 85 f6             	test   %r14,%r14
    5df5:	0f 84 ef 00 00 00    	je     5eea <lzma_block_encoder_init+0x12a>
    5dfb:	b8 08 00 00 00       	mov    $0x8,%eax
    5e00:	41 83 3e 00          	cmpl   $0x0,(%r14)
    5e04:	0f 85 e0 00 00 00    	jne    5eea <lzma_block_encoder_init+0x12a>
    5e0a:	41 8b 7e 08          	mov    0x8(%r14),%edi
    5e0e:	b8 0b 00 00 00       	mov    $0xb,%eax
    5e13:	83 ff 0f             	cmp    $0xf,%edi
    5e16:	0f 87 ce 00 00 00    	ja     5eea <lzma_block_encoder_init+0x12a>
    5e1c:	e8 0f 4b 00 00       	call   a930 <lzma_check_is_supported>
    5e21:	84 c0                	test   %al,%al
    5e23:	0f 84 bc 00 00 00    	je     5ee5 <lzma_block_encoder_init+0x125>
    5e29:	49 8b 07             	mov    (%r15),%rax
    5e2c:	48 85 c0             	test   %rax,%rax
    5e2f:	75 5b                	jne    5e8c <lzma_block_encoder_init+0xcc>
    5e31:	bf d0 00 00 00       	mov    $0xd0,%edi
    5e36:	48 89 de             	mov    %rbx,%rsi
    5e39:	e8 82 d0 ff ff       	call   2ec0 <lzma_alloc>
    5e3e:	49 89 07             	mov    %rax,(%r15)
    5e41:	48 85 c0             	test   %rax,%rax
    5e44:	0f 84 ac 00 00 00    	je     5ef6 <lzma_block_encoder_init+0x136>
    5e4a:	48 8d 0d af 00 00 00 	lea    0xaf(%rip),%rcx        # 5f00 <block_encode>
    5e51:	49 89 4f 18          	mov    %rcx,0x18(%r15)
    5e55:	48 8d 0d f4 02 00 00 	lea    0x2f4(%rip),%rcx        # 6150 <block_encoder_end>
    5e5c:	49 89 4f 20          	mov    %rcx,0x20(%r15)
    5e60:	48 8d 0d 19 03 00 00 	lea    0x319(%rip),%rcx        # 6180 <block_encoder_update>
    5e67:	49 89 4f 38          	mov    %rcx,0x38(%r15)
    5e6b:	48 c7 00 00 00 00 00 	movq   $0x0,(%rax)
    5e72:	48 c7 40 08 ff ff ff 	movq   $0xffffffffffffffff,0x8(%rax)
    5e79:	ff 
    5e7a:	0f 57 c0             	xorps  %xmm0,%xmm0
    5e7d:	0f 11 40 10          	movups %xmm0,0x10(%rax)
    5e81:	0f 11 40 20          	movups %xmm0,0x20(%rax)
    5e85:	0f 11 40 30          	movups %xmm0,0x30(%rax)
    5e89:	49 8b 07             	mov    (%r15),%rax
    5e8c:	c7 40 48 00 00 00 00 	movl   $0x0,0x48(%rax)
    5e93:	49 8b 07             	mov    (%r15),%rax
    5e96:	4c 89 70 40          	mov    %r14,0x40(%rax)
    5e9a:	49 8b 07             	mov    (%r15),%rax
    5e9d:	48 c7 40 50 00 00 00 	movq   $0x0,0x50(%rax)
    5ea4:	00 
    5ea5:	49 8b 07             	mov    (%r15),%rax
    5ea8:	48 c7 40 58 00 00 00 	movq   $0x0,0x58(%rax)
    5eaf:	00 
    5eb0:	49 8b 07             	mov    (%r15),%rax
    5eb3:	48 c7 40 60 00 00 00 	movq   $0x0,0x60(%rax)
    5eba:	00 
    5ebb:	49 8b 3f             	mov    (%r15),%rdi
    5ebe:	48 83 c7 68          	add    $0x68,%rdi
    5ec2:	41 8b 76 08          	mov    0x8(%r14),%esi
    5ec6:	e8 a5 4a 00 00       	call   a970 <lzma_check_init>
    5ecb:	49 8b 3f             	mov    (%r15),%rdi
    5ece:	49 8b 56 20          	mov    0x20(%r14),%rdx
    5ed2:	48 89 de             	mov    %rbx,%rsi
    5ed5:	48 83 c4 08          	add    $0x8,%rsp
    5ed9:	5b                   	pop    %rbx
    5eda:	41 5c                	pop    %r12
    5edc:	41 5e                	pop    %r14
    5ede:	41 5f                	pop    %r15
    5ee0:	e9 db 09 00 00       	jmp    68c0 <lzma_raw_encoder_init>
    5ee5:	b8 03 00 00 00       	mov    $0x3,%eax
    5eea:	48 83 c4 08          	add    $0x8,%rsp
    5eee:	5b                   	pop    %rbx
    5eef:	41 5c                	pop    %r12
    5ef1:	41 5e                	pop    %r14
    5ef3:	41 5f                	pop    %r15
    5ef5:	c3                   	ret    
    5ef6:	b8 05 00 00 00       	mov    $0x5,%eax
    5efb:	eb ed                	jmp    5eea <lzma_block_encoder_init+0x12a>
    5efd:	0f 1f 00             	nopl   (%rax)

0000000000005f00 <block_encode>:
    5f00:	55                   	push   %rbp
    5f01:	41 57                	push   %r15
    5f03:	41 56                	push   %r14
    5f05:	41 55                	push   %r13
    5f07:	41 54                	push   %r12
    5f09:	53                   	push   %rbx
    5f0a:	50                   	push   %rax
    5f0b:	4d 89 ce             	mov    %r9,%r14
    5f0e:	48 89 fb             	mov    %rdi,%rbx
    5f11:	49 bc bc fb ff ff ff 	movabs $0x7ffffffffffffbbc,%r12
    5f18:	ff ff 7f 
    5f1b:	48 8b 47 58          	mov    0x58(%rdi),%rax
    5f1f:	48 f7 d8             	neg    %rax
    5f22:	49 8d 3c 04          	lea    (%r12,%rax,1),%rdi
    5f26:	48 81 c7 43 04 00 00 	add    $0x443,%rdi
    5f2d:	4c 8b 39             	mov    (%rcx),%r15
    5f30:	4d 89 c1             	mov    %r8,%r9
    5f33:	4d 29 f9             	sub    %r15,%r9
    5f36:	b8 09 00 00 00       	mov    $0x9,%eax
    5f3b:	4c 39 cf             	cmp    %r9,%rdi
    5f3e:	73 0f                	jae    5f4f <block_encode+0x4f>
    5f40:	48 83 c4 08          	add    $0x8,%rsp
    5f44:	5b                   	pop    %rbx
    5f45:	41 5c                	pop    %r12
    5f47:	41 5d                	pop    %r13
    5f49:	41 5e                	pop    %r14
    5f4b:	41 5f                	pop    %r15
    5f4d:	5d                   	pop    %rbp
    5f4e:	c3                   	ret    
    5f4f:	4c 8b 54 24 48       	mov    0x48(%rsp),%r10
    5f54:	4c 8b 6c 24 40       	mov    0x40(%rsp),%r13
    5f59:	8b 7b 48             	mov    0x48(%rbx),%edi
    5f5c:	83 ff 02             	cmp    $0x2,%edi
    5f5f:	0f 84 87 01 00 00    	je     60ec <block_encode+0x1ec>
    5f65:	83 ff 01             	cmp    $0x1,%edi
    5f68:	0f 84 bd 00 00 00    	je     602b <block_encode+0x12b>
    5f6e:	b8 0b 00 00 00       	mov    $0xb,%eax
    5f73:	85 ff                	test   %edi,%edi
    5f75:	75 c9                	jne    5f40 <block_encode+0x40>
    5f77:	8b 44 24 50          	mov    0x50(%rsp),%eax
    5f7b:	49 8b 7d 00          	mov    0x0(%r13),%rdi
    5f7f:	48 89 3c 24          	mov    %rdi,(%rsp)
    5f83:	48 8b 3b             	mov    (%rbx),%rdi
    5f86:	48 83 ec 08          	sub    $0x8,%rsp
    5f8a:	49 89 d5             	mov    %rdx,%r13
    5f8d:	48 89 cd             	mov    %rcx,%rbp
    5f90:	4d 89 f1             	mov    %r14,%r9
    5f93:	50                   	push   %rax
    5f94:	41 52                	push   %r10
    5f96:	ff 74 24 58          	push   0x58(%rsp)
    5f9a:	ff 53 18             	call   *0x18(%rbx)
    5f9d:	48 89 e9             	mov    %rbp,%rcx
    5fa0:	4c 89 ea             	mov    %r13,%rdx
    5fa3:	4c 8b 6c 24 60       	mov    0x60(%rsp),%r13
    5fa8:	48 83 c4 20          	add    $0x20,%rsp
    5fac:	89 c5                	mov    %eax,%ebp
    5fae:	49 8b 75 00          	mov    0x0(%r13),%rsi
    5fb2:	48 2b 34 24          	sub    (%rsp),%rsi
    5fb6:	48 8b 7b 50          	mov    0x50(%rbx),%rdi
    5fba:	49 29 fc             	sub    %rdi,%r12
    5fbd:	b8 09 00 00 00       	mov    $0x9,%eax
    5fc2:	49 39 f4             	cmp    %rsi,%r12
    5fc5:	0f 82 75 ff ff ff    	jb     5f40 <block_encode+0x40>
    5fcb:	48 8b 09             	mov    (%rcx),%rcx
    5fce:	4c 29 f9             	sub    %r15,%rcx
    5fd1:	48 01 f7             	add    %rsi,%rdi
    5fd4:	48 89 7b 50          	mov    %rdi,0x50(%rbx)
    5fd8:	48 01 4b 58          	add    %rcx,0x58(%rbx)
    5fdc:	48 8d 7b 68          	lea    0x68(%rbx),%rdi
    5fe0:	48 8b 43 40          	mov    0x40(%rbx),%rax
    5fe4:	8b 70 08             	mov    0x8(%rax),%esi
    5fe7:	4c 01 fa             	add    %r15,%rdx
    5fea:	e8 b1 49 00 00       	call   a9a0 <lzma_check_update>
    5fef:	8b 44 24 50          	mov    0x50(%rsp),%eax
    5ff3:	83 f8 01             	cmp    $0x1,%eax
    5ff6:	0f 84 47 01 00 00    	je     6143 <block_encode+0x243>
    5ffc:	89 e8                	mov    %ebp,%eax
    5ffe:	83 fd 01             	cmp    $0x1,%ebp
    6001:	4c 8b 54 24 48       	mov    0x48(%rsp),%r10
    6006:	0f 85 34 ff ff ff    	jne    5f40 <block_encode+0x40>
    600c:	48 8b 43 40          	mov    0x40(%rbx),%rax
    6010:	48 8b 4b 50          	mov    0x50(%rbx),%rcx
    6014:	48 89 48 10          	mov    %rcx,0x10(%rax)
    6018:	48 8b 43 40          	mov    0x40(%rbx),%rax
    601c:	48 8b 4b 58          	mov    0x58(%rbx),%rcx
    6020:	48 89 48 18          	mov    %rcx,0x18(%rax)
    6024:	c7 43 48 01 00 00 00 	movl   $0x1,0x48(%rbx)
    602b:	48 8b 4b 50          	mov    0x50(%rbx),%rcx
    602f:	f6 c1 03             	test   $0x3,%cl
    6032:	0f 84 93 00 00 00    	je     60cb <block_encode+0x1cb>
    6038:	49 8b 55 00          	mov    0x0(%r13),%rdx
    603c:	31 c0                	xor    %eax,%eax
    603e:	4c 39 d2             	cmp    %r10,%rdx
    6041:	0f 83 f9 fe ff ff    	jae    5f40 <block_encode+0x40>
    6047:	41 c6 04 16 00       	movb   $0x0,(%r14,%rdx,1)
    604c:	48 8d 72 01          	lea    0x1(%rdx),%rsi
    6050:	49 89 75 00          	mov    %rsi,0x0(%r13)
    6054:	48 8d 79 01          	lea    0x1(%rcx),%rdi
    6058:	48 89 7b 50          	mov    %rdi,0x50(%rbx)
    605c:	40 f6 c7 03          	test   $0x3,%dil
    6060:	74 69                	je     60cb <block_encode+0x1cb>
    6062:	4c 39 d6             	cmp    %r10,%rsi
    6065:	0f 83 d5 fe ff ff    	jae    5f40 <block_encode+0x40>
    606b:	41 c6 44 16 01 00    	movb   $0x0,0x1(%r14,%rdx,1)
    6071:	48 8d 72 02          	lea    0x2(%rdx),%rsi
    6075:	49 89 75 00          	mov    %rsi,0x0(%r13)
    6079:	48 8d 79 02          	lea    0x2(%rcx),%rdi
    607d:	48 89 7b 50          	mov    %rdi,0x50(%rbx)
    6081:	40 f6 c7 03          	test   $0x3,%dil
    6085:	74 44                	je     60cb <block_encode+0x1cb>
    6087:	4c 39 d6             	cmp    %r10,%rsi
    608a:	0f 83 b0 fe ff ff    	jae    5f40 <block_encode+0x40>
    6090:	41 c6 44 16 02 00    	movb   $0x0,0x2(%r14,%rdx,1)
    6096:	48 8d 72 03          	lea    0x3(%rdx),%rsi
    609a:	49 89 75 00          	mov    %rsi,0x0(%r13)
    609e:	48 8d 79 03          	lea    0x3(%rcx),%rdi
    60a2:	48 89 7b 50          	mov    %rdi,0x50(%rbx)
    60a6:	40 f6 c7 03          	test   $0x3,%dil
    60aa:	74 1f                	je     60cb <block_encode+0x1cb>
    60ac:	4c 39 d6             	cmp    %r10,%rsi
    60af:	0f 83 8b fe ff ff    	jae    5f40 <block_encode+0x40>
    60b5:	41 c6 44 16 03 00    	movb   $0x0,0x3(%r14,%rdx,1)
    60bb:	48 83 c2 04          	add    $0x4,%rdx
    60bf:	49 89 55 00          	mov    %rdx,0x0(%r13)
    60c3:	48 83 c1 04          	add    $0x4,%rcx
    60c7:	48 89 4b 50          	mov    %rcx,0x50(%rbx)
    60cb:	48 8b 43 40          	mov    0x40(%rbx),%rax
    60cf:	8b 70 08             	mov    0x8(%rax),%esi
    60d2:	85 f6                	test   %esi,%esi
    60d4:	74 63                	je     6139 <block_encode+0x239>
    60d6:	48 8d 7b 68          	lea    0x68(%rbx),%rdi
    60da:	4d 89 d7             	mov    %r10,%r15
    60dd:	e8 0e 49 00 00       	call   a9f0 <lzma_check_finish>
    60e2:	4d 89 fa             	mov    %r15,%r10
    60e5:	c7 43 48 02 00 00 00 	movl   $0x2,0x48(%rbx)
    60ec:	48 8b 43 40          	mov    0x40(%rbx),%rax
    60f0:	8b 78 08             	mov    0x8(%rax),%edi
    60f3:	4d 89 d7             	mov    %r10,%r15
    60f6:	e8 55 48 00 00       	call   a950 <lzma_check_size>
    60fb:	4d 89 e8             	mov    %r13,%r8
    60fe:	41 89 c5             	mov    %eax,%r13d
    6101:	48 8d 6b 68          	lea    0x68(%rbx),%rbp
    6105:	48 8d 73 60          	lea    0x60(%rbx),%rsi
    6109:	48 89 ef             	mov    %rbp,%rdi
    610c:	4c 89 ea             	mov    %r13,%rdx
    610f:	4c 89 f1             	mov    %r14,%rcx
    6112:	4d 89 f9             	mov    %r15,%r9
    6115:	e8 06 ce ff ff       	call   2f20 <lzma_bufcpy>
    611a:	31 c0                	xor    %eax,%eax
    611c:	4c 39 6b 60          	cmp    %r13,0x60(%rbx)
    6120:	0f 82 1a fe ff ff    	jb     5f40 <block_encode+0x40>
    6126:	48 8b 7b 40          	mov    0x40(%rbx),%rdi
    612a:	48 83 c7 28          	add    $0x28,%rdi
    612e:	48 89 ee             	mov    %rbp,%rsi
    6131:	4c 89 ea             	mov    %r13,%rdx
    6134:	e8 17 c0 ff ff       	call   2150 <memcpy@plt>
    6139:	b8 01 00 00 00       	mov    $0x1,%eax
    613e:	e9 fd fd ff ff       	jmp    5f40 <block_encode+0x40>
    6143:	89 e8                	mov    %ebp,%eax
    6145:	e9 f6 fd ff ff       	jmp    5f40 <block_encode+0x40>
    614a:	66 0f 1f 44 00 00    	nopw   0x0(%rax,%rax,1)

0000000000006150 <block_encoder_end>:
    6150:	41 56                	push   %r14
    6152:	53                   	push   %rbx
    6153:	50                   	push   %rax
    6154:	48 89 f3             	mov    %rsi,%rbx
    6157:	49 89 fe             	mov    %rdi,%r14
    615a:	e8 e1 ce ff ff       	call   3040 <lzma_next_end>
    615f:	4c 89 f7             	mov    %r14,%rdi
    6162:	48 89 de             	mov    %rbx,%rsi
    6165:	48 83 c4 08          	add    $0x8,%rsp
    6169:	5b                   	pop    %rbx
    616a:	41 5e                	pop    %r14
    616c:	e9 7f cd ff ff       	jmp    2ef0 <lzma_free>
    6171:	66 66 66 66 66 66 2e 	data16 data16 data16 data16 data16 cs nopw 0x0(%rax,%rax,1)
    6178:	0f 1f 84 00 00 00 00 
    617f:	00 

0000000000006180 <block_encoder_update>:
    6180:	83 7f 48 00          	cmpl   $0x0,0x48(%rdi)
    6184:	74 06                	je     618c <block_encoder_update+0xc>
    6186:	b8 0b 00 00 00       	mov    $0xb,%eax
    618b:	c3                   	ret    
    618c:	48 89 ca             	mov    %rcx,%rdx
    618f:	e9 1c cf ff ff       	jmp    30b0 <lzma_next_filter_update>
    6194:	66 66 66 2e 0f 1f 84 	data16 data16 cs nopw 0x0(%rax,%rax,1)
    619b:	00 00 00 00 00 

00000000000061a0 <lzma_block_encoder>:
    61a0:	41 56                	push   %r14
    61a2:	53                   	push   %rbx
    61a3:	50                   	push   %rax
    61a4:	49 89 f6             	mov    %rsi,%r14
    61a7:	48 89 fb             	mov    %rdi,%rbx
    61aa:	e8 31 cf ff ff       	call   30e0 <lzma_strm_init>
    61af:	85 c0                	test   %eax,%eax
    61b1:	74 08                	je     61bb <lzma_block_encoder+0x1b>
    61b3:	48 83 c4 08          	add    $0x8,%rsp
    61b7:	5b                   	pop    %rbx
    61b8:	41 5e                	pop    %r14
    61ba:	c3                   	ret    
    61bb:	48 8b 73 30          	mov    0x30(%rbx),%rsi
    61bf:	48 8b 7b 38          	mov    0x38(%rbx),%rdi
    61c3:	4c 89 f2             	mov    %r14,%rdx
    61c6:	e8 f5 fb ff ff       	call   5dc0 <lzma_block_encoder_init>
    61cb:	85 c0                	test   %eax,%eax
